U:\Projekte\vacuum\src\libs\vacuumu.def(120) : warning LNK4024: __ZN7QStringD1Ev : multiple definitions for export name
U:\Projekte\vacuum\src\libs\vacuumu.def(193) : warning LNK4024: __ZN10QByteArrayD1Ev : multiple definitions for export name
U:\Projekte\vacuum\src\libs\vacuumu.def(194) : warning LNK4024: __ZN7QStringD1Ev : multiple definitions for export name
U:\Projekte\vacuum\src\libs\vacuumu.def(220) : warning LNK4024: __ZTISt9bad_alloc : multiple definitions for export name
U:\Projekte\vacuum\src\libs\vacuumu.def(228) : warning LNK4024: __ZTSSt9bad_alloc : multiple definitions for export name
U:\Projekte\vacuum\src\libs\vacuumu.def(229) : warning LNK4024: __ZTISt9exception : multiple definitions for export name
U:\Projekte\vacuum\src\libs\vacuumu.def(232) : warning LNK4024: __ZTSSt9exception : multiple definitions for export name
U:\Projekte\vacuum\src\libs\vacuumu.def(272) : warning LNK4024: __ZN7QStringD1Ev : multiple definitions for export name
U:\Projekte\vacuum\src\libs\vacuumu.def(318) : warning LNK4024: __ZN10QByteArrayD1Ev : multiple definitions for export name
U:\Projekte\vacuum\src\libs\vacuumu.def(319) : warning LNK4024: __ZN7QStringD1Ev : multiple definitions for export name
U:\Projekte\vacuum\src\libs\vacuumu.def(325) : warning LNK4024: __ZN5QListIiED1Ev : multiple definitions for export name
U:\Projekte\vacuum\src\libs\vacuumu.def(342) : warning LNK4024: __ZN5QListIiE18detach_helper_growEii : multiple definitions for export name
U:\Projekte\vacuum\src\libs\vacuumu.def(343) : warning LNK4024: __ZN5QListIiE6appendERKi : multiple definitions for export name
U:\Projekte\vacuum\src\libs\vacuumu.def(355) : warning LNK4024: __ZN5QListIiE13detach_helperEi : multiple definitions for export name
U:\Projekte\vacuum\src\libs\vacuumu.def(356) : warning LNK4024: __ZN5QListIiE13detach_helperEv : multiple definitions for export name
U:\Projekte\vacuum\src\libs\vacuumu.def(367) : warning LNK4024: __ZTISt9bad_alloc : multiple definitions for export name
U:\Projekte\vacuum\src\libs\vacuumu.def(368) : warning LNK4024: __ZTSSt9bad_alloc : multiple definitions for export name
U:\Projekte\vacuum\src\libs\vacuumu.def(369) : warning LNK4024: __ZTISt9exception : multiple definitions for export name
U:\Projekte\vacuum\src\libs\vacuumu.def(372) : warning LNK4024: __ZTSSt9exception : multiple definitions for export name
U:\Projekte\vacuum\src\libs\vacuumu.def(384) : warning LNK4024: __ZN7QStringD1Ev : multiple definitions for export name
U:\Projekte\vacuum\src\libs\vacuumu.def(387) : warning LNK4024: __ZN5QListI7QStringED1Ev : multiple definitions for export name
U:\Projekte\vacuum\src\libs\vacuumu.def(390) : warning LNK4024: __ZN5QListI7QStringE18detach_helper_growEii : multiple definitions for export name
U:\Projekte\vacuum\src\libs\vacuumu.def(391) : warning LNK4024: __ZN5QListI7QStringE6appendERKS0_ : multiple definitions for export name
U:\Projekte\vacuum\src\libs\vacuumu.def(395) : warning LNK4024: __ZN5QListI7QStringE13detach_helperEi : multiple definitions for export name
U:\Projekte\vacuum\src\libs\vacuumu.def(398) : warning LNK4024: __ZN5QListI7QStringE13detach_helperEv : multiple definitions for export name
U:\Projekte\vacuum\src\libs\vacuumu.def(438) : warning LNK4024: __ZN5QHashI7QStringP11IconStorageE13duplicateNodeEPN9QHashData4NodeEPv : multiple definitions for export name
U:\Projekte\vacuum\src\libs\vacuumu.def(443) : warning LNK4024: __ZN5QHashI7QStringP11IconStorageE11deleteNode2EPN9QHashData4NodeE : multiple definitions for export name
U:\Projekte\vacuum\src\libs\vacuumu.def(445) : warning LNK4024: __ZN10QByteArrayD1Ev : multiple definitions for export name
U:\Projekte\vacuum\src\libs\vacuumu.def(446) : warning LNK4024: __ZN7QStringD1Ev : multiple definitions for export name
U:\Projekte\vacuum\src\libs\vacuumu.def(450) : warning LNK4024: __ZN5QListI7QStringED1Ev : multiple definitions for export name
U:\Projekte\vacuum\src\libs\vacuumu.def(455) : warning LNK4024: __ZNK5QListI7QStringE8containsERKS0_ : multiple definitions for export name
U:\Projekte\vacuum\src\libs\vacuumu.def(458) : warning LNK4024: __ZN5QListI7QStringE18detach_helper_growEii : multiple definitions for export name
U:\Projekte\vacuum\src\libs\vacuumu.def(459) : warning LNK4024: __ZN5QListI7QStringE6appendERKS0_ : multiple definitions for export name
U:\Projekte\vacuum\src\libs\vacuumu.def(465) : warning LNK4024: __ZNK5QHashI7QStringP11IconStorageE8findNodeERKS0_Pj : multiple definitions for export name
U:\Projekte\vacuum\src\libs\vacuumu.def(471) : warning LNK4024: __ZN5QListI7QStringE13detach_helperEi : multiple definitions for export name
U:\Projekte\vacuum\src\libs\vacuumu.def(472) : warning LNK4024: __ZN5QListI7QStringE13detach_helperEv : multiple definitions for export name
U:\Projekte\vacuum\src\libs\vacuumu.def(484) : warning LNK4024: __ZN5QHashI7QStringP11IconStorageE13detach_helperEv : multiple definitions for export name
U:\Projekte\vacuum\src\libs\vacuumu.def(487) : warning LNK4024: __ZTISt9bad_alloc : multiple definitions for export name
U:\Projekte\vacuum\src\libs\vacuumu.def(496) : warning LNK4024: __ZTSSt9bad_alloc : multiple definitions for export name
U:\Projekte\vacuum\src\libs\vacuumu.def(497) : warning LNK4024: __ZTISt9exception : multiple definitions for export name
U:\Projekte\vacuum\src\libs\vacuumu.def(500) : warning LNK4024: __ZTSSt9exception : multiple definitions for export name
U:\Projekte\vacuum\src\libs\vacuumu.def(572) : warning LNK4024: __ZN10QByteArrayD1Ev : multiple definitions for export name
U:\Projekte\vacuum\src\libs\vacuumu.def(573) : warning LNK4024: __ZN7QStringD1Ev : multiple definitions for export name
U:\Projekte\vacuum\src\libs\vacuumu.def(581) : warning LNK4024: __ZN5QListI7QStringED1Ev : multiple definitions for export name
U:\Projekte\vacuum\src\libs\vacuumu.def(584) : warning LNK4024: __ZNK5QListI7QStringE7indexOfERKS0_i : multiple definitions for export name
U:\Projekte\vacuum\src\libs\vacuumu.def(591) : warning LNK4024: __ZN5QListI7QStringE18detach_helper_growEii : multiple definitions for export name
U:\Projekte\vacuum\src\libs\vacuumu.def(592) : warning LNK4024: __ZN5QListI7QStringE6appendERKS0_ : multiple definitions for export name
U:\Projekte\vacuum\src\libs\vacuumu.def(593) : warning LNK4024: __ZN5QListI7QStringE13detach_helperEi : multiple definitions for export name
U:\Projekte\vacuum\src\libs\vacuumu.def(594) : warning LNK4024: __ZN5QListI7QStringE13detach_helperEv : multiple definitions for export name
U:\Projekte\vacuum\src\libs\vacuumu.def(620) : warning LNK4024: __ZN7QStringD1Ev : multiple definitions for export name
U:\Projekte\vacuum\src\libs\vacuumu.def(624) : warning LNK4024: __ZN5QListIiED1Ev : multiple definitions for export name
U:\Projekte\vacuum\src\libs\vacuumu.def(638) : warning LNK4024: __ZN5QListIiE13detach_helperEi : multiple definitions for export name
U:\Projekte\vacuum\src\libs\vacuumu.def(640) : warning LNK4024: __ZN5QListIiE13detach_helperEv : multiple definitions for export name
U:\Projekte\vacuum\src\libs\vacuumu.def(641) : warning LNK4024: __ZN5QListIiE18detach_helper_growEii : multiple definitions for export name
U:\Projekte\vacuum\src\libs\vacuumu.def(642) : warning LNK4024: __ZN5QListIiE6appendERKi : multiple definitions for export name
U:\Projekte\vacuum\src\libs\vacuumu.def(728) : warning LNK4024: __ZN5QHashIi8QVariantE11deleteNode2EPN9QHashData4NodeE : multiple definitions for export name
U:\Projekte\vacuum\src\libs\vacuumu.def(729) : warning LNK4024: __ZN5QHashIi8QVariantE13duplicateNodeEPN9QHashData4NodeEPv : multiple definitions for export name
U:\Projekte\vacuum\src\libs\vacuumu.def(730) : warning LNK4024: __ZN7QStringD1Ev : multiple definitions for export name
U:\Projekte\vacuum\src\libs\vacuumu.def(731) : warning LNK4024: __ZN5QListI7QStringED2Ev : multiple definitions for export name
U:\Projekte\vacuum\src\libs\vacuumu.def(732) : warning LNK4024: __ZN5QHashIi8QVariantED1Ev : multiple definitions for export name
U:\Projekte\vacuum\src\libs\vacuumu.def(734) : warning LNK4024: __ZN5QListI7QStringE18detach_helper_growEii : multiple definitions for export name
U:\Projekte\vacuum\src\libs\vacuumu.def(735) : warning LNK4024: __ZN5QListI7QStringE6appendERKS0_ : multiple definitions for export name
U:\Projekte\vacuum\src\libs\vacuumu.def(736) : warning LNK4024: __ZN5QHashIi8QVariantE13detach_helperEv : multiple definitions for export name
U:\Projekte\vacuum\src\libs\vacuumu.def(737) : warning LNK4024: __ZN5QHashIi8QVariantE6removeERKi : multiple definitions for export name
U:\Projekte\vacuum\src\libs\vacuumu.def(738) : warning LNK4024: __ZTISt9bad_alloc : multiple definitions for export name
U:\Projekte\vacuum\src\libs\vacuumu.def(740) : warning LNK4024: __ZTSSt9bad_alloc : multiple definitions for export name
U:\Projekte\vacuum\src\libs\vacuumu.def(741) : warning LNK4024: __ZTISt9exception : multiple definitions for export name
U:\Projekte\vacuum\src\libs\vacuumu.def(744) : warning LNK4024: __ZTSSt9exception : multiple definitions for export name
U:\Projekte\vacuum\src\libs\vacuumu.def(757) : warning LNK4024: __ZTI7QObject : multiple definitions for export name
U:\Projekte\vacuum\src\libs\vacuumu.def(760) : warning LNK4024: __ZTS7QObject : multiple definitions for export name
U:\Projekte\vacuum\src\libs\vacuumu.def(773) : warning LNK4024: __ZTI21QAbstractItemDelegate : multiple definitions for export name
U:\Projekte\vacuum\src\libs\vacuumu.def(774) : warning LNK4024: __ZTS21QAbstractItemDelegate : multiple definitions for export name
U:\Projekte\vacuum\src\libs\vacuumu.def(775) : warning LNK4024: __ZTI7QObject : multiple definitions for export name
U:\Projekte\vacuum\src\libs\vacuumu.def(778) : warning LNK4024: __ZTS7QObject : multiple definitions for export name
U:\Projekte\vacuum\src\libs\vacuumu.def(788) : warning LNK4024: __ZN5QHashIP6QMovie15QHashDummyValueE11deleteNode2EPN9QHashData4NodeE : multiple definitions for export name
U:\Projekte\vacuum\src\libs\vacuumu.def(789) : warning LNK4024: __ZN5QHashIP6QMovie4QUrlE11deleteNode2EPN9QHashData4NodeE : multiple definitions for export name
U:\Projekte\vacuum\src\libs\vacuumu.def(790) : warning LNK4024: __ZN5QHashI4QUrlP6QMovieE11deleteNode2EPN9QHashData4NodeE : multiple definitions for export name
U:\Projekte\vacuum\src\libs\vacuumu.def(791) : warning LNK4024: __ZN7QStringD1Ev : multiple definitions for export name
U:\Projekte\vacuum\src\libs\vacuumu.def(792) : warning LNK4024: __ZN5QHashI7QString8QVariantE11deleteNode2EPN9QHashData4NodeE : multiple definitions for export name
U:\Projekte\vacuum\src\libs\vacuumu.def(793) : warning LNK4024: __ZN5QHashIP6QMovie15QHashDummyValueED1Ev : multiple definitions for export name
U:\Projekte\vacuum\src\libs\vacuumu.def(794) : warning LNK4024: __ZN5QHashIP6QMovie4QUrlED1Ev : multiple definitions for export name
U:\Projekte\vacuum\src\libs\vacuumu.def(795) : warning LNK4024: __ZN5QHashI4QUrlP6QMovieED1Ev : multiple definitions for export name
U:\Projekte\vacuum\src\libs\vacuumu.def(796) : warning LNK4024: __ZN5QHashIP6QMovie5QListIiEED1Ev : multiple definitions for export name
U:\Projekte\vacuum\src\libs\vacuumu.def(797) : warning LNK4024: __ZN5QHashIP6QMovie5QListIiEE11deleteNode2EPN9QHashData4NodeE : multiple definitions for export name
U:\Projekte\vacuum\src\libs\vacuumu.def(803) : warning LNK4024: __ZN5QListIiED1Ev : multiple definitions for export name
U:\Projekte\vacuum\src\libs\vacuumu.def(816) : warning LNK4024: __ZTI7QObject : multiple definitions for export name
U:\Projekte\vacuum\src\libs\vacuumu.def(818) : warning LNK4024: __ZTS7QObject : multiple definitions for export name
U:\Projekte\vacuum\src\libs\vacuumu.def(833) : warning LNK4024: __ZTI7QWidget : multiple definitions for export name
U:\Projekte\vacuum\src\libs\vacuumu.def(834) : warning LNK4024: __ZTS7QWidget : multiple definitions for export name
U:\Projekte\vacuum\src\libs\vacuumu.def(835) : warning LNK4024: __ZTI7QObject : multiple definitions for export name
U:\Projekte\vacuum\src\libs\vacuumu.def(836) : warning LNK4024: __ZTI12QPaintDevice : multiple definitions for export name
U:\Projekte\vacuum\src\libs\vacuumu.def(837) : warning LNK4024: __ZTS7QObject : multiple definitions for export name
U:\Projekte\vacuum\src\libs\vacuumu.def(840) : warning LNK4024: __ZTS12QPaintDevice : multiple definitions for export name
U:\Projekte\vacuum\src\libs\vacuumu.def(851) : warning LNK4024: __ZTI7QObject : multiple definitions for export name
U:\Projekte\vacuum\src\libs\vacuumu.def(854) : warning LNK4024: __ZTS7QObject : multiple definitions for export name
U:\Projekte\vacuum\src\libs\vacuumu.def(862) : warning LNK4024: __ZTI11FileStorage : multiple definitions for export name
U:\Projekte\vacuum\src\libs\vacuumu.def(863) : warning LNK4024: __ZTS11FileStorage : multiple definitions for export name
U:\Projekte\vacuum\src\libs\vacuumu.def(864) : warning LNK4024: __ZTI7QObject : multiple definitions for export name
U:\Projekte\vacuum\src\libs\vacuumu.def(867) : warning LNK4024: __ZTS7QObject : multiple definitions for export name
U:\Projekte\vacuum\src\libs\vacuumu.def(884) : warning LNK4024: __ZTI7QWidget : multiple definitions for export name
U:\Projekte\vacuum\src\libs\vacuumu.def(885) : warning LNK4024: __ZTS7QWidget : multiple definitions for export name
U:\Projekte\vacuum\src\libs\vacuumu.def(886) : warning LNK4024: __ZTI7QObject : multiple definitions for export name
U:\Projekte\vacuum\src\libs\vacuumu.def(887) : warning LNK4024: __ZTI12QPaintDevice : multiple definitions for export name
U:\Projekte\vacuum\src\libs\vacuumu.def(888) : warning LNK4024: __ZTS7QObject : multiple definitions for export name
U:\Projekte\vacuum\src\libs\vacuumu.def(891) : warning LNK4024: __ZTS12QPaintDevice : multiple definitions for export name
U:\Projekte\vacuum\src\libs\vacuumu.def(904) : warning LNK4024: __ZTI7QObject : multiple definitions for export name
U:\Projekte\vacuum\src\libs\vacuumu.def(907) : warning LNK4024: __ZTS7QObject : multiple definitions for export name
U:\Projekte\vacuum\src\libs\vacuumu.def(925) : warning LNK4024: __ZTI7QObject : multiple definitions for export name
U:\Projekte\vacuum\src\libs\vacuumu.def(928) : warning LNK4024: __ZTS7QObject : multiple definitions for export name
U:\Projekte\vacuum\src\libs\vacuumu.def(942) : warning LNK4024: __ZTI7QWidget : multiple definitions for export name
U:\Projekte\vacuum\src\libs\vacuumu.def(943) : warning LNK4024: __ZTS7QWidget : multiple definitions for export name
U:\Projekte\vacuum\src\libs\vacuumu.def(944) : warning LNK4024: __ZTI7QObject : multiple definitions for export name
U:\Projekte\vacuum\src\libs\vacuumu.def(945) : warning LNK4024: __ZTI12QPaintDevice : multiple definitions for export name
U:\Projekte\vacuum\src\libs\vacuumu.def(946) : warning LNK4024: __ZTS7QObject : multiple definitions for export name
U:\Projekte\vacuum\src\libs\vacuumu.def(949) : warning LNK4024: __ZTS12QPaintDevice : multiple definitions for export name
U:\Projekte\vacuum\src\libs\vacuumu.def(969) : warning LNK4024: __ZTI7QObject : multiple definitions for export name
U:\Projekte\vacuum\src\libs\vacuumu.def(972) : warning LNK4024: __ZTS7QObject : multiple definitions for export name
U:\Projekte\vacuum\src\libs\vacuumu.def(985) : warning LNK4024: __ZTI7QObject : multiple definitions for export name
U:\Projekte\vacuum\src\libs\vacuumu.def(988) : warning LNK4024: __ZTS7QObject : multiple definitions for export name
U:\Projekte\vacuum\src\libs\vacuumu.def(1001) : warning LNK4024: __ZTI7QObject : multiple definitions for export name
U:\Projekte\vacuum\src\libs\vacuumu.def(1004) : warning LNK4024: __ZTS7QObject : multiple definitions for export name
U:\Projekte\vacuum\src\libs\vacuumu.def(1017) : warning LNK4024: __ZTI7QObject : multiple definitions for export name
U:\Projekte\vacuum\src\libs\vacuumu.def(1020) : warning LNK4024: __ZTS7QObject : multiple definitions for export name
U:\Projekte\vacuum\src\libs\vacuumu.def(1079) : warning LNK4024: __ZN10QByteArrayD1Ev : multiple definitions for export name
U:\Projekte\vacuum\src\libs\vacuumu.def(1080) : warning LNK4024: __ZN7QStringD1Ev : multiple definitions for export name
U:\Projekte\vacuum\src\libs\vacuumu.def(1083) : warning LNK4024: __ZN5QListI7QStringED2Ev : multiple definitions for export name
U:\Projekte\vacuum\src\libs\vacuumu.def(1084) : warning LNK4024: __ZN5QListI7QStringED1Ev : multiple definitions for export name
U:\Projekte\vacuum\src\libs\vacuumu.def(1085) : warning LNK4024: __ZNK5QListI7QStringE8containsERKS0_ : multiple definitions for export name
U:\Projekte\vacuum\src\libs\vacuumu.def(1088) : warning LNK4024: __ZN5QListI7QStringE18detach_helper_growEii : multiple definitions for export name
U:\Projekte\vacuum\src\libs\vacuumu.def(1089) : warning LNK4024: __ZN5QListI7QStringE6appendERKS0_ : multiple definitions for export name
U:\Projekte\vacuum\src\libs\vacuumu.def(1091) : warning LNK4024: __ZN5QListI7QStringE13detach_helperEi : multiple definitions for export name
U:\Projekte\vacuum\src\libs\vacuumu.def(1092) : warning LNK4024: __ZN5QListI7QStringE13detach_helperEv : multiple definitions for export name
U:\Projekte\vacuum\src\libs\vacuumu.def(1117) : warning LNK4024: __ZN10QByteArrayD1Ev : multiple definitions for export name
U:\Projekte\vacuum\src\libs\vacuumu.def(1118) : warning LNK4024: __ZN5QListI10QByteArrayED1Ev : multiple definitions for export name
U:\Projekte\vacuum\src\libs\vacuumu.def(1153) : warning LNK4024: __ZN7QStringD1Ev : multiple definitions for export name
U:\Projekte\vacuum\src\libs\vacuumu.def(1185) : warning LNK4024: __ZN7QStringD1Ev : multiple definitions for export name
U:\Projekte\vacuum\src\libs\vacuumu.def(1190) : warning LNK4024: __ZN5QListI7QStringED1Ev : multiple definitions for export name
U:\Projekte\vacuum\src\libs\vacuumu.def(1191) : warning LNK4024: __ZN5QListIP7QObjectED1Ev : multiple definitions for export name
U:\Projekte\vacuum\src\libs\vacuumu.def(1194) : warning LNK4024: __ZNK5QListI7QStringE8containsERKS0_ : multiple definitions for export name
U:\Projekte\vacuum\src\libs\vacuumu.def(1196) : warning LNK4024: __ZN5QListIP7QActionED1Ev : multiple definitions for export name
U:\Projekte\vacuum\src\libs\vacuumu.def(1197) : warning LNK4024: __ZN5QListI7QStringE18detach_helper_growEii : multiple definitions for export name
U:\Projekte\vacuum\src\libs\vacuumu.def(1198) : warning LNK4024: __ZN5QListI7QStringE6appendERKS0_ : multiple definitions for export name
U:\Projekte\vacuum\src\libs\vacuumu.def(1207) : warning LNK4024: __ZN5QListI7QStringE13detach_helperEi : multiple definitions for export name
U:\Projekte\vacuum\src\libs\vacuumu.def(1208) : warning LNK4024: __ZN5QListI7QStringE7reserveEi : multiple definitions for export name
U:\Projekte\vacuum\src\libs\vacuumu.def(1214) : warning LNK4024: __ZN5QListIP7QObjectE18detach_helper_growEii : multiple definitions for export name
U:\Projekte\vacuum\src\libs\vacuumu.def(1215) : warning LNK4024: __ZN5QListIP7QObjectE6appendERKS1_ : multiple definitions for export name
U:\Projekte\vacuum\src\libs\vacuumu.def(1239) : warning LNK4024: __ZN5QListIP7QObjectE13detach_helperEi : multiple definitions for export name
U:\Projekte\vacuum\src\libs\vacuumu.def(1240) : warning LNK4024: __ZN5QListIP7QObjectE13detach_helperEv : multiple definitions for export name
U:\Projekte\vacuum\src\libs\vacuumu.def(1285) : warning LNK4024: __ZN7QStringD1Ev : multiple definitions for export name
U:\Projekte\vacuum\src\libs\vacuumu.def(1309) : warning LNK4024: __ZN5QListIP7QWidgetED1Ev : multiple definitions for export name
U:\Projekte\vacuum\src\libs\vacuumu.def(1312) : warning LNK4024: __ZN5QListIP7QWidgetE13detach_helperEi : multiple definitions for export name
U:\Projekte\vacuum\src\libs\vacuumu.def(1313) : warning LNK4024: __ZN5QListIP7QWidgetE7reserveEi : multiple definitions for export name
U:\Projekte\vacuum\src\libs\vacuumu.def(1314) : warning LNK4024: __ZN5QListIP7QWidgetE13detach_helperEv : multiple definitions for export name
U:\Projekte\vacuum\src\libs\vacuumu.def(1315) : warning LNK4024: __ZN5QListIP7QWidgetE18detach_helper_growEii : multiple definitions for export name
U:\Projekte\vacuum\src\libs\vacuumu.def(1316) : warning LNK4024: __ZN5QListIP7QWidgetE6appendERKS1_ : multiple definitions for export name
U:\Projekte\vacuum\src\libs\vacuumu.def(1338) : warning LNK4024: __ZN10QByteArrayD1Ev : multiple definitions for export name
U:\Projekte\vacuum\src\libs\vacuumu.def(1341) : warning LNK4024: __ZN7QStringD1Ev : multiple definitions for export name
U:\Projekte\vacuum\src\libs\vacuumu.def(1373) : warning LNK4024: __ZN4QMapIiP7QActionED1Ev : multiple definitions for export name
U:\Projekte\vacuum\src\libs\vacuumu.def(1375) : warning LNK4024: __ZN4QMapIiP7QWidgetED2Ev : multiple definitions for export name
U:\Projekte\vacuum\src\libs\vacuumu.def(1377) : warning LNK4024: __ZN5QListIP7QActionED1Ev : multiple definitions for export name
U:\Projekte\vacuum\src\libs\vacuumu.def(1378) : warning LNK4024: __ZN5QListIP7QWidgetED1Ev : multiple definitions for export name
U:\Projekte\vacuum\src\libs\vacuumu.def(1379) : warning LNK4024: __ZN5QListIiED1Ev : multiple definitions for export name
U:\Projekte\vacuum\src\libs\vacuumu.def(1382) : warning LNK4024: __ZNK4QMapIiP7QWidgetE15mutableFindNodeEPPN8QMapData4NodeERKi : multiple definitions for export name
U:\Projekte\vacuum\src\libs\vacuumu.def(1385) : warning LNK4024: __ZNK4QMapIiP7QActionE15mutableFindNodeEPPN8QMapData4NodeERKi : multiple definitions for export name
U:\Projekte\vacuum\src\libs\vacuumu.def(1386) : warning LNK4024: __ZN5QListIP7QActionE13detach_helperEi : multiple definitions for export name
U:\Projekte\vacuum\src\libs\vacuumu.def(1390) : warning LNK4024: __ZN5QListIP7QActionE13detach_helperEv : multiple definitions for export name
U:\Projekte\vacuum\src\libs\vacuumu.def(1391) : warning LNK4024: __ZN5QListIP7QWidgetE18detach_helper_growEii : multiple definitions for export name
U:\Projekte\vacuum\src\libs\vacuumu.def(1392) : warning LNK4024: __ZN5QListIP7QWidgetE6appendERKS1_ : multiple definitions for export name
U:\Projekte\vacuum\src\libs\vacuumu.def(1393) : warning LNK4024: __ZNK4QMapIiP7QWidgetE6valuesERKi : multiple definitions for export name
U:\Projekte\vacuum\src\libs\vacuumu.def(1394) : warning LNK4024: __ZN5QListIP7QWidgetE13detach_helperEi : multiple definitions for export name
U:\Projekte\vacuum\src\libs\vacuumu.def(1395) : warning LNK4024: __ZN5QListIP7QWidgetE7reserveEi : multiple definitions for export name
U:\Projekte\vacuum\src\libs\vacuumu.def(1396) : warning LNK4024: __ZNK4QMapIiP7QWidgetE6valuesEv : multiple definitions for export name
U:\Projekte\vacuum\src\libs\vacuumu.def(1397) : warning LNK4024: __ZN5QListIP7QWidgetE13detach_helperEv : multiple definitions for export name
U:\Projekte\vacuum\src\libs\vacuumu.def(1398) : warning LNK4024: __ZN4QMapIiP7QWidgetE13detach_helperEv : multiple definitions for export name
U:\Projekte\vacuum\src\libs\vacuumu.def(1399) : warning LNK4024: __ZN4QMapIiP7QWidgetE5eraseENS2_8iteratorE : multiple definitions for export name
U:\Projekte\vacuum\src\libs\vacuumu.def(1404) : warning LNK4024: __ZN4QMapIiP7QActionE13detach_helperEv : multiple definitions for export name
U:\Projekte\vacuum\src\libs\vacuumu.def(1406) : warning LNK4024: __ZN5QListIiE13detach_helperEi : multiple definitions for export name
U:\Projekte\vacuum\src\libs\vacuumu.def(1407) : warning LNK4024: __ZN5QListIiE7reserveEi : multiple definitions for export name
U:\Projekte\vacuum\src\libs\vacuumu.def(1408) : warning LNK4024: __ZN5QListIiE18detach_helper_growEii : multiple definitions for export name
U:\Projekte\vacuum\src\libs\vacuumu.def(1409) : warning LNK4024: __ZN5QListIiE6appendERKi : multiple definitions for export name
U:\Projekte\vacuum\src\libs\vacuumu.def(1411) : warning LNK4024: __ZN5QListIiE13detach_helperEv : multiple definitions for export name
U:\Projekte\vacuum\src\libs\vacuumu.def(1416) : warning LNK4024: __ZTI7QAction : multiple definitions for export name
U:\Projekte\vacuum\src\libs\vacuumu.def(1417) : warning LNK4024: __ZTS7QAction : multiple definitions for export name
U:\Projekte\vacuum\src\libs\vacuumu.def(1418) : warning LNK4024: __ZTI7QObject : multiple definitions for export name
U:\Projekte\vacuum\src\libs\vacuumu.def(1421) : warning LNK4024: __ZTS7QObject : multiple definitions for export name
U:\Projekte\vacuum\src\libs\vacuumu.def(1444) : warning LNK4024: __ZN10QByteArrayD1Ev : multiple definitions for export name
U:\Projekte\vacuum\src\libs\vacuumu.def(1445) : warning LNK4024: __ZN7QStringD1Ev : multiple definitions for export name
U:\Projekte\vacuum\src\libs\vacuumu.def(1447) : warning LNK4024: __ZN5QListI7QStringED1Ev : multiple definitions for export name
U:\Projekte\vacuum\src\libs\vacuumu.def(1453) : warning LNK4024: __ZN5QListI7QStringE13detach_helperEi : multiple definitions for export name
U:\Projekte\vacuum\src\libs\vacuumu.def(1454) : warning LNK4024: __ZN5QListI7QStringE7reserveEi : multiple definitions for export name
U:\Projekte\vacuum\src\libs\vacuumu.def(1455) : warning LNK4024: __ZN5QListI7QStringE18detach_helper_growEii : multiple definitions for export name
U:\Projekte\vacuum\src\libs\vacuumu.def(1456) : warning LNK4024: __ZN5QListI7QStringE6appendERKS0_ : multiple definitions for export name
U:\Projekte\vacuum\src\libs\vacuumu.def(1479) : warning LNK4024: __ZN7QStringD1Ev : multiple definitions for export name
U:\Projekte\vacuum\src\libs\vacuumu.def(1480) : warning LNK4024: __ZN5QListI7QStringED2Ev : multiple definitions for export name
U:\Projekte\vacuum\src\libs\vacuumu.def(1481) : warning LNK4024: __ZN5QListI7QStringE13detach_helperEi : multiple definitions for export name
U:\Projekte\vacuum\src\libs\vacuumu.def(1484) : warning LNK4024: __ZN5QListI7QStringE13detach_helperEv : multiple definitions for export name
U:\Projekte\vacuum\src\libs\vacuumu.def(1507) : warning LNK4024: __ZTI7QObject : multiple definitions for export name
U:\Projekte\vacuum\src\libs\vacuumu.def(1510) : warning LNK4024: __ZTS7QObject : multiple definitions for export name
U:\Projekte\vacuum\src\libs\vacuumu.def(1592) : warning LNK4024: __ZN7QStringD1Ev : multiple definitions for export name
U:\Projekte\vacuum\src\libs\vacuumu.def(1596) : warning LNK4024: __ZN5QListI7QStringED1Ev : multiple definitions for export name
U:\Projekte\vacuum\src\libs\vacuumu.def(1608) : warning LNK4024: __ZN5QListI7QStringE13detach_helperEi : multiple definitions for export name
U:\Projekte\vacuum\src\libs\vacuumu.def(1609) : warning LNK4024: __ZN5QListI7QStringE13detach_helperEv : multiple definitions for export name
U:\Projekte\vacuum\src\libs\vacuumu.def(1610) : warning LNK4024: __ZN5QListI7QStringE7reserveEi : multiple definitions for export name
U:\Projekte\vacuum\src\libs\vacuumu.def(1611) : warning LNK4024: __ZN5QListI7QStringE18detach_helper_growEii : multiple definitions for export name
U:\Projekte\vacuum\src\libs\vacuumu.def(1612) : warning LNK4024: __ZN5QListI7QStringE6appendERKS0_ : multiple definitions for export name

IBM(R) Linker for OS/2(R), Version 5.0 
Copyright (C) IBM Corporation 1988, 2003.
Copyright (C) Microsoft Corp. 1988, 1989.
All rights reserved.

Current option settings:
	DLL	CODE:RX	DATA:RW
	Alignfile:0x00000010	ALIGNAddr:0x00010000	NOBASe
	NOBRowse	NODBgpack	NODEbug:none	DEFaultlibrarysearch
	NOEXEPACK	NOEXTdictionary	NOFIxed	NOFReeformat	NOIGnorecase
	NOLinenumbers	NOLOgo	MAP:..\libs\vacuumu.map	OCache:0x02000000
	NOOLDcpp	NOOPTFunc	PACKCode:0xffffffff
	PACKData:0xffffffff	PMTYPE:VIO	SEGMENTS:256 	SEGOrder
	NOSTRictwarnings	NONOSTRictwarnings
	STUB:U:\USR\BIN\os2stub.bin	NOVERBose	VERSION:00.00



 VACUUMU

 Start         Length     Name                   Class
 0001:00000000 000082430H TEXT32                 CODE 32-bit
	at offset 00000000 000A0H bytes from U:\usr\lib\dll0hi.obj ({standard input})
	at offset 000000A0 05000H bytes from U:\Projekte\vacuum\src\utils\jid.obj (jid.obj)
	at offset 000050A0 00FD0H bytes from U:\Projekte\vacuum\src\utils\versionparser.obj (versionparser.obj)
	at offset 00006070 0D4E0H bytes from U:\Projekte\vacuum\src\utils\xmpperror.obj (xmpperror.obj)
	at offset 00013550 015A0H bytes from U:\Projekte\vacuum\src\utils\stanza.obj (stanza.obj)
	at offset 00014AF0 00D80H bytes from U:\Projekte\vacuum\src\utils\action.obj (action.obj)
	at offset 00015870 02860H bytes from U:\Projekte\vacuum\src\utils\menu.obj (menu.obj)
	at offset 000180D0 012E0H bytes from U:\Projekte\vacuum\src\utils\unzipfile.obj (unzipfile.obj)
	at offset 000193B0 03470H bytes from U:\Projekte\vacuum\src\utils\message.obj (message.obj)
	at offset 0001C820 02890H bytes from U:\Projekte\vacuum\src\utils\iconsetdelegate.obj (iconsetdelegate.obj)
	at offset 0001F0B0 02C30H bytes from U:\Projekte\vacuum\src\utils\toolbarchanger.obj (toolbarchanger.obj)
	at offset 00021CE0 01520H bytes from U:\Projekte\vacuum\src\utils\datetime.obj (datetime.obj)
	at offset 00023200 064B0H bytes from U:\Projekte\vacuum\src\utils\filestorage.obj (filestorage.obj)
	at offset 000296B0 04460H bytes from U:\Projekte\vacuum\src\utils\iconstorage.obj (iconstorage.obj)
	at offset 0002DB10 00CA0H bytes from U:\Projekte\vacuum\src\utils\menubarchanger.obj (menubarchanger.obj)
	at offset 0002E7B0 01210H bytes from U:\Projekte\vacuum\src\utils\statusbarchanger.obj (statusbarchanger.obj)
	at offset 0002F9C0 010B0H bytes from U:\Projekte\vacuum\src\utils\ringbuffer.obj (ringbuffer.obj)
	at offset 00030A70 009E0H bytes from U:\Projekte\vacuum\src\utils\widgetmanager.obj (widgetmanager.obj)
	at offset 00031450 07790H bytes from U:\Projekte\vacuum\src\utils\options.obj (options.obj)
	at offset 00038BE0 04900H bytes from U:\Projekte\vacuum\src\utils\shortcuts.obj (shortcuts.obj)
	at offset 0003D4E0 001E0H bytes from U:\Projekte\vacuum\src\utils\systemmanager.obj (systemmanager.obj)
	at offset 0003D6C0 00CD0H bytes from U:\Projekte\vacuum\src\utils\textmanager.obj (textmanager.obj)
	at offset 0003E390 03AB0H bytes from U:\Projekte\vacuum\src\utils\animatedtextbrowser.obj (animatedtextbrowser.obj)
	at offset 00041E40 00600H bytes from U:\Projekte\vacuum\src\utils\closebutton.obj (closebutton.obj)
	at offset 00042440 00CF0H bytes from U:\Projekte\vacuum\src\utils\searchlineedit.obj (searchlineedit.obj)
	at offset 00043130 01000H bytes from U:\Projekte\vacuum\src\utils\imagemanager.obj (imagemanager.obj)
	at offset 00044130 095E0H bytes from U:\Projekte\vacuum\src\utils\advanceditemdelegate.obj (advanceditemdelegate.obj)
	at offset 0004D710 002A0H bytes from U:\Projekte\vacuum\src\utils\moc_action.obj (moc_action.obj)
	at offset 0004D9B0 00670H bytes from U:\Projekte\vacuum\src\utils\moc_menu.obj (moc_menu.obj)
	at offset 0004E020 00470H bytes from U:\Projekte\vacuum\src\utils\moc_toolbarchanger.obj (moc_toolbarchanger.obj)
	at offset 0004E490 00220H bytes from U:\Projekte\vacuum\src\utils\moc_filestorage.obj (moc_filestorage.obj)
	at offset 0004E6B0 002B0H bytes from U:\Projekte\vacuum\src\utils\moc_iconstorage.obj (moc_iconstorage.obj)
	at offset 0004E960 00400H bytes from U:\Projekte\vacuum\src\utils\moc_menubarchanger.obj (moc_menubarchanger.obj)
	at offset 0004ED60 00510H bytes from U:\Projekte\vacuum\src\utils\moc_statusbarchanger.obj (moc_statusbarchanger.obj)
	at offset 0004F270 00530H bytes from U:\Projekte\vacuum\src\utils\moc_options.obj (moc_options.obj)
	at offset 0004F7A0 00820H bytes from U:\Projekte\vacuum\src\utils\moc_shortcuts.obj (moc_shortcuts.obj)
	at offset 0004FFC0 002F0H bytes from U:\Projekte\vacuum\src\utils\moc_systemmanager.obj (moc_systemmanager.obj)
	at offset 000502B0 00C40H bytes from U:\Projekte\vacuum\src\utils\moc_animatedtextbrowser.obj (moc_animatedtextbrowser.obj)
	at offset 00050EF0 002C0H bytes from U:\Projekte\vacuum\src\utils\moc_closebutton.obj (moc_closebutton.obj)
	at offset 000511B0 004D0H bytes from U:\Projekte\vacuum\src\utils\moc_searchlineedit.obj (moc_searchlineedit.obj)
	at offset 00051680 002E0H bytes from U:\Projekte\vacuum\src\utils\moc_advanceditemdelegate.obj (moc_advanceditemdelegate.obj)
	at offset 00051960 01020H bytes from U:\Projekte\vacuum\src\libs\idn.lib (profiles.obj)
	at offset 00052980 00840H bytes from U:\Projekte\vacuum\src\libs\idn.lib (stringprep.obj)
	at offset 000531C0 159C0H bytes from U:\Projekte\vacuum\src\libs\idn.lib (nfkc.obj)
	at offset 00068B80 12520H bytes from U:\Projekte\vacuum\src\libs\idn.lib (rfc3454.obj)
	at offset 0007B0A0 02B20H bytes from U:\Projekte\vacuum\src\libs\minizip.lib (unzip.obj)
	at offset 0007DBC0 00430H bytes from U:\Projekte\vacuum\src\libs\minizip.lib (ioapi.obj)
	at offset 0007DFF0 011D0H bytes from U:\Projekte\vacuum\src\libs\qtxglo.lib (qxtglobalshortcut.obj)
	at offset 0007F1C0 00460H bytes from U:\Projekte\vacuum\src\libs\qtxglo.lib (moc_qxtglobalshortcut.obj)
	at offset 0007F620 00390H bytes from U:\Projekte\vacuum\src\libs\qtxglo.lib (qxtglobalshortcut_os2.obj)
	at offset 0007F9B0 004E0H bytes from U:\Projekte\vacuum\src\libs\idle.lib (idle.obj)
	at offset 0007FE90 00070H bytes from U:\Projekte\vacuum\src\libs\idle.lib (idle_os2.obj)
	at offset 0007FF00 00260H bytes from U:\Projekte\vacuum\src\libs\idle.lib (moc_idle.obj)
	at offset 00080160 00018H bytes from U:\usr\lib\libstdc++.lib (del_op.obj)
	at offset 00080180 00010H bytes from U:\usr\lib\libstdc++.lib (del_opv.obj)
	at offset 00080190 000F8H bytes from U:\usr\lib\libstdc++.lib (eh_catch.obj)
	at offset 00080290 00878H bytes from U:\usr\lib\libstdc++.lib (eh_personality.obj)
	at offset 00080B10 00068H bytes from U:\usr\lib\libstdc++.lib (eh_terminate.obj)
	at offset 00080B80 000E0H bytes from U:\usr\lib\libstdc++.lib (eh_throw.obj)
	at offset 00080C60 00028H bytes from U:\usr\lib\libstdc++.lib (guard.obj)
	at offset 00080C90 000A0H bytes from U:\usr\lib\libstdc++.lib (new_op.obj)
	at offset 00080D30 00058H bytes from U:\usr\lib\libstdc++.lib (new_opv.obj)
	at offset 00080D90 00F00H bytes from U:\usr\lib\libstdc++.lib (tinfo.obj)
	at offset 00081C90 002D0H bytes from U:\usr\lib\libstdc++.lib (eh_alloc.obj)
	at offset 00081F60 000F0H bytes from U:\usr\lib\libstdc++.lib (eh_exception.obj)
	at offset 00082050 001F0H bytes from U:\usr\lib\libstdc++.lib (eh_globals.obj)
	at offset 00082240 000B0H bytes from U:\usr\lib\libstdc++.lib (new_handler.obj)
	at offset 000822F0 00080H bytes from C:\var\temp\ldconv_libgcc_so_d_a_400351032737118a88.lib (emx-eh.obj)
	at offset 00082370 00038H bytes from U:\usr\lib\libc_dll.lib (D:\CODING\LIBC\0.6\src\emx\src\lib\startup\dllinit.c)
	at offset 000823B0 00080H bytes from C:\var\temp\ldconv_libgcc_so_d_a_400351032737118a88.lib (emx-ctordtor.obj)

 0001:00082430 000000000H ________TEXT           CODE 32-bit

 0002:00000000 00001AE08H DATA32                 DATA 32-bit
	at offset 00000000 00048H bytes from U:\usr\lib\dll0hi.obj ({standard input})
	at offset 00000050 01828H bytes from U:\Projekte\vacuum\src\utils\jid.obj (jid.obj)
	at offset 00001880 00270H bytes from U:\Projekte\vacuum\src\utils\versionparser.obj (versionparser.obj)
	at offset 00001AF0 02CB8H bytes from U:\Projekte\vacuum\src\utils\xmpperror.obj (xmpperror.obj)
	at offset 000047B0 00DC0H bytes from U:\Projekte\vacuum\src\utils\stanza.obj (stanza.obj)
	at offset 00005570 005C8H bytes from U:\Projekte\vacuum\src\utils\action.obj (action.obj)
	at offset 00005B40 01090H bytes from U:\Projekte\vacuum\src\utils\menu.obj (menu.obj)
	at offset 00006BD0 008B0H bytes from U:\Projekte\vacuum\src\utils\unzipfile.obj (unzipfile.obj)
	at offset 00007480 01558H bytes from U:\Projekte\vacuum\src\utils\message.obj (message.obj)
	at offset 000089E0 009E0H bytes from U:\Projekte\vacuum\src\utils\iconsetdelegate.obj (iconsetdelegate.obj)
	at offset 000093C0 01328H bytes from U:\Projekte\vacuum\src\utils\toolbarchanger.obj (toolbarchanger.obj)
	at offset 0000A6F0 008F0H bytes from U:\Projekte\vacuum\src\utils\datetime.obj (datetime.obj)
	at offset 0000AFE0 01E68H bytes from U:\Projekte\vacuum\src\utils\filestorage.obj (filestorage.obj)
	at offset 0000CE50 019C0H bytes from U:\Projekte\vacuum\src\utils\iconstorage.obj (iconstorage.obj)
	at offset 0000E810 00638H bytes from U:\Projekte\vacuum\src\utils\menubarchanger.obj (menubarchanger.obj)
	at offset 0000EE50 00800H bytes from U:\Projekte\vacuum\src\utils\statusbarchanger.obj (statusbarchanger.obj)
	at offset 0000F650 00728H bytes from U:\Projekte\vacuum\src\utils\ringbuffer.obj (ringbuffer.obj)
	at offset 0000FD80 00398H bytes from U:\Projekte\vacuum\src\utils\widgetmanager.obj (widgetmanager.obj)
	at offset 00010120 022F0H bytes from U:\Projekte\vacuum\src\utils\options.obj (options.obj)
	at offset 00012410 01F18H bytes from U:\Projekte\vacuum\src\utils\shortcuts.obj (shortcuts.obj)
	at offset 00014330 00148H bytes from U:\Projekte\vacuum\src\utils\systemmanager.obj (systemmanager.obj)
	at offset 00014480 00330H bytes from U:\Projekte\vacuum\src\utils\textmanager.obj (textmanager.obj)
	at offset 000147B0 011A8H bytes from U:\Projekte\vacuum\src\utils\animatedtextbrowser.obj (animatedtextbrowser.obj)
	at offset 00015960 002C8H bytes from U:\Projekte\vacuum\src\utils\closebutton.obj (closebutton.obj)
	at offset 00015C30 00478H bytes from U:\Projekte\vacuum\src\utils\searchlineedit.obj (searchlineedit.obj)
	at offset 000160B0 00570H bytes from U:\Projekte\vacuum\src\utils\imagemanager.obj (imagemanager.obj)
	at offset 00016620 021E8H bytes from U:\Projekte\vacuum\src\utils\advanceditemdelegate.obj (advanceditemdelegate.obj)
	at offset 00018810 000A0H bytes from U:\Projekte\vacuum\src\utils\moc_action.obj (moc_action.obj)
	at offset 000188B0 00150H bytes from U:\Projekte\vacuum\src\utils\moc_menu.obj (moc_menu.obj)
	at offset 00018A00 00100H bytes from U:\Projekte\vacuum\src\utils\moc_toolbarchanger.obj (moc_toolbarchanger.obj)
	at offset 00018B00 000A0H bytes from U:\Projekte\vacuum\src\utils\moc_filestorage.obj (moc_filestorage.obj)
	at offset 00018BA0 00068H bytes from U:\Projekte\vacuum\src\utils\moc_iconstorage.obj (moc_iconstorage.obj)
	at offset 00018C10 00100H bytes from U:\Projekte\vacuum\src\utils\moc_menubarchanger.obj (moc_menubarchanger.obj)
	at offset 00018D10 00100H bytes from U:\Projekte\vacuum\src\utils\moc_statusbarchanger.obj (moc_statusbarchanger.obj)
	at offset 00018E10 001C0H bytes from U:\Projekte\vacuum\src\utils\moc_options.obj (moc_options.obj)
	at offset 00018FD0 00210H bytes from U:\Projekte\vacuum\src\utils\moc_shortcuts.obj (moc_shortcuts.obj)
	at offset 000191E0 000E0H bytes from U:\Projekte\vacuum\src\utils\moc_systemmanager.obj (moc_systemmanager.obj)
	at offset 000192C0 003A0H bytes from U:\Projekte\vacuum\src\utils\moc_animatedtextbrowser.obj (moc_animatedtextbrowser.obj)
	at offset 00019660 00010H bytes from U:\Projekte\vacuum\src\utils\moc_closebutton.obj (moc_closebutton.obj)
	at offset 00019670 000D0H bytes from U:\Projekte\vacuum\src\utils\moc_searchlineedit.obj (moc_searchlineedit.obj)
	at offset 00019740 000A0H bytes from U:\Projekte\vacuum\src\utils\moc_advanceditemdelegate.obj (moc_advanceditemdelegate.obj)
	at offset 000197E0 006A0H bytes from U:\Projekte\vacuum\src\libs\qtxglo.lib (qxtglobalshortcut.obj)
	at offset 00019E80 00110H bytes from U:\Projekte\vacuum\src\libs\qtxglo.lib (moc_qxtglobalshortcut.obj)
	at offset 00019F90 00250H bytes from U:\Projekte\vacuum\src\libs\idle.lib (idle.obj)
	at offset 0001A1E0 00080H bytes from U:\Projekte\vacuum\src\libs\idle.lib (idle_os2.obj)
	at offset 0001A260 000A0H bytes from U:\Projekte\vacuum\src\libs\idle.lib (moc_idle.obj)
	at offset 0001A300 00088H bytes from U:\usr\lib\libstdc++.lib (eh_catch.obj)
	at offset 0001A390 00278H bytes from U:\usr\lib\libstdc++.lib (eh_personality.obj)
	at offset 0001A610 000B8H bytes from U:\usr\lib\libstdc++.lib (eh_terminate.obj)
	at offset 0001A6D0 000C0H bytes from U:\usr\lib\libstdc++.lib (eh_throw.obj)
	at offset 0001A790 00088H bytes from U:\usr\lib\libstdc++.lib (new_op.obj)
	at offset 0001A820 00068H bytes from U:\usr\lib\libstdc++.lib (new_opv.obj)
	at offset 0001A890 00238H bytes from U:\usr\lib\libstdc++.lib (tinfo.obj)
	at offset 0001AAD0 00130H bytes from U:\usr\lib\libstdc++.lib (eh_alloc.obj)
	at offset 0001AC00 00168H bytes from U:\usr\lib\libstdc++.lib (eh_globals.obj)
	at offset 0001AD70 00048H bytes from C:\var\temp\ldconv_libgcc_so_d_a_400351032737118a88.lib (emx-eh.obj)
	at offset 0001ADC0 00048H bytes from C:\var\temp\ldconv_libgcc_so_d_a_400351032737118a88.lib (emx-ctordtor.obj)

 0002:0001AE08 000000004H SET1__os2dll           DATA 32-bit
	at offset 00000000 00004H bytes from U:\usr\lib\dll0hi.obj ({standard input})

 0002:0001AE0C 000000000H SET2__os2dll           DATA 32-bit

 0002:0001AE0C 000000004H SET3__os2dll           DATA 32-bit
	at offset 00000000 00004H bytes from U:\usr\lib\dll0hi.obj ({standard input})

 0002:0001AE10 000000004H SET1___CTOR_LIST__     DATA 32-bit
	at offset 00000000 00004H bytes from U:\usr\lib\dll0hi.obj ({standard input})

 0002:0001AE14 000000060H SET2___CTOR_LIST__     DATA 32-bit
	at offset 00000000 00004H bytes from U:\Projekte\vacuum\src\utils\jid.obj (jid.obj)
	at offset 00000004 00004H bytes from U:\Projekte\vacuum\src\utils\xmpperror.obj (xmpperror.obj)
	at offset 00000008 00004H bytes from U:\Projekte\vacuum\src\utils\filestorage.obj (filestorage.obj)
	at offset 0000000C 00004H bytes from U:\Projekte\vacuum\src\utils\iconstorage.obj (iconstorage.obj)
	at offset 00000010 00004H bytes from U:\Projekte\vacuum\src\utils\options.obj (options.obj)
	at offset 00000014 00004H bytes from U:\Projekte\vacuum\src\utils\shortcuts.obj (shortcuts.obj)
	at offset 00000018 00004H bytes from U:\Projekte\vacuum\src\utils\systemmanager.obj (systemmanager.obj)
	at offset 0000001C 00004H bytes from U:\Projekte\vacuum\src\utils\advanceditemdelegate.obj (advanceditemdelegate.obj)
	at offset 00000020 00004H bytes from U:\Projekte\vacuum\src\utils\moc_action.obj (moc_action.obj)
	at offset 00000024 00004H bytes from U:\Projekte\vacuum\src\utils\moc_menu.obj (moc_menu.obj)
	at offset 00000028 00004H bytes from U:\Projekte\vacuum\src\utils\moc_toolbarchanger.obj (moc_toolbarchanger.obj)
	at offset 0000002C 00004H bytes from U:\Projekte\vacuum\src\utils\moc_filestorage.obj (moc_filestorage.obj)
	at offset 00000030 00004H bytes from U:\Projekte\vacuum\src\utils\moc_menubarchanger.obj (moc_menubarchanger.obj)
	at offset 00000034 00004H bytes from U:\Projekte\vacuum\src\utils\moc_statusbarchanger.obj (moc_statusbarchanger.obj)
	at offset 00000038 00004H bytes from U:\Projekte\vacuum\src\utils\moc_options.obj (moc_options.obj)
	at offset 0000003C 00004H bytes from U:\Projekte\vacuum\src\utils\moc_shortcuts.obj (moc_shortcuts.obj)
	at offset 00000040 00004H bytes from U:\Projekte\vacuum\src\utils\moc_systemmanager.obj (moc_systemmanager.obj)
	at offset 00000044 00004H bytes from U:\Projekte\vacuum\src\utils\moc_animatedtextbrowser.obj (moc_animatedtextbrowser.obj)
	at offset 00000048 00004H bytes from U:\Projekte\vacuum\src\utils\moc_closebutton.obj (moc_closebutton.obj)
	at offset 0000004C 00004H bytes from U:\Projekte\vacuum\src\utils\moc_searchlineedit.obj (moc_searchlineedit.obj)
	at offset 00000050 00004H bytes from U:\Projekte\vacuum\src\utils\moc_advanceditemdelegate.obj (moc_advanceditemdelegate.obj)
	at offset 00000054 00004H bytes from U:\Projekte\vacuum\src\libs\qtxglo.lib (qxtglobalshortcut.obj)
	at offset 00000058 00004H bytes from U:\Projekte\vacuum\src\libs\qtxglo.lib (moc_qxtglobalshortcut.obj)
	at offset 0000005C 00004H bytes from U:\Projekte\vacuum\src\libs\idle.lib (moc_idle.obj)

 0002:0001AE74 000000004H SET3___CTOR_LIST__     DATA 32-bit
	at offset 00000000 00004H bytes from U:\usr\lib\dll0hi.obj ({standard input})

 0002:0001AE78 000000004H SET1___DTOR_LIST__     DATA 32-bit
	at offset 00000000 00004H bytes from U:\usr\lib\dll0hi.obj ({standard input})

 0002:0001AE7C 000000018H SET2___DTOR_LIST__     DATA 32-bit
	at offset 00000000 00004H bytes from U:\Projekte\vacuum\src\utils\jid.obj (jid.obj)
	at offset 00000004 00004H bytes from U:\Projekte\vacuum\src\utils\xmpperror.obj (xmpperror.obj)
	at offset 00000008 00004H bytes from U:\Projekte\vacuum\src\utils\filestorage.obj (filestorage.obj)
	at offset 0000000C 00004H bytes from U:\Projekte\vacuum\src\utils\iconstorage.obj (iconstorage.obj)
	at offset 00000010 00004H bytes from U:\Projekte\vacuum\src\utils\options.obj (options.obj)
	at offset 00000014 00004H bytes from U:\Projekte\vacuum\src\libs\qtxglo.lib (qxtglobalshortcut.obj)

 0002:0001AE94 000000004H SET3___DTOR_LIST__     DATA 32-bit
	at offset 00000000 00004H bytes from U:\usr\lib\dll0hi.obj ({standard input})

 0002:0001AE98 000000004H SET1___crtinit1__      DATA 32-bit
	at offset 00000000 00004H bytes from U:\usr\lib\dll0hi.obj ({standard input})

 0002:0001AE9C 000000000H SET2___crtinit1__      DATA 32-bit

 0002:0001AE9C 000000004H SET3___crtinit1__      DATA 32-bit
	at offset 00000000 00004H bytes from U:\usr\lib\dll0hi.obj ({standard input})

 0002:0001AEA0 000000004H SET1___crtexit1__      DATA 32-bit
	at offset 00000000 00004H bytes from U:\usr\lib\dll0hi.obj ({standard input})

 0002:0001AEA4 000000000H SET2___crtexit1__      DATA 32-bit

 0002:0001AEA4 000000004H SET3___crtexit1__      DATA 32-bit
	at offset 00000000 00004H bytes from U:\usr\lib\dll0hi.obj ({standard input})

 0002:0001AEA8 000000004H SET1___eh_frame__      DATA 32-bit
	at offset 00000000 00004H bytes from U:\usr\lib\dll0hi.obj ({standard input})

 0002:0001AEAC 0000000DCH SET2___eh_frame__      DATA 32-bit
	at offset 00000000 00004H bytes from U:\Projekte\vacuum\src\utils\jid.obj (jid.obj)
	at offset 00000004 00004H bytes from U:\Projekte\vacuum\src\utils\versionparser.obj (versionparser.obj)
	at offset 00000008 00004H bytes from U:\Projekte\vacuum\src\utils\xmpperror.obj (xmpperror.obj)
	at offset 0000000C 00004H bytes from U:\Projekte\vacuum\src\utils\stanza.obj (stanza.obj)
	at offset 00000010 00004H bytes from U:\Projekte\vacuum\src\utils\action.obj (action.obj)
	at offset 00000014 00004H bytes from U:\Projekte\vacuum\src\utils\menu.obj (menu.obj)
	at offset 00000018 00004H bytes from U:\Projekte\vacuum\src\utils\unzipfile.obj (unzipfile.obj)
	at offset 0000001C 00004H bytes from U:\Projekte\vacuum\src\utils\message.obj (message.obj)
	at offset 00000020 00004H bytes from U:\Projekte\vacuum\src\utils\iconsetdelegate.obj (iconsetdelegate.obj)
	at offset 00000024 00004H bytes from U:\Projekte\vacuum\src\utils\toolbarchanger.obj (toolbarchanger.obj)
	at offset 00000028 00004H bytes from U:\Projekte\vacuum\src\utils\datetime.obj (datetime.obj)
	at offset 0000002C 00004H bytes from U:\Projekte\vacuum\src\utils\filestorage.obj (filestorage.obj)
	at offset 00000030 00004H bytes from U:\Projekte\vacuum\src\utils\iconstorage.obj (iconstorage.obj)
	at offset 00000034 00004H bytes from U:\Projekte\vacuum\src\utils\menubarchanger.obj (menubarchanger.obj)
	at offset 00000038 00004H bytes from U:\Projekte\vacuum\src\utils\statusbarchanger.obj (statusbarchanger.obj)
	at offset 0000003C 00004H bytes from U:\Projekte\vacuum\src\utils\ringbuffer.obj (ringbuffer.obj)
	at offset 00000040 00004H bytes from U:\Projekte\vacuum\src\utils\widgetmanager.obj (widgetmanager.obj)
	at offset 00000044 00004H bytes from U:\Projekte\vacuum\src\utils\options.obj (options.obj)
	at offset 00000048 00004H bytes from U:\Projekte\vacuum\src\utils\shortcuts.obj (shortcuts.obj)
	at offset 0000004C 00004H bytes from U:\Projekte\vacuum\src\utils\systemmanager.obj (systemmanager.obj)
	at offset 00000050 00004H bytes from U:\Projekte\vacuum\src\utils\textmanager.obj (textmanager.obj)
	at offset 00000054 00004H bytes from U:\Projekte\vacuum\src\utils\animatedtextbrowser.obj (animatedtextbrowser.obj)
	at offset 00000058 00004H bytes from U:\Projekte\vacuum\src\utils\closebutton.obj (closebutton.obj)
	at offset 0000005C 00004H bytes from U:\Projekte\vacuum\src\utils\searchlineedit.obj (searchlineedit.obj)
	at offset 00000060 00004H bytes from U:\Projekte\vacuum\src\utils\imagemanager.obj (imagemanager.obj)
	at offset 00000064 00004H bytes from U:\Projekte\vacuum\src\utils\advanceditemdelegate.obj (advanceditemdelegate.obj)
	at offset 00000068 00004H bytes from U:\Projekte\vacuum\src\utils\moc_action.obj (moc_action.obj)
	at offset 0000006C 00004H bytes from U:\Projekte\vacuum\src\utils\moc_menu.obj (moc_menu.obj)
	at offset 00000070 00004H bytes from U:\Projekte\vacuum\src\utils\moc_toolbarchanger.obj (moc_toolbarchanger.obj)
	at offset 00000074 00004H bytes from U:\Projekte\vacuum\src\utils\moc_filestorage.obj (moc_filestorage.obj)
	at offset 00000078 00004H bytes from U:\Projekte\vacuum\src\utils\moc_iconstorage.obj (moc_iconstorage.obj)
	at offset 0000007C 00004H bytes from U:\Projekte\vacuum\src\utils\moc_menubarchanger.obj (moc_menubarchanger.obj)
	at offset 00000080 00004H bytes from U:\Projekte\vacuum\src\utils\moc_statusbarchanger.obj (moc_statusbarchanger.obj)
	at offset 00000084 00004H bytes from U:\Projekte\vacuum\src\utils\moc_options.obj (moc_options.obj)
	at offset 00000088 00004H bytes from U:\Projekte\vacuum\src\utils\moc_shortcuts.obj (moc_shortcuts.obj)
	at offset 0000008C 00004H bytes from U:\Projekte\vacuum\src\utils\moc_systemmanager.obj (moc_systemmanager.obj)
	at offset 00000090 00004H bytes from U:\Projekte\vacuum\src\utils\moc_animatedtextbrowser.obj (moc_animatedtextbrowser.obj)
	at offset 00000094 00004H bytes from U:\Projekte\vacuum\src\utils\moc_searchlineedit.obj (moc_searchlineedit.obj)
	at offset 00000098 00004H bytes from U:\Projekte\vacuum\src\utils\moc_advanceditemdelegate.obj (moc_advanceditemdelegate.obj)
	at offset 0000009C 00004H bytes from U:\Projekte\vacuum\src\libs\qtxglo.lib (qxtglobalshortcut.obj)
	at offset 000000A0 00004H bytes from U:\Projekte\vacuum\src\libs\qtxglo.lib (moc_qxtglobalshortcut.obj)
	at offset 000000A4 00004H bytes from U:\Projekte\vacuum\src\libs\idle.lib (idle.obj)
	at offset 000000A8 00004H bytes from U:\Projekte\vacuum\src\libs\idle.lib (idle_os2.obj)
	at offset 000000AC 00004H bytes from U:\Projekte\vacuum\src\libs\idle.lib (moc_idle.obj)
	at offset 000000B0 00004H bytes from U:\usr\lib\libstdc++.lib (eh_catch.obj)
	at offset 000000B4 00004H bytes from U:\usr\lib\libstdc++.lib (eh_personality.obj)
	at offset 000000B8 00004H bytes from U:\usr\lib\libstdc++.lib (eh_terminate.obj)
	at offset 000000BC 00004H bytes from U:\usr\lib\libstdc++.lib (eh_throw.obj)
	at offset 000000C0 00004H bytes from U:\usr\lib\libstdc++.lib (new_op.obj)
	at offset 000000C4 00004H bytes from U:\usr\lib\libstdc++.lib (new_opv.obj)
	at offset 000000C8 00004H bytes from U:\usr\lib\libstdc++.lib (tinfo.obj)
	at offset 000000CC 00004H bytes from U:\usr\lib\libstdc++.lib (eh_alloc.obj)
	at offset 000000D0 00004H bytes from U:\usr\lib\libstdc++.lib (eh_globals.obj)
	at offset 000000D4 00004H bytes from C:\var\temp\ldconv_libgcc_so_d_a_400351032737118a88.lib (emx-eh.obj)
	at offset 000000D8 00004H bytes from C:\var\temp\ldconv_libgcc_so_d_a_400351032737118a88.lib (emx-ctordtor.obj)

 0002:0001AF88 000000004H SET3___eh_frame__      DATA 32-bit
	at offset 00000000 00004H bytes from U:\usr\lib\dll0hi.obj ({standard input})

 0002:0001AF8C 000000004H SET1___eh_init__       DATA 32-bit
	at offset 00000000 00004H bytes from U:\usr\lib\dll0hi.obj ({standard input})

 0002:0001AF90 000000004H SET2___eh_init__       DATA 32-bit
	at offset 00000000 00004H bytes from C:\var\temp\ldconv_libgcc_so_d_a_400351032737118a88.lib (emx-eh.obj)

 0002:0001AF94 000000004H SET3___eh_init__       DATA 32-bit
	at offset 00000000 00004H bytes from U:\usr\lib\dll0hi.obj ({standard input})

 0002:0001AF98 000000004H SET1___eh_term__       DATA 32-bit
	at offset 00000000 00004H bytes from U:\usr\lib\dll0hi.obj ({standard input})

 0002:0001AF9C 000000004H SET2___eh_term__       DATA 32-bit
	at offset 00000000 00004H bytes from C:\var\temp\ldconv_libgcc_so_d_a_400351032737118a88.lib (emx-eh.obj)

 0002:0001AFA0 000000004H SET3___eh_term__       DATA 32-bit
	at offset 00000000 00004H bytes from U:\usr\lib\dll0hi.obj ({standard input})

 0002:0001AFA4 000000004H SET1___fork_parent1__  DATA 32-bit
	at offset 00000000 00004H bytes from U:\usr\lib\dll0hi.obj ({standard input})

 0002:0001AFA8 000000000H SET2___fork_parent1__  DATA 32-bit

 0002:0001AFA8 000000004H SET3___fork_parent1__  DATA 32-bit
	at offset 00000000 00004H bytes from U:\usr\lib\dll0hi.obj ({standard input})

 0002:0001AFAC 000000004H SET1___fork_child1__   DATA 32-bit
	at offset 00000000 00004H bytes from U:\usr\lib\dll0hi.obj ({standard input})

 0002:0001AFB0 000000000H SET2___fork_child1__   DATA 32-bit

 0002:0001AFB0 000000004H SET3___fork_child1__   DATA 32-bit
	at offset 00000000 00004H bytes from U:\usr\lib\dll0hi.obj ({standard input})

 0002:0001AFC0 000000000H ________DATA           DATA 32-bit

 0002:0001AFC0 000004360H BSS32                  BSS 32-bit
	at offset 00000000 00048H bytes from U:\Projekte\vacuum\src\utils\jid.obj (jid.obj)
	at offset 00000050 00040H bytes from U:\Projekte\vacuum\src\utils\xmpperror.obj (xmpperror.obj)
	at offset 00000090 00020H bytes from U:\Projekte\vacuum\src\utils\filestorage.obj (filestorage.obj)
	at offset 000000B0 00030H bytes from U:\Projekte\vacuum\src\utils\iconstorage.obj (iconstorage.obj)
	at offset 000000E0 00010H bytes from U:\Projekte\vacuum\src\utils\widgetmanager.obj (widgetmanager.obj)
	at offset 000000F0 00018H bytes from U:\Projekte\vacuum\src\utils\options.obj (options.obj)
	at offset 00000110 00038H bytes from U:\Projekte\vacuum\src\utils\shortcuts.obj (shortcuts.obj)
	at offset 00000150 00018H bytes from U:\Projekte\vacuum\src\utils\systemmanager.obj (systemmanager.obj)
	at offset 00000170 00020H bytes from U:\Projekte\vacuum\src\utils\animatedtextbrowser.obj (animatedtextbrowser.obj)
	at offset 00000190 00108H bytes from U:\Projekte\vacuum\src\utils\advanceditemdelegate.obj (advanceditemdelegate.obj)
	at offset 000002A0 00010H bytes from U:\Projekte\vacuum\src\libs\qtxglo.lib (qxtglobalshortcut.obj)
	at offset 000002B0 00020H bytes from U:\Projekte\vacuum\src\libs\idle.lib (idle.obj)
	at offset 000002D0 04030H bytes from U:\usr\lib\libstdc++.lib (eh_alloc.obj)
	at offset 00004300 00030H bytes from U:\usr\lib\libstdc++.lib (eh_globals.obj)
	at offset 00004330 00008H bytes from U:\usr\lib\libstdc++.lib (new_handler.obj)
	at offset 00004340 00010H bytes from C:\var\temp\ldconv_libgcc_so_d_a_400351032737118a88.lib (emx-eh.obj)
	at offset 00004350 00010H bytes from C:\var\temp\ldconv_libgcc_so_d_a_400351032737118a88.lib (emx-ctordtor.obj)

 0002:0001F320 000000000H c_common               BSS 32-bit

 0002:0001F320 000000000H ________BSS            BSS 32-bit


 Origin   Group
 0000:0   FLAT
 0001:0   CGROUP
 0002:0   DGROUP

 Address       Export                  Alias

 0002:0001AFC4              _EscChars  _EscChars
 0002:0001AFC8            _EscStrings  _EscStrings
 0002:0001AFC0              _JidCache  _JidCache
 0000:FFFFFFFF __Z10qDeleteAllIN5QHashI7QStringP11IconStorageE14const_iteratorEEvT_S6_  __Z10qDeleteAllIN5QHashI7QStringP11IconStorageE14const_iteratorEEvT_S6_
 0000:FFFFFFFF __Z10qDeleteAllIN5QHashI7QStringPN13UnzipFileData10ZippedFileEE14const_iteratorEEvT_S7_  __Z10qDeleteAllIN5QHashI7QStringPN13UnzipFileData10ZippedFileEE14const_iteratorEEvT_S7_
 0001:00031C50 __Z12fullFileNameRK7QStringS1_  __Z12fullFileNameRK7QStringS1_
 0001:00031A60 __Z13findChildTextRK11QDomElement  __Z13findChildTextRK11QDomElement
 0001:00000310 __Z13stringPreparePK16Stringprep_tableRK7QString  __Z13stringPreparePK16Stringprep_tableRK7QString
 0001:000321A0 __Z14xtea2_decipherjPjPKj  __Z14xtea2_decipherjPjPKj
 0001:000320B0 __Z14xtea2_encipherjPjPKj  __Z14xtea2_encipherjPjPKj
 0001:00031B30 __Z15fullOptionsPathRK7QStringS1_  __Z15fullOptionsPathRK7QStringS1_
 0001:00035CB0 __Z15stringToVariantRK7QStringN8QVariant4TypeE  __Z15stringToVariantRK7QStringN8QVariant4TypeE
 0001:00034490 __Z15variantToStringRK8QVariant  __Z15variantToStringRK8QVariant
 0001:00036DC0 __Z16exportOptionNodeRK11OptionsNodeR11QDomElement  __Z16exportOptionNodeRK11OptionsNodeR11QDomElement
 0001:000315D0 __Z16findChildElementRK11QDomElementRK7QStringS4_RS2_S5_S5_  __Z16findChildElementRK11QDomElementRK7QStringS4_RS2_S5_S5_
 0001:00037F70 __Z16importOptionNodeR11OptionsNodeRK11QDomElement  __Z16importOptionNodeR11OptionsNodeRK11QDomElement
 0001:00044540 __Z17getSingleLineTextRK7QString  __Z17getSingleLineTextRK7QString
 0000:FFFFFFFF __Z17qRegisterMetaTypeI20AdvancedDelegateItemEiPKcPT_  __Z17qRegisterMetaTypeI20AdvancedDelegateItemEiPKcPT_
 0000:FFFFFFFF __Z17qRegisterMetaTypeI3JidEiPKcPT_  __Z17qRegisterMetaTypeI3JidEiPKcPT_
 0000:FFFFFFFF __Z17qRegisterMetaTypeI4QMapIj20AdvancedDelegateItemEEiPKcPT_  __Z17qRegisterMetaTypeI4QMapIj20AdvancedDelegateItemEEiPKcPT_
 0001:00038FB0 __Z18correctKeySequenceRK12QKeySequence  __Z18correctKeySequenceRK12QKeySequence
 0000:FFFFFFFF __Z19qMetaTypeLoadHelperI20AdvancedDelegateItemEvR11QDataStreamPT_  __Z19qMetaTypeLoadHelperI20AdvancedDelegateItemEvR11QDataStreamPT_
 0000:FFFFFFFF __Z19qMetaTypeLoadHelperI3JidEvR11QDataStreamPT_  __Z19qMetaTypeLoadHelperI3JidEvR11QDataStreamPT_
 0000:FFFFFFFF __Z19qMetaTypeLoadHelperI4QMapIj20AdvancedDelegateItemEEvR11QDataStreamPT_  __Z19qMetaTypeLoadHelperI4QMapIj20AdvancedDelegateItemEEvR11QDataStreamPT_
 0000:FFFFFFFF __Z19qMetaTypeSaveHelperI20AdvancedDelegateItemEvR11QDataStreamPKT_  __Z19qMetaTypeSaveHelperI20AdvancedDelegateItemEvR11QDataStreamPKT_
 0000:FFFFFFFF __Z19qMetaTypeSaveHelperI3JidEvR11QDataStreamPKT_  __Z19qMetaTypeSaveHelperI3JidEvR11QDataStreamPKT_
 0000:FFFFFFFF __Z19qMetaTypeSaveHelperI4QMapIj20AdvancedDelegateItemEEvR11QDataStreamPKT_  __Z19qMetaTypeSaveHelperI4QMapIj20AdvancedDelegateItemEEvR11QDataStreamPKT_
 0000:FFFFFFFF __Z21qMetaTypeDeleteHelperI20AdvancedDelegateItemEvPT_  __Z21qMetaTypeDeleteHelperI20AdvancedDelegateItemEvPT_
 0000:FFFFFFFF __Z21qMetaTypeDeleteHelperI3JidEvPT_  __Z21qMetaTypeDeleteHelperI3JidEvPT_
 0000:FFFFFFFF __Z21qMetaTypeDeleteHelperI4QMapIj20AdvancedDelegateItemEEvPT_  __Z21qMetaTypeDeleteHelperI4QMapIj20AdvancedDelegateItemEEvPT_
 0001:000444D0 __Z22destroyLayoutRecursiveP7QLayout  __Z22destroyLayoutRecursiveP7QLayout
 0000:FFFFFFFF __Z24qMetaTypeConstructHelperI20AdvancedDelegateItemEPvPKT_  __Z24qMetaTypeConstructHelperI20AdvancedDelegateItemEPvPKT_
 0000:FFFFFFFF __Z24qMetaTypeConstructHelperI3JidEPvPKT_  __Z24qMetaTypeConstructHelperI3JidEPvPKT_
 0000:FFFFFFFF __Z24qMetaTypeConstructHelperI4QMapIj20AdvancedDelegateItemEEPvPKT_  __Z24qMetaTypeConstructHelperI4QMapIj20AdvancedDelegateItemEEPvPKT_
 0001:000011F0 __Z26registerJidStreamOperatorsv  __Z26registerJidStreamOperatorsv
 0001:000475F0 __Z43registerAdvancedDelegateItemStreamOperatorsv  __Z43registerAdvancedDelegateItemStreamOperatorsv
 0001:000010A0        __Z5qHashRK3Jid  __Z5qHashRK3Jid
 0000:FFFFFFFF __ZlsIi8QVariantER11QDataStreamS2_RK4QMapIT_T0_E  __ZlsIi8QVariantER11QDataStreamS2_RK4QMapIT_T0_E
 0000:FFFFFFFF __ZlsIj20AdvancedDelegateItemER11QDataStreamS2_RK4QMapIT_T0_E  __ZlsIj20AdvancedDelegateItemER11QDataStreamS2_RK4QMapIT_T0_E
 0001:00047820 __ZlsR11QDataStreamRK20AdvancedDelegateItem  __ZlsR11QDataStreamRK20AdvancedDelegateItem
 0001:00001100 __ZlsR11QDataStreamRK3Jid  __ZlsR11QDataStreamRK3Jid
 0000:00000000   __ZN10QByteArrayD1Ev  __ZN10QByteArrayD1Ev
 0001:00030000 __ZN10RingBuffer4chopEi  __ZN10RingBuffer4chopEi
 0001:00030690 __ZN10RingBuffer4freeEi  __ZN10RingBuffer4freeEi
 0001:00030890 __ZN10RingBuffer4readEi  __ZN10RingBuffer4readEi
 0001:000307F0 __ZN10RingBuffer4readEPci  __ZN10RingBuffer4readEPci
 0001:00030930 __ZN10RingBuffer4skipEi  __ZN10RingBuffer4skipEi
 0001:000301B0 __ZN10RingBuffer5clearEv  __ZN10RingBuffer5clearEv
 0001:00030660 __ZN10RingBuffer5writeE10QByteArray  __ZN10RingBuffer5writeE10QByteArray
 0001:00030600 __ZN10RingBuffer5writeEPKci  __ZN10RingBuffer5writeEPKci
 0001:00030360 __ZN10RingBuffer7reserveEi  __ZN10RingBuffer7reserveEi
 0001:00030960 __ZN10RingBuffer8readLineEPci  __ZN10RingBuffer8readLineEPci
 0001:00030110 __ZN10RingBuffer8truncateEi  __ZN10RingBuffer8truncateEi
 0001:000302C0  __ZN10RingBufferC1Eii  __ZN10RingBufferC1Eii
 0001:000302C0  __ZN10RingBufferC2Eii  __ZN10RingBufferC2Eii
 0001:00013610 __ZN10StanzaDataC1ERK11QDomElement  __ZN10StanzaDataC1ERK11QDomElement
 0001:00013580 __ZN10StanzaDataC1ERK7QString  __ZN10StanzaDataC1ERK7QString
 0001:000136B0 __ZN10StanzaDataC1ERKS_  __ZN10StanzaDataC1ERKS_
 0001:00013610 __ZN10StanzaDataC2ERK11QDomElement  __ZN10StanzaDataC2ERK11QDomElement
 0001:00013580 __ZN10StanzaDataC2ERK7QString  __ZN10StanzaDataC2ERK7QString
 0001:000136B0 __ZN10StanzaDataC2ERKS_  __ZN10StanzaDataC2ERKS_
 0001:00042070 __ZN11CloseButton10enterEventEP6QEvent  __ZN11CloseButton10enterEventEP6QEvent
 0001:000420B0 __ZN11CloseButton10leaveEventEP6QEvent  __ZN11CloseButton10leaveEventEP6QEvent
 0001:000420F0 __ZN11CloseButton10paintEventEP11QPaintEvent  __ZN11CloseButton10paintEventEP11QPaintEvent
 0001:00050F10 __ZN11CloseButton11qt_metacallEN11QMetaObject4CallEiPPv  __ZN11CloseButton11qt_metacallEN11QMetaObject4CallEiPPv
 0001:00050F20 __ZN11CloseButton11qt_metacastEPKc  __ZN11CloseButton11qt_metacastEPKc
 0002:00019660 __ZN11CloseButton16staticMetaObjectE  __ZN11CloseButton16staticMetaObjectE
 0001:00041FC0 __ZN11CloseButtonC1EP7QWidget  __ZN11CloseButtonC1EP7QWidget
 0001:00041FC0 __ZN11CloseButtonC2EP7QWidget  __ZN11CloseButtonC2EP7QWidget
 0001:00041E70  __ZN11CloseButtonD0Ev  __ZN11CloseButtonD0Ev
 0001:00041E40  __ZN11CloseButtonD1Ev  __ZN11CloseButtonD1Ev
 0001:00041E40  __ZN11CloseButtonD2Ev  __ZN11CloseButtonD2Ev
 0002:0001B058 __ZN11FileStorage10FInstancesE  __ZN11FileStorage10FInstancesE
 0002:0001B050 __ZN11FileStorage10FMimeTypesE  __ZN11FileStorage10FMimeTypesE
 0002:0001B068 __ZN11FileStorage11FObjectTagsE  __ZN11FileStorage11FObjectTagsE
 0001:0004E550 __ZN11FileStorage11qt_metacallEN11QMetaObject4CallEiPPv  __ZN11FileStorage11qt_metacallEN11QMetaObject4CallEiPPv
 0001:0004E4B0 __ZN11FileStorage11qt_metacastEPKc  __ZN11FileStorage11qt_metacastEPKc
 0001:00024B80 __ZN11FileStorage13availStoragesEv  __ZN11FileStorage13availStoragesEv
 0002:0001B054 __ZN11FileStorage13FResourceDirsE  __ZN11FileStorage13FResourceDirsE
 0001:00024380 __ZN11FileStorage13resourcesDirsEv  __ZN11FileStorage13resourcesDirsEv
 0001:00028340 __ZN11FileStorage13setSubStorageERK7QString  __ZN11FileStorage13setSubStorageERK7QString
 0001:00028530 __ZN11FileStorage13staticStorageERK7QString  __ZN11FileStorage13staticStorageERK7QString
 0000:FFFFFFFF __ZN11FileStorage13StorageObjectD1Ev  __ZN11FileStorage13StorageObjectD1Ev
 0001:0004E520 __ZN11FileStorage14storageChangedEv  __ZN11FileStorage14storageChangedEv
 0001:00024920 __ZN11FileStorage14subStorageDirsERK7QStringS2_  __ZN11FileStorage14subStorageDirsERK7QStringS2_
 0002:0001B05C __ZN11FileStorage15FStaticStoragesE  __ZN11FileStorage15FStaticStoragesE
 0001:00026510 __ZN11FileStorage15loadDefinitionsERK7QStringi  __ZN11FileStorage15loadDefinitionsERK7QStringi
 0001:000243D0 __ZN11FileStorage16availSubStoragesERK7QStringb  __ZN11FileStorage16availSubStoragesERK7QStringb
 0001:00028840 __ZN11FileStorage16setResourcesDirsERK5QListI7QStringE  __ZN11FileStorage16setResourcesDirsERK5QListI7QStringE
 0002:00018B00 __ZN11FileStorage16staticMetaObjectE  __ZN11FileStorage16staticMetaObjectE
 0001:00027C50 __ZN11FileStorage17updateDefinitionsEv  __ZN11FileStorage17updateDefinitionsEv
 0002:0001B060 __ZN11FileStorage8FKeyTagsE  __ZN11FileStorage8FKeyTagsE
 0002:0001B064 __ZN11FileStorage9FFileTagsE  __ZN11FileStorage9FFileTagsE
 0001:000283F0 __ZN11FileStorageC1ERK7QStringS2_P7QObject  __ZN11FileStorageC1ERK7QStringS2_P7QObject
 0001:000283F0 __ZN11FileStorageC2ERK7QStringS2_P7QObject  __ZN11FileStorageC2ERK7QStringS2_P7QObject
 0001:00025610  __ZN11FileStorageD0Ev  __ZN11FileStorageD0Ev
 0001:00025470  __ZN11FileStorageD1Ev  __ZN11FileStorageD1Ev
 0001:00025470  __ZN11FileStorageD2Ev  __ZN11FileStorageD2Ev
 0002:0001B070 __ZN11IconStorage10FIconCacheE  __ZN11IconStorage10FIconCacheE
 0001:0004E6D0 __ZN11IconStorage11qt_metacallEN11QMetaObject4CallEiPPv  __ZN11IconStorage11qt_metacallEN11QMetaObject4CallEiPPv
 0001:0004E770 __ZN11IconStorage11qt_metacastEPKc  __ZN11IconStorage11qt_metacastEPKc
 0001:0002BDB0 __ZN11IconStorage12removeObjectEP7QObject  __ZN11IconStorage12removeObjectEP7QObject
 0001:0002CB30 __ZN11IconStorage12updateObjectEP7QObject  __ZN11IconStorage12updateObjectEP7QObject
 0002:0001B07C __ZN11IconStorage13FAnimateCacheE  __ZN11IconStorage13FAnimateCacheE
 0001:0002C190 __ZN11IconStorage13initAnimationEP7QObjectPNS_16IconUpdateParamsE  __ZN11IconStorage13initAnimationEP7QObjectPNS_16IconUpdateParamsE
 0001:0002B560 __ZN11IconStorage13staticStorageERK7QString  __ZN11IconStorage13staticStorageERK7QString
 0001:0002B390 __ZN11IconStorage14clearIconCacheEv  __ZN11IconStorage14clearIconCacheEv
 0002:0001B078 __ZN11IconStorage14FObjectStorageE  __ZN11IconStorage14FObjectStorageE
 0001:0002D780 __ZN11IconStorage14insertAutoIconEP7QObjectRK7QStringiiS4_  __ZN11IconStorage14insertAutoIconEP7QObjectRK7QStringiiS4_
 0001:0002D560 __ZN11IconStorage14onAnimateTimerEv  __ZN11IconStorage14onAnimateTimerEv
 0001:0002BF00 __ZN11IconStorage14removeAutoIconEP7QObject  __ZN11IconStorage14removeAutoIconEP7QObject
 0002:0001B074 __ZN11IconStorage15FStaticStoragesE  __ZN11IconStorage15FStaticStoragesE
 0001:0002BD00 __ZN11IconStorage15removeAnimationEPNS_16IconUpdateParamsE  __ZN11IconStorage15removeAnimationEPNS_16IconUpdateParamsE
 0001:0002D630 __ZN11IconStorage16onStorageChangedEv  __ZN11IconStorage16onStorageChangedEv
 0001:0004E7E0 __ZN11IconStorage16staticMetaObjectE  __ZN11IconStorage16staticMetaObjectE
 0001:0002BEC0 __ZN11IconStorage17onObjectDestroyedEP7QObject  __ZN11IconStorage17onObjectDestroyedEP7QObject
 0001:00029E20 __ZN11IconStorageC1ERK7QStringS2_P7QObject  __ZN11IconStorageC1ERK7QStringS2_P7QObject
 0001:00029E20 __ZN11IconStorageC2ERK7QStringS2_P7QObject  __ZN11IconStorageC2ERK7QStringS2_P7QObject
 0001:0002C0D0  __ZN11IconStorageD0Ev  __ZN11IconStorageD0Ev
 0001:0002BF60  __ZN11IconStorageD1Ev  __ZN11IconStorageD1Ev
 0001:0002BF60  __ZN11IconStorageD2Ev  __ZN11IconStorageD2Ev
 0001:00019500 __ZN11MessageData14updateDateTimeEv  __ZN11MessageData14updateDateTimeEv
 0001:0001A8C0 __ZN11MessageDataC1ERK6Stanza  __ZN11MessageDataC1ERK6Stanza
 0001:0001B3C0 __ZN11MessageDataC1ERKS_  __ZN11MessageDataC1ERKS_
 0001:0001A950  __ZN11MessageDataC1Ev  __ZN11MessageDataC1Ev
 0001:0001A8C0 __ZN11MessageDataC2ERK6Stanza  __ZN11MessageDataC2ERK6Stanza
 0001:0001B3C0 __ZN11MessageDataC2ERKS_  __ZN11MessageDataC2ERKS_
 0001:0001A950  __ZN11MessageDataC2Ev  __ZN11MessageDataC2Ev
 0001:000331D0 __ZN11OptionsNode10removeNodeERK7QStringS2_  __ZN11OptionsNode10removeNodeERK7QStringS2_
 0001:00033940 __ZN11OptionsNode12removeChildsERK7QStringS2_  __ZN11OptionsNode12removeChildsERK7QStringS2_
 0002:0001B0B0 __ZN11OptionsNode4nullE  __ZN11OptionsNode4nullE
 0001:00036770 __ZN11OptionsNode8setValueERK8QVariantRK7QStringS5_  __ZN11OptionsNode8setValueERK8QVariantRK7QStringS5_
 0001:00033060 __ZN11OptionsNodeaSERKS_  __ZN11OptionsNodeaSERKS_
 0001:000322A0 __ZN11OptionsNodeC1ERK11QDomElement  __ZN11OptionsNodeC1ERK11QDomElement
 0001:00033100 __ZN11OptionsNodeC1ERKS_  __ZN11OptionsNodeC1ERKS_
 0001:00033120  __ZN11OptionsNodeC1Ev  __ZN11OptionsNodeC1Ev
 0001:000322A0 __ZN11OptionsNodeC2ERK11QDomElement  __ZN11OptionsNodeC2ERK11QDomElement
 0001:00033100 __ZN11OptionsNodeC2ERKS_  __ZN11OptionsNodeC2ERKS_
 0001:00033120  __ZN11OptionsNodeC2Ev  __ZN11OptionsNodeC2Ev
 0001:00032330  __ZN11OptionsNodeD1Ev  __ZN11OptionsNodeD1Ev
 0001:00032330  __ZN11OptionsNodeD2Ev  __ZN11OptionsNodeD2Ev
 0001:0003D740 __ZN11TextManager15getDocumentBodyERK13QTextDocument  __ZN11TextManager15getDocumentBodyERK13QTextDocument
 0001:0003DBE0 __ZN11TextManager19getTextFragmentHrefERK21QTextDocumentFragment  __ZN11TextManager19getTextFragmentHrefERK21QTextDocumentFragment
 0001:0003DF60 __ZN11TextManager20insertQuotedFragmentE11QTextCursorRK21QTextDocumentFragment  __ZN11TextManager20insertQuotedFragmentE11QTextCursorRK21QTextDocumentFragment
 0001:0003E0C0 __ZN11TextManager22getTrimmedTextFragmentERK21QTextDocumentFragmentb  __ZN11TextManager22getTrimmedTextFragmentERK21QTextDocumentFragmentb
 0001:00021D10 __ZN12DateTimeDataC1ERK9QDateTimei  __ZN12DateTimeDataC1ERK9QDateTimei
 0001:00021D80 __ZN12DateTimeDataC1ERKS_  __ZN12DateTimeDataC1ERKS_
 0001:00021D10 __ZN12DateTimeDataC2ERK9QDateTimei  __ZN12DateTimeDataC2ERK9QDateTimei
 0001:00021D80 __ZN12DateTimeDataC2ERKS_  __ZN12DateTimeDataC2ERKS_
 0001:00043130 __ZN12ImageManager10grayscaledERK6QImage  __ZN12ImageManager10grayscaledERK6QImage
 0001:00043C80 __ZN12ImageManager10opacitizedERK6QImaged  __ZN12ImageManager10opacitizedERK6QImaged
 0001:00043F70 __ZN12ImageManager12rotatedImageERK6QImaged  __ZN12ImageManager12rotatedImageERK6QImaged
 0001:00043460 __ZN12ImageManager12roundSquaredERK6QImageii  __ZN12ImageManager12roundSquaredERK6QImageii
 0001:00043210 __ZN12ImageManager7squaredERK6QImagei  __ZN12ImageManager7squaredERK6QImagei
 0001:00043E00 __ZN12ImageManager8addSpaceERK6QImageiiii  __ZN12ImageManager8addSpaceERK6QImageiiii
 0001:00043860 __ZN12ImageManager9addShadowERK6QImageRK6QColorRK6QPoint  __ZN12ImageManager9addShadowERK6QImageRK6QColorRK6QPoint
 0001:00043B00 __ZN12ImageManager9colorizedERK6QImageRK6QColor  __ZN12ImageManager9colorizedERK6QImageRK6QColor
 0001:0003D5C0 __ZN13SystemManager10systemIdleEv  __ZN13SystemManager10systemIdleEv
 0001:000500E0 __ZN13SystemManager11qt_metacallEN11QMetaObject4CallEiPPv  __ZN13SystemManager11qt_metacallEN11QMetaObject4CallEiPPv
 0001:00050030 __ZN13SystemManager11qt_metacastEPKc  __ZN13SystemManager11qt_metacastEPKc
 0001:0003D670 __ZN13SystemManager13onIdleChangedEi  __ZN13SystemManager13onIdleChangedEi
 0001:0003D630 __ZN13SystemManager14stopSystemIdleEv  __ZN13SystemManager14stopSystemIdleEv
 0001:0003D5F0 __ZN13SystemManager15startSystemIdleEv  __ZN13SystemManager15startSystemIdleEv
 0002:000191E0 __ZN13SystemManager16staticMetaObjectE  __ZN13SystemManager16staticMetaObjectE
 0001:000500A0 __ZN13SystemManager17systemIdleChangedEi  __ZN13SystemManager17systemIdleChangedEi
 0001:0003D5D0 __ZN13SystemManager18isSystemIdleActiveEv  __ZN13SystemManager18isSystemIdleActiveEv
 0002:0001B110 __ZN13SystemManager1dE  __ZN13SystemManager1dE
 0001:0003D510 __ZN13SystemManager8instanceEv  __ZN13SystemManager8instanceEv
 0000:FFFFFFFF __ZN13SystemManagerD0Ev  __ZN13SystemManagerD0Ev
 0000:FFFFFFFF __ZN13SystemManagerD1Ev  __ZN13SystemManagerD1Ev
 0001:00018330 __ZN13UnzipFileDataC1ERKS_  __ZN13UnzipFileDataC1ERKS_
 0001:000181F0 __ZN13UnzipFileDataC1Ev  __ZN13UnzipFileDataC1Ev
 0001:00018330 __ZN13UnzipFileDataC2ERKS_  __ZN13UnzipFileDataC2ERKS_
 0001:000181F0 __ZN13UnzipFileDataC2Ev  __ZN13UnzipFileDataC2Ev
 0001:000184F0 __ZN13UnzipFileDataD1Ev  __ZN13UnzipFileDataD1Ev
 0001:000184F0 __ZN13UnzipFileDataD2Ev  __ZN13UnzipFileDataD2Ev
 0001:00005770 __ZN13VersionParseraSERKS_  __ZN13VersionParseraSERKS_
 0001:00005E90 __ZN13VersionParserC1ERK7QString  __ZN13VersionParserC1ERK7QString
 0001:00005130 __ZN13VersionParserC1Essss  __ZN13VersionParserC1Essss
 0001:00005E90 __ZN13VersionParserC2ERK7QString  __ZN13VersionParserC2ERK7QString
 0001:00005130 __ZN13VersionParserC2Essss  __ZN13VersionParserC2Essss
 0001:00005160 __ZN13VersionParserD1Ev  __ZN13VersionParserD1Ev
 0001:00005160 __ZN13VersionParserD2Ev  __ZN13VersionParserD2Ev
 0001:00030F00 __ZN13WidgetManager11alertWidgetEP7QWidget  __ZN13WidgetManager11alertWidgetEP7QWidget
 0001:000311E0 __ZN13WidgetManager11alignWindowEP7QWidget6QFlagsIN2Qt13AlignmentFlagEE  __ZN13WidgetManager11alignWindowEP7QWidget6QFlagsIN2Qt13AlignmentFlagEE
 0001:00030E20 __ZN13WidgetManager11raiseWidgetEP7QWidget  __ZN13WidgetManager11raiseWidgetEP7QWidget
 0001:00031310 __ZN13WidgetManager13alignGeometryERK5QSizePK7QWidget6QFlagsIN2Qt13AlignmentFlagEE  __ZN13WidgetManager13alignGeometryERK5QSizePK7QWidget6QFlagsIN2Qt13AlignmentFlagEE
 0001:00030E30 __ZN13WidgetManager14isActiveWindowEPK7QWidget  __ZN13WidgetManager14isActiveWindowEPK7QWidget
 0001:00030EF0 __ZN13WidgetManager15setWindowStickyEP7QWidgetb  __ZN13WidgetManager15setWindowStickyEP7QWidgetb
 0001:00030F50 __ZN13WidgetManager15windowAlignmentEPK7QWidget  __ZN13WidgetManager15windowAlignmentEPK7QWidget
 0001:00030F30 __ZN13WidgetManager20isWidgetAlertEnabledEv  __ZN13WidgetManager20isWidgetAlertEnabledEv
 0001:00030F40 __ZN13WidgetManager21setWidgetAlertEnabledEb  __ZN13WidgetManager21setWidgetAlertEnabledEb
 0001:00030E80 __ZN13WidgetManager23showActivateRaiseWindowEP7QWidget  __ZN13WidgetManager23showActivateRaiseWindowEP7QWidget
 0001:00031060 __ZN13WidgetManager9alignRectERK5QRectS2_6QFlagsIN2Qt13AlignmentFlagEE  __ZN13WidgetManager9alignRectERK5QRectS2_6QFlagsIN2Qt13AlignmentFlagEE
 0001:00030AC0 __ZN13WindowSticker11eventFilterEP7QObjectP6QEvent  __ZN13WindowSticker11eventFilterEP7QObjectP6QEvent
 0001:00030DC0 __ZN13WindowSticker12insertWindowEP7QWidget  __ZN13WindowSticker12insertWindowEP7QWidget
 0001:00030DF0 __ZN13WindowSticker12removeWindowEP7QWidget  __ZN13WindowSticker12removeWindowEP7QWidget
 0001:00030D60 __ZN13WindowSticker8instanceEv  __ZN13WindowSticker8instanceEv
 0001:00030D00 __ZN13WindowStickerC1Ev  __ZN13WindowStickerC1Ev
 0001:00030D00 __ZN13WindowStickerC2Ev  __ZN13WindowStickerC2Ev
 0000:FFFFFFFF __ZN13WindowStickerD0Ev  __ZN13WindowStickerD0Ev
 0000:FFFFFFFF __ZN13WindowStickerD1Ev  __ZN13WindowStickerD1Ev
 0001:0002E570 __ZN14MenuBarChanger10insertMenuEP4Menui  __ZN14MenuBarChanger10insertMenuEP4Menui
 0001:0002E360 __ZN14MenuBarChanger10removeMenuEP4Menu  __ZN14MenuBarChanger10removeMenuEP4Menu
 0001:0004EA40 __ZN14MenuBarChanger11menuRemovedEP4Menu  __ZN14MenuBarChanger11menuRemovedEP4Menu
 0001:0004EAC0 __ZN14MenuBarChanger11qt_metacallEN11QMetaObject4CallEiPPv  __ZN14MenuBarChanger11qt_metacallEN11QMetaObject4CallEiPPv
 0001:0004E980 __ZN14MenuBarChanger11qt_metacastEPKc  __ZN14MenuBarChanger11qt_metacastEPKc
 0001:0004E9F0 __ZN14MenuBarChanger12menuInsertedEP4MenuS1_i  __ZN14MenuBarChanger12menuInsertedEP4MenuS1_i
 0001:0002E470 __ZN14MenuBarChanger15onMenuDestroyedEP4Menu  __ZN14MenuBarChanger15onMenuDestroyedEP4Menu
 0002:00018C10 __ZN14MenuBarChanger16staticMetaObjectE  __ZN14MenuBarChanger16staticMetaObjectE
 0001:0004EA80 __ZN14MenuBarChanger23menuBarChangerDestroyedEPS_  __ZN14MenuBarChanger23menuBarChangerDestroyedEPS_
 0001:0002E480 __ZN14MenuBarChanger5clearEv  __ZN14MenuBarChanger5clearEv
 0001:0002DB30 __ZN14MenuBarChangerC1EP8QMenuBar  __ZN14MenuBarChangerC1EP8QMenuBar
 0001:0002DB30 __ZN14MenuBarChangerC2EP8QMenuBar  __ZN14MenuBarChangerC2EP8QMenuBar
 0001:0002DCD0 __ZN14MenuBarChangerD0Ev  __ZN14MenuBarChangerD0Ev
 0001:0002DC40 __ZN14MenuBarChangerD1Ev  __ZN14MenuBarChangerD1Ev
 0001:0002DC40 __ZN14MenuBarChangerD2Ev  __ZN14MenuBarChangerD2Ev
 0001:00051270 __ZN14SearchLineEdit10searchNextEv  __ZN14SearchLineEdit10searchNextEv
 0001:000512A0 __ZN14SearchLineEdit11qt_metacallEN11QMetaObject4CallEiPPv  __ZN14SearchLineEdit11qt_metacallEN11QMetaObject4CallEiPPv
 0001:000511D0 __ZN14SearchLineEdit11qt_metacastEPKc  __ZN14SearchLineEdit11qt_metacastEPKc
 0001:00051240 __ZN14SearchLineEdit11searchStartEv  __ZN14SearchLineEdit11searchStartEv
 0001:00042530 __ZN14SearchLineEdit14restartTimeoutEi  __ZN14SearchLineEdit14restartTimeoutEi
 0002:00019670 __ZN14SearchLineEdit16staticMetaObjectE  __ZN14SearchLineEdit16staticMetaObjectE
 0001:00042720 __ZN14SearchLineEdit17updateTextMarginsEv  __ZN14SearchLineEdit17updateTextMarginsEv
 0001:00043000 __ZN14SearchLineEdit19onStartTimerTimeoutEv  __ZN14SearchLineEdit19onStartTimerTimeoutEv
 0001:000428A0 __ZN14SearchLineEdit19updateLayoutMarginsEv  __ZN14SearchLineEdit19updateLayoutMarginsEv
 0001:00043020 __ZN14SearchLineEdit20onClearButtonClickedEv  __ZN14SearchLineEdit20onClearButtonClickedEv
 0001:00042860 __ZN14SearchLineEdit20setSearchMenuVisibleEb  __ZN14SearchLineEdit20setSearchMenuVisibleEb
 0001:000430E0 __ZN14SearchLineEdit21onLineEditTextChangedERK7QString  __ZN14SearchLineEdit21onLineEditTextChangedERK7QString
 0001:00042570 __ZN14SearchLineEdit21setStartSearchTimeoutEi  __ZN14SearchLineEdit21setStartSearchTimeoutEi
 0001:00043050 __ZN14SearchLineEdit23onLineEditReturnPressedEv  __ZN14SearchLineEdit23onLineEditReturnPressedEv
 0001:000425B0 __ZN14SearchLineEdit27setSelectTextOnFocusEnabledEb  __ZN14SearchLineEdit27setSelectTextOnFocusEnabledEb
 0001:000425F0 __ZN14SearchLineEdit5eventEP6QEvent  __ZN14SearchLineEdit5eventEP6QEvent
 0001:00042830 __ZN14SearchLineEdit9showEventEP10QShowEvent  __ZN14SearchLineEdit9showEventEP10QShowEvent
 0001:00042AE0 __ZN14SearchLineEditC1EP7QWidget  __ZN14SearchLineEditC1EP7QWidget
 0001:00042AE0 __ZN14SearchLineEditC2EP7QWidget  __ZN14SearchLineEditC2EP7QWidget
 0001:000424D0 __ZN14SearchLineEditD0Ev  __ZN14SearchLineEditD0Ev
 0001:00042470 __ZN14SearchLineEditD1Ev  __ZN14SearchLineEditD1Ev
 0001:00042470 __ZN14SearchLineEditD2Ev  __ZN14SearchLineEditD2Ev
 0001:000217D0 __ZN14ToolBarChanger10removeItemEP7QAction  __ZN14ToolBarChanger10removeItemEP7QAction
 0001:0004E110 __ZN14ToolBarChanger11itemRemovedEP7QAction  __ZN14ToolBarChanger11itemRemovedEP7QAction
 0001:0004E190 __ZN14ToolBarChanger11qt_metacallEN11QMetaObject4CallEiPPv  __ZN14ToolBarChanger11qt_metacallEN11QMetaObject4CallEiPPv
 0001:0004E040 __ZN14ToolBarChanger11qt_metacastEPKc  __ZN14ToolBarChanger11qt_metacastEPKc
 0001:00020CC0 __ZN14ToolBarChanger12insertActionEP6Actioni  __ZN14ToolBarChanger12insertActionEP6Actioni
 0001:00020FC0 __ZN14ToolBarChanger12insertWidgetEP7QWidgeti  __ZN14ToolBarChanger12insertWidgetEP7QWidgeti
 0001:0004E0B0 __ZN14ToolBarChanger12itemInsertedEP7QActionS1_P6ActionP7QWidgeti  __ZN14ToolBarChanger12itemInsertedEP7QActionS1_P6ActionP7QWidgeti
 0001:0001F580 __ZN14ToolBarChanger13updateVisibleEv  __ZN14ToolBarChanger13updateVisibleEv
 0002:00018A00 __ZN14ToolBarChanger16staticMetaObjectE  __ZN14ToolBarChanger16staticMetaObjectE
 0001:000219E0 __ZN14ToolBarChanger17onWidgetDestroyedEP7QObject  __ZN14ToolBarChanger17onWidgetDestroyedEP7QObject
 0001:00020B60 __ZN14ToolBarChanger20insertGroupSeparatorEiP7QAction  __ZN14ToolBarChanger20insertGroupSeparatorEiP7QAction
 0001:000216D0 __ZN14ToolBarChanger20removeGroupSeparatorEi  __ZN14ToolBarChanger20removeGroupSeparatorEi
 0001:0001FF60 __ZN14ToolBarChanger20setSeparatorsVisibleEb  __ZN14ToolBarChanger20setSeparatorsVisibleEb
 0001:0001FDE0 __ZN14ToolBarChanger22updateSeparatorVisibleEv  __ZN14ToolBarChanger22updateSeparatorVisibleEv
 0001:0001F5F0 __ZN14ToolBarChanger23setAutoHideEmptyToolbarEb  __ZN14ToolBarChanger23setAutoHideEmptyToolbarEb
 0001:0004E150 __ZN14ToolBarChanger23toolBarChangerDestroyedEPS_  __ZN14ToolBarChanger23toolBarChangerDestroyedEPS_
 0001:00021B40 __ZN14ToolBarChanger5clearEv  __ZN14ToolBarChanger5clearEv
 0001:00021230 __ZN14ToolBarChangerC1EP8QToolBar  __ZN14ToolBarChangerC1EP8QToolBar
 0001:00021230 __ZN14ToolBarChangerC2EP8QToolBar  __ZN14ToolBarChangerC2EP8QToolBar
 0001:0001F860 __ZN14ToolBarChangerD0Ev  __ZN14ToolBarChangerD0Ev
 0001:0001F710 __ZN14ToolBarChangerD1Ev  __ZN14ToolBarChangerD1Ev
 0001:0001F710 __ZN14ToolBarChangerD2Ev  __ZN14ToolBarChangerD2Ev
 0001:0001C8C0 __ZN15IconsetDelegate11editorEventEP6QEventP18QAbstractItemModelRK20QStyleOptionViewItemRK11QModelIndex  __ZN15IconsetDelegate11editorEventEP6QEventP18QAbstractItemModelRK20QStyleOptionViewItemRK11QModelIndex
 0001:0001CC40 __ZN15IconsetDelegateC1EP7QObject  __ZN15IconsetDelegateC1EP7QObject
 0001:0001CC40 __ZN15IconsetDelegateC2EP7QObject  __ZN15IconsetDelegateC2EP7QObject
 0001:0001D5E0 __ZN15IconsetDelegateD0Ev  __ZN15IconsetDelegateD0Ev
 0001:0001D2D0 __ZN15IconsetDelegateD1Ev  __ZN15IconsetDelegateD1Ev
 0001:0001D2D0 __ZN15IconsetDelegateD2Ev  __ZN15IconsetDelegateD2Ev
 0001:00007280 __ZN15XmppStanzaError10codeByTypeERK7QString  __ZN15XmppStanzaError10codeByTypeERK7QString
 0001:000106C0 __ZN15XmppStanzaError10initializeEv  __ZN15XmppStanzaError10initializeEv
 0001:00007FD0 __ZN15XmppStanzaError10setErrorByERK7QString  __ZN15XmppStanzaError10setErrorByERK7QString
 0001:00006A90 __ZN15XmppStanzaError10typeByCodeENS_9ErrorTypeE  __ZN15XmppStanzaError10typeByCodeENS_9ErrorTypeE
 0002:0001B018 __ZN15XmppStanzaError11FErrorTypesE  __ZN15XmppStanzaError11FErrorTypesE
 0001:00008090 __ZN15XmppStanzaError12setConditionENS_14ErrorConditionE  __ZN15XmppStanzaError12setConditionENS_14ErrorConditionE
 0001:00007F30 __ZN15XmppStanzaError12setErrorTypeENS_9ErrorTypeE  __ZN15XmppStanzaError12setErrorTypeENS_9ErrorTypeE
 0001:00007370 __ZN15XmppStanzaError15codeByConditionERK7QString  __ZN15XmppStanzaError15codeByConditionERK7QString
 0001:00006B90 __ZN15XmppStanzaError15conditionByCodeENS_14ErrorConditionE  __ZN15XmppStanzaError15conditionByCodeENS_14ErrorConditionE
 0002:0001B020 __ZN15XmppStanzaError15FConditionTypesE  __ZN15XmppStanzaError15FConditionTypesE
 0001:00006B20 __ZN15XmppStanzaError15typeByConditionENS_14ErrorConditionE  __ZN15XmppStanzaError15typeByConditionENS_14ErrorConditionE
 0002:0001B01C __ZN15XmppStanzaError16FErrorConditionsE  __ZN15XmppStanzaError16FErrorConditionsE
 0001:00009ED0 __ZN15XmppStanzaError20registerStanzaErrorsEv  __ZN15XmppStanzaError20registerStanzaErrorsEv
 0002:0001B02C __ZN15XmppStanzaError4nullE  __ZN15XmppStanzaError4nullE
 0001:00009140 __ZN15XmppStanzaErrorC1E11QDomElement  __ZN15XmppStanzaErrorC1E11QDomElement
 0001:00008760 __ZN15XmppStanzaErrorC1ENS_14ErrorConditionERK7QStringNS_9ErrorTypeES3_  __ZN15XmppStanzaErrorC1ENS_14ErrorConditionERK7QStringNS_9ErrorTypeES3_
 0001:00007010 __ZN15XmppStanzaErrorC1ERK18QSharedDataPointerI13XmppErrorDataE  __ZN15XmppStanzaErrorC1ERK18QSharedDataPointerI13XmppErrorDataE
 0001:00012CE0 __ZN15XmppStanzaErrorC1ERK6Stanza  __ZN15XmppStanzaErrorC1ERK6Stanza
 0001:00013050 __ZN15XmppStanzaErrorC1Ev  __ZN15XmppStanzaErrorC1Ev
 0001:00009140 __ZN15XmppStanzaErrorC2E11QDomElement  __ZN15XmppStanzaErrorC2E11QDomElement
 0001:00008760 __ZN15XmppStanzaErrorC2ENS_14ErrorConditionERK7QStringNS_9ErrorTypeES3_  __ZN15XmppStanzaErrorC2ENS_14ErrorConditionERK7QStringNS_9ErrorTypeES3_
 0001:00007010 __ZN15XmppStanzaErrorC2ERK18QSharedDataPointerI13XmppErrorDataE  __ZN15XmppStanzaErrorC2ERK18QSharedDataPointerI13XmppErrorDataE
 0001:00012CE0 __ZN15XmppStanzaErrorC2ERK6Stanza  __ZN15XmppStanzaErrorC2ERK6Stanza
 0001:00013050 __ZN15XmppStanzaErrorC2Ev  __ZN15XmppStanzaErrorC2Ev
 0000:FFFFFFFF __ZN15XmppStanzaErrorD1Ev  __ZN15XmppStanzaErrorD1Ev
 0001:0000EEF0 __ZN15XmppStreamError10initializeEv  __ZN15XmppStreamError10initializeEv
 0001:000080F0 __ZN15XmppStreamError12setConditionENS_14ErrorConditionE  __ZN15XmppStreamError12setConditionENS_14ErrorConditionE
 0001:00007190 __ZN15XmppStreamError15codeByConditionERK7QString  __ZN15XmppStreamError15codeByConditionERK7QString
 0001:000069C0 __ZN15XmppStreamError15conditionByCodeENS_14ErrorConditionE  __ZN15XmppStreamError15conditionByCodeENS_14ErrorConditionE
 0002:0001B014 __ZN15XmppStreamError16FErrorConditionsE  __ZN15XmppStreamError16FErrorConditionsE
 0001:0000C3E0 __ZN15XmppStreamError20registerStreamErrorsEv  __ZN15XmppStreamError20registerStreamErrorsEv
 0002:0001B028 __ZN15XmppStreamError4nullE  __ZN15XmppStreamError4nullE
 0001:00009400 __ZN15XmppStreamErrorC1E11QDomElement  __ZN15XmppStreamErrorC1E11QDomElement
 0001:00008890 __ZN15XmppStreamErrorC1ENS_14ErrorConditionERK7QString  __ZN15XmppStreamErrorC1ENS_14ErrorConditionERK7QString
 0001:00007070 __ZN15XmppStreamErrorC1ERK18QSharedDataPointerI13XmppErrorDataE  __ZN15XmppStreamErrorC1ERK18QSharedDataPointerI13XmppErrorDataE
 0001:000130A0 __ZN15XmppStreamErrorC1Ev  __ZN15XmppStreamErrorC1Ev
 0001:00009400 __ZN15XmppStreamErrorC2E11QDomElement  __ZN15XmppStreamErrorC2E11QDomElement
 0001:00008890 __ZN15XmppStreamErrorC2ENS_14ErrorConditionERK7QString  __ZN15XmppStreamErrorC2ENS_14ErrorConditionERK7QString
 0001:00007070 __ZN15XmppStreamErrorC2ERK18QSharedDataPointerI13XmppErrorDataE  __ZN15XmppStreamErrorC2ERK18QSharedDataPointerI13XmppErrorDataE
 0001:000130A0 __ZN15XmppStreamErrorC2Ev  __ZN15XmppStreamErrorC2Ev
 0001:0002E920 __ZN16StatusBarChanger11eventFilterEP7QObjectP6QEvent  __ZN16StatusBarChanger11eventFilterEP7QObjectP6QEvent
 0001:0004EED0 __ZN16StatusBarChanger11qt_metacallEN11QMetaObject4CallEiPPv  __ZN16StatusBarChanger11qt_metacallEN11QMetaObject4CallEiPPv
 0001:0004ED80 __ZN16StatusBarChanger11qt_metacastEPKc  __ZN16StatusBarChanger11qt_metacastEPKc
 0001:0002F220 __ZN16StatusBarChanger12insertWidgetEP7QWidgetibi  __ZN16StatusBarChanger12insertWidgetEP7QWidgetibi
 0001:0002F7C0 __ZN16StatusBarChanger12removeWidgetEP7QWidget  __ZN16StatusBarChanger12removeWidgetEP7QWidget
 0001:0002E870 __ZN16StatusBarChanger13updateVisibleEv  __ZN16StatusBarChanger13updateVisibleEv
 0001:0004EE50 __ZN16StatusBarChanger13widgetRemovedEP7QWidget  __ZN16StatusBarChanger13widgetRemovedEP7QWidget
 0001:0004EDF0 __ZN16StatusBarChanger14widgetInsertedEP7QWidgetS1_ibi  __ZN16StatusBarChanger14widgetInsertedEP7QWidgetS1_ibi
 0001:0002E9A0 __ZN16StatusBarChanger15onChangeVisibleEv  __ZN16StatusBarChanger15onChangeVisibleEv
 0002:00018D10 __ZN16StatusBarChanger16staticMetaObjectE  __ZN16StatusBarChanger16staticMetaObjectE
 0001:0002F5B0 __ZN16StatusBarChanger17onWidgetDestroyedEP7QObject  __ZN16StatusBarChanger17onWidgetDestroyedEP7QObject
 0001:0002E900 __ZN16StatusBarChanger19setManageVisibilityEb  __ZN16StatusBarChanger19setManageVisibilityEb
 0001:0004EE90 __ZN16StatusBarChanger25statusBarChangerDestroyedEPS_  __ZN16StatusBarChanger25statusBarChangerDestroyedEPS_
 0001:0002F8D0 __ZN16StatusBarChanger5clearEv  __ZN16StatusBarChanger5clearEv
 0001:0002EB50 __ZN16StatusBarChangerC1EP10QStatusBar  __ZN16StatusBarChangerC1EP10QStatusBar
 0001:0002EB50 __ZN16StatusBarChangerC2EP10QStatusBar  __ZN16StatusBarChangerC2EP10QStatusBar
 0001:0002EAF0 __ZN16StatusBarChangerD0Ev  __ZN16StatusBarChangerD0Ev
 0001:0002EA60 __ZN16StatusBarChangerD1Ev  __ZN16StatusBarChangerD1Ev
 0001:0002EA60 __ZN16StatusBarChangerD2Ev  __ZN16StatusBarChangerD2Ev
 0000:FFFFFFFF __ZN16ToolButtonAction12createWidgetEP7QWidget  __ZN16ToolButtonAction12createWidgetEP7QWidget
 0000:FFFFFFFF __ZN16ToolButtonActionD0Ev  __ZN16ToolButtonActionD0Ev
 0000:FFFFFFFF __ZN16ToolButtonActionD1Ev  __ZN16ToolButtonActionD1Ev
 0000:FFFFFFFF __ZN18QSharedDataPointerI10StanzaDataE13detach_helperEv  __ZN18QSharedDataPointerI10StanzaDataE13detach_helperEv
 0000:FFFFFFFF __ZN18QSharedDataPointerI10StanzaDataED1Ev  __ZN18QSharedDataPointerI10StanzaDataED1Ev
 0000:FFFFFFFF __ZN18QSharedDataPointerI11MessageDataE13detach_helperEv  __ZN18QSharedDataPointerI11MessageDataE13detach_helperEv
 0000:FFFFFFFF __ZN18QSharedDataPointerI11MessageDataED1Ev  __ZN18QSharedDataPointerI11MessageDataED1Ev
 0000:FFFFFFFF __ZN18QSharedDataPointerI12DateTimeDataE13detach_helperEv  __ZN18QSharedDataPointerI12DateTimeDataE13detach_helperEv
 0000:FFFFFFFF __ZN18QSharedDataPointerI12DateTimeDataED1Ev  __ZN18QSharedDataPointerI12DateTimeDataED1Ev
 0000:FFFFFFFF __ZN18QSharedDataPointerI13UnzipFileDataE13detach_helperEv  __ZN18QSharedDataPointerI13UnzipFileDataE13detach_helperEv
 0000:FFFFFFFF __ZN18QSharedDataPointerI13UnzipFileDataED1Ev  __ZN18QSharedDataPointerI13UnzipFileDataED1Ev
 0000:FFFFFFFF __ZN18QSharedDataPointerI13XmppErrorDataE13detach_helperEv  __ZN18QSharedDataPointerI13XmppErrorDataE13detach_helperEv
 0000:FFFFFFFF __ZN18QSharedDataPointerI13XmppErrorDataED1Ev  __ZN18QSharedDataPointerI13XmppErrorDataED1Ev
 0000:FFFFFFFF __ZN18QSharedDataPointerI7JidDataE13detach_helperEv  __ZN18QSharedDataPointerI7JidDataE13detach_helperEv
 0000:FFFFFFFF __ZN18QSharedDataPointerI7JidDataED1Ev  __ZN18QSharedDataPointerI7JidDataED1Ev
 0001:000504B0 __ZN19AnimatedTextBrowser11qt_metacallEN11QMetaObject4CallEiPPv  __ZN19AnimatedTextBrowser11qt_metacallEN11QMetaObject4CallEiPPv
 0001:00050300 __ZN19AnimatedTextBrowser11qt_metacastEPKc  __ZN19AnimatedTextBrowser11qt_metacastEPKc
 0001:00041C30 __ZN19AnimatedTextBrowser11setAnimatedEb  __ZN19AnimatedTextBrowser11setAnimatedEb
 0001:00040070 __ZN19AnimatedTextBrowser12addAnimationERK4QUrlRK8QVariant  __ZN19AnimatedTextBrowser12addAnimationERK4QUrlRK8QVariant
 0001:00040710 __ZN19AnimatedTextBrowser12loadResourceEiRK4QUrl  __ZN19AnimatedTextBrowser12loadResourceEiRK4QUrl
 0001:00050430 __ZN19AnimatedTextBrowser14resourceLoadedERK4QUrl  __ZN19AnimatedTextBrowser14resourceLoadedERK4QUrl
 0001:00050470 __ZN19AnimatedTextBrowser15resourceUpdatedERK4QUrl  __ZN19AnimatedTextBrowser15resourceUpdatedERK4QUrl
 0001:00041B50 __ZN19AnimatedTextBrowser16onMovieDestroyedEP7QObject  __ZN19AnimatedTextBrowser16onMovieDestroyedEP7QObject
 0002:00019340 __ZN19AnimatedTextBrowser16staticMetaObjectE  __ZN19AnimatedTextBrowser16staticMetaObjectE
 0001:00040C50 __ZN19AnimatedTextBrowser22onResourceLoadFinishedEv  __ZN19AnimatedTextBrowser22onResourceLoadFinishedEv
 0001:00041960 __ZN19AnimatedTextBrowser23onAnimationFrameChangedEv  __ZN19AnimatedTextBrowser23onAnimationFrameChangedEv
 0001:0003E7C0 __ZN19AnimatedTextBrowser23setNetworkAccessManagerEP21QNetworkAccessManager  __ZN19AnimatedTextBrowser23setNetworkAccessManagerEP21QNetworkAccessManager
 0001:0003FA00 __ZN19AnimatedTextBrowser25onDocumentContentsChangedEiii  __ZN19AnimatedTextBrowser25onDocumentContentsChangedEiii
 0001:00040F60 __ZN19AnimatedTextBrowser25onUpdateDocumentAnimationEv  __ZN19AnimatedTextBrowser25onUpdateDocumentAnimationEv
 0001:0003E810 __ZN19AnimatedTextBrowser26onVerticalScrollBarChangedEv  __ZN19AnimatedTextBrowser26onVerticalScrollBarChangedEv
 0001:00050400 __ZN19AnimatedTextBrowser30visiblePositionBoundaryChangedEv  __ZN19AnimatedTextBrowser30visiblePositionBoundaryChangedEv
 0001:0003E7D0 __ZN19AnimatedTextBrowser9showEventEP10QShowEvent  __ZN19AnimatedTextBrowser9showEventEP10QShowEvent
 0001:0003E9E0 __ZN19AnimatedTextBrowserC1EP7QWidget  __ZN19AnimatedTextBrowserC1EP7QWidget
 0001:0003E9E0 __ZN19AnimatedTextBrowserC2EP7QWidget  __ZN19AnimatedTextBrowserC2EP7QWidget
 0000:FFFFFFFF __ZN19AnimatedTextBrowserD0Ev  __ZN19AnimatedTextBrowserD0Ev
 0000:FFFFFFFF __ZN19AnimatedTextBrowserD1Ev  __ZN19AnimatedTextBrowserD1Ev
 0001:00044810 __ZN20AdvancedDelegateItem11getPositionEj  __ZN20AdvancedDelegateItem11getPositionEj
 0002:0001B154 __ZN20AdvancedDelegateItem12CheckStateIdE  __ZN20AdvancedDelegateItem12CheckStateIdE
 0002:0001B158 __ZN20AdvancedDelegateItem12DecorationIdE  __ZN20AdvancedDelegateItem12DecorationIdE
 0001:000447F0 __ZN20AdvancedDelegateItem13makeStretchIdEhh  __ZN20AdvancedDelegateItem13makeStretchIdEhh
 0001:00048170 __ZN20AdvancedDelegateItem6detachEv  __ZN20AdvancedDelegateItem6detachEv
 0001:000447D0 __ZN20AdvancedDelegateItem6makeIdEhht  __ZN20AdvancedDelegateItem6makeIdEhht
 0001:0004D570 __ZN20AdvancedDelegateItem6NullIdE  __ZN20AdvancedDelegateItem6NullIdE
 0002:0001B150 __ZN20AdvancedDelegateItem8BranchIdE  __ZN20AdvancedDelegateItem8BranchIdE
 0001:00044820 __ZN20AdvancedDelegateItem8getFloorEj  __ZN20AdvancedDelegateItem8getFloorEj
 0001:00044830 __ZN20AdvancedDelegateItem8getOrderEj  __ZN20AdvancedDelegateItem8getOrderEj
 0002:0001B15C __ZN20AdvancedDelegateItem9DisplayIdE  __ZN20AdvancedDelegateItem9DisplayIdE
 0001:00047960 __ZN20AdvancedDelegateItemaSERKS_  __ZN20AdvancedDelegateItemaSERKS_
 0001:00047670 __ZN20AdvancedDelegateItemC1Ej  __ZN20AdvancedDelegateItemC1Ej
 0001:00044760 __ZN20AdvancedDelegateItemC1ERKS_  __ZN20AdvancedDelegateItemC1ERKS_
 0001:00047670 __ZN20AdvancedDelegateItemC2Ej  __ZN20AdvancedDelegateItemC2Ej
 0001:00044760 __ZN20AdvancedDelegateItemC2ERKS_  __ZN20AdvancedDelegateItemC2ERKS_
 0001:00047A30 __ZN20AdvancedDelegateItemD1Ev  __ZN20AdvancedDelegateItemD1Ev
 0001:00047A30 __ZN20AdvancedDelegateItemD2Ev  __ZN20AdvancedDelegateItemD2Ev
 0001:0004C050 __ZN20AdvancedItemDelegate11editorEventEP6QEventP18QAbstractItemModelRK20QStyleOptionViewItemRK11QModelIndex  __ZN20AdvancedItemDelegate11editorEventEP6QEventP18QAbstractItemModelRK20QStyleOptionViewItemRK11QModelIndex
 0001:00051740 __ZN20AdvancedItemDelegate11qt_metacallEN11QMetaObject4CallEiPPv  __ZN20AdvancedItemDelegate11qt_metacallEN11QMetaObject4CallEiPPv
 0001:000516A0 __ZN20AdvancedItemDelegate11qt_metacastEPKc  __ZN20AdvancedItemDelegate11qt_metacastEPKc
 0001:00044BE0 __ZN20AdvancedItemDelegate11setEditRoleEi  __ZN20AdvancedItemDelegate11setEditRoleEi
 0001:00046C50 __ZN20AdvancedItemDelegate12itemSizeHintERK20AdvancedDelegateItemRK22QStyleOptionViewItemV4  __ZN20AdvancedItemDelegate12itemSizeHintERK20AdvancedDelegateItemRK22QStyleOptionViewItemV4
 0001:00044BC0 __ZN20AdvancedItemDelegate12setBlinkModeENS_9BlinkModeE  __ZN20AdvancedItemDelegate12setBlinkModeENS_9BlinkModeE
 0001:00044C20 __ZN20AdvancedItemDelegate12setEditProxyEP25AdvancedDelegateEditProxy  __ZN20AdvancedItemDelegate12setEditProxyEP25AdvancedDelegateEditProxy
 0001:00044AC0 __ZN20AdvancedItemDelegate12setItemsRoleEi  __ZN20AdvancedItemDelegate12setItemsRoleEi
 0001:00046B90 __ZN20AdvancedItemDelegate13isItemVisibleERK20AdvancedDelegateItemRK22QStyleOptionViewItemV4  __ZN20AdvancedItemDelegate13isItemVisibleERK20AdvancedDelegateItemRK22QStyleOptionViewItemV4
 0001:00044C00 __ZN20AdvancedItemDelegate13setEditItemIdEj  __ZN20AdvancedItemDelegate13setEditItemIdEj
 0002:00019740 __ZN20AdvancedItemDelegate16staticMetaObjectE  __ZN20AdvancedItemDelegate16staticMetaObjectE
 0001:00051710 __ZN20AdvancedItemDelegate16updateBlinkItemsEv  __ZN20AdvancedItemDelegate16updateBlinkItemsEv
 0001:00044AE0 __ZN20AdvancedItemDelegate17setVertialSpacingEi  __ZN20AdvancedItemDelegate17setVertialSpacingEi
 0001:00047410 __ZN20AdvancedItemDelegate19onBlinkTimerTimeoutEv  __ZN20AdvancedItemDelegate19onBlinkTimerTimeoutEv
 0001:00044B80 __ZN20AdvancedItemDelegate19setContentsMargingsERK8QMargins  __ZN20AdvancedItemDelegate19setContentsMargingsERK8QMargins
 0001:00044B20 __ZN20AdvancedItemDelegate19setFocusRectVisibleEb  __ZN20AdvancedItemDelegate19setFocusRectVisibleEb
 0001:00044B00 __ZN20AdvancedItemDelegate20setHorizontalSpacingEi  __ZN20AdvancedItemDelegate20setHorizontalSpacingEi
 0001:00044B40 __ZN20AdvancedItemDelegate27setDefaultBranchItemEnabledEb  __ZN20AdvancedItemDelegate27setDefaultBranchItemEnabledEb
 0001:00044930 __ZN20AdvancedItemDelegateC1EP7QObject  __ZN20AdvancedItemDelegateC1EP7QObject
 0001:00044930 __ZN20AdvancedItemDelegateC2EP7QObject  __ZN20AdvancedItemDelegateC2EP7QObject
 0001:00044A90 __ZN20AdvancedItemDelegateD0Ev  __ZN20AdvancedItemDelegateD0Ev
 0001:00044A50 __ZN20AdvancedItemDelegateD1Ev  __ZN20AdvancedItemDelegateD1Ev
 0001:00044A50 __ZN20AdvancedItemDelegateD2Ev  __ZN20AdvancedItemDelegateD2Ev
 0000:FFFFFFFF __ZN20QStyleOptionViewItemD2Ev  __ZN20QStyleOptionViewItemD2Ev
 0000:FFFFFFFF __ZN22QStyleOptionViewItemV4D1Ev  __ZN22QStyleOptionViewItemV4D1Ev
 0001:00044240 __ZN25AdvancedDelegateEditProxy12createEditorEPK20AdvancedItemDelegateP7QWidgetRK20QStyleOptionViewItemRK11QModelIndex  __ZN25AdvancedDelegateEditProxy12createEditorEPK20AdvancedItemDelegateP7QWidgetRK20QStyleOptionViewItemRK11QModelIndex
 0001:00044260 __ZN25AdvancedDelegateEditProxy12setModelDataEPK20AdvancedItemDelegateP7QWidgetP18QAbstractItemModelRK11QModelIndex  __ZN25AdvancedDelegateEditProxy12setModelDataEPK20AdvancedItemDelegateP7QWidgetP18QAbstractItemModelRK11QModelIndex
 0001:00044250 __ZN25AdvancedDelegateEditProxy13setEditorDataEPK20AdvancedItemDelegateP7QWidgetRK11QModelIndex  __ZN25AdvancedDelegateEditProxy13setEditorDataEPK20AdvancedItemDelegateP7QWidgetRK11QModelIndex
 0000:FFFFFFFF __ZN26AdvancedDelegateLayoutItem10invalidateEv  __ZN26AdvancedDelegateLayoutItem10invalidateEv
 0000:FFFFFFFF __ZN26AdvancedDelegateLayoutItem11setGeometryERK5QRect  __ZN26AdvancedDelegateLayoutItem11setGeometryERK5QRect
 0000:FFFFFFFF __ZN26AdvancedDelegateLayoutItemD0Ev  __ZN26AdvancedDelegateLayoutItemD0Ev
 0000:FFFFFFFF __ZN26AdvancedDelegateLayoutItemD1Ev  __ZN26AdvancedDelegateLayoutItemD1Ev
 0001:00001010 __ZN3Jid11nodePrepareERK7QString  __ZN3Jid11nodePrepareERK7QString
 0001:00003860 __ZN3Jid11setResourceERK7QString  __ZN3Jid11setResourceERK7QString
 0001:00001040 __ZN3Jid13domainPrepareERK7QString  __ZN3Jid13domainPrepareERK7QString
 0001:000042B0 __ZN3Jid13fromUserInputERK7QString  __ZN3Jid13fromUserInputERK7QString
 0001:00002100 __ZN3Jid15parseFromStringERK7QString  __ZN3Jid15parseFromStringERK7QString
 0001:00001070 __ZN3Jid15resourcePrepareERK7QString  __ZN3Jid15resourcePrepareERK7QString
 0002:0001AFCC         __ZN3Jid4nullE  __ZN3Jid4nullE
 0001:00000D10 __ZN3Jid6decodeERK7QString  __ZN3Jid6decodeERK7QString
 0001:00000A90 __ZN3Jid6encodeERK7QString  __ZN3Jid6encodeERK7QString
 0001:00001930 __ZN3Jid6escapeERK7QString  __ZN3Jid6escapeERK7QString
 0001:00003DA0 __ZN3Jid7setNodeERK7QString  __ZN3Jid7setNodeERK7QString
 0001:00001470 __ZN3Jid8unescapeERK7QString  __ZN3Jid8unescapeERK7QString
 0001:00003B00 __ZN3Jid9setDomainERK7QString  __ZN3Jid9setDomainERK7QString
 0001:000037C0  __ZN3JidaSERK7QString  __ZN3JidaSERK7QString
 0001:00004FE0         __ZN3JidC1EPKc  __ZN3JidC1EPKc
 0001:00004270  __ZN3JidC1ERK7QString  __ZN3JidC1ERK7QString
 0001:00004040 __ZN3JidC1ERK7QStringS2_S2_  __ZN3JidC1ERK7QStringS2_S2_
 0001:00004FE0         __ZN3JidC2EPKc  __ZN3JidC2EPKc
 0001:00004270  __ZN3JidC2ERK7QString  __ZN3JidC2ERK7QString
 0001:00004040 __ZN3JidC2ERK7QStringS2_S2_  __ZN3JidC2ERK7QStringS2_S2_
 0001:00000700           __ZN3JidD1Ev  __ZN3JidD1Ev
 0001:00000700           __ZN3JidD2Ev  __ZN3JidD2Ev
 0001:0004DB90 __ZN4Menu11qt_metacallEN11QMetaObject4CallEiPPv  __ZN4Menu11qt_metacallEN11QMetaObject4CallEiPPv
 0001:0004D9D0 __ZN4Menu11qt_metacastEPKc  __ZN4Menu11qt_metacastEPKc
 0001:00017310 __ZN4Menu12removeActionEP6Action  __ZN4Menu12removeActionEP6Action
 0001:0004DA90 __ZN4Menu13actionRemovedEP6Action  __ZN4Menu13actionRemovedEP6Action
 0001:0004DB50 __ZN4Menu13menuDestroyedEPS_  __ZN4Menu13menuDestroyedEPS_
 0001:0004DA40 __ZN4Menu14actionInsertedEP7QActionP6Actionib  __ZN4Menu14actionInsertedEP7QActionP6Actionib
 0001:00017D00 __ZN4Menu14addMenuActionsEPKS_ib  __ZN4Menu14addMenuActionsEPKS_ib
 0001:00017EC0 __ZN4Menu16copyStandardMenuEPS_P5QMenui  __ZN4Menu16copyStandardMenuEPS_P5QMenui
 0001:0004DB10 __ZN4Menu16separatorRemovedEP7QAction  __ZN4Menu16separatorRemovedEP7QAction
 0002:000188B0 __ZN4Menu16staticMetaObjectE  __ZN4Menu16staticMetaObjectE
 0001:00017530 __ZN4Menu17onActionDestroyedEP6Action  __ZN4Menu17onActionDestroyedEP6Action
 0001:0004DAD0 __ZN4Menu17separatorInsertedEP6ActionP7QAction  __ZN4Menu17separatorInsertedEP6ActionP7QAction
 0001:00017540      __ZN4Menu5clearEv  __ZN4Menu5clearEv
 0001:00015AA0 __ZN4Menu7setIconERK5QIcon  __ZN4Menu7setIconERK5QIcon
 0001:000159C0 __ZN4Menu7setIconERK7QStringS2_i  __ZN4Menu7setIconERK7QStringS2_i
 0001:00015B70 __ZN4Menu8setTitleERK7QString  __ZN4Menu8setTitleERK7QString
 0001:00017630 __ZN4Menu9addActionEP6Actionib  __ZN4Menu9addActionEP6Actionib
 0001:00015D50  __ZN4MenuC1EP7QWidget  __ZN4MenuC1EP7QWidget
 0001:00015D50  __ZN4MenuC2EP7QWidget  __ZN4MenuC2EP7QWidget
 0001:00015D20          __ZN4MenuD0Ev  __ZN4MenuD0Ev
 0001:00015C30          __ZN4MenuD1Ev  __ZN4MenuD1Ev
 0001:00015C30          __ZN4MenuD2Ev  __ZN4MenuD2Ev
 0000:FFFFFFFF __ZN4QMapI7QStringS0_E13detach_helperEv  __ZN4QMapI7QStringS0_E13detach_helperEv
 0000:FFFFFFFF __ZN4QMapI7QStringS0_E6removeERKS0_  __ZN4QMapI7QStringS0_E6removeERKS0_
 0000:FFFFFFFF __ZN4QMapI7QStringS0_ED1Ev  __ZN4QMapI7QStringS0_ED1Ev
 0000:FFFFFFFF __ZN4QMapI7QStringS_IS0_S0_EE11node_createEP8QMapDataPPNS3_4NodeERKS0_RKS1_  __ZN4QMapI7QStringS_IS0_S0_EE11node_createEP8QMapDataPPNS3_4NodeERKS0_RKS1_
 0000:FFFFFFFF __ZN4QMapI7QStringS_IS0_S0_EE13detach_helperEv  __ZN4QMapI7QStringS_IS0_S0_EE13detach_helperEv
 0000:FFFFFFFF __ZN4QMapI7QStringS_IS0_S0_EED1Ev  __ZN4QMapI7QStringS_IS0_S0_EED1Ev
 0000:FFFFFFFF __ZN4QMapI7QStringS_IS0_S_IS0_S0_EEE11node_createEP8QMapDataPPNS4_4NodeERKS0_RKS2_  __ZN4QMapI7QStringS_IS0_S_IS0_S0_EEE11node_createEP8QMapDataPPNS4_4NodeERKS0_RKS2_
 0000:FFFFFFFF __ZN4QMapI7QStringS_IS0_S_IS0_S0_EEE13detach_helperEv  __ZN4QMapI7QStringS_IS0_S_IS0_S0_EEE13detach_helperEv
 0000:FFFFFFFF __ZN4QMapIi8QVariantE13detach_helperEv  __ZN4QMapIi8QVariantE13detach_helperEv
 0000:FFFFFFFF __ZN4QMapIi8QVariantED1Ev  __ZN4QMapIi8QVariantED1Ev
 0000:FFFFFFFF __ZN4QMapIi9QMultiMapIiP26AdvancedDelegateLayoutItemEE13detach_helperEv  __ZN4QMapIi9QMultiMapIiP26AdvancedDelegateLayoutItemEE13detach_helperEv
 0000:FFFFFFFF __ZN4QMapIi9QMultiMapIiP26AdvancedDelegateLayoutItemEED1Ev  __ZN4QMapIi9QMultiMapIiP26AdvancedDelegateLayoutItemEED1Ev
 0000:FFFFFFFF __ZN4QMapIiP10QBoxLayoutE13detach_helperEv  __ZN4QMapIiP10QBoxLayoutE13detach_helperEv
 0000:FFFFFFFF __ZN4QMapIiP10QBoxLayoutED1Ev  __ZN4QMapIiP10QBoxLayoutED1Ev
 0000:FFFFFFFF __ZN4QMapIiP26AdvancedDelegateLayoutItemE13detach_helperEv  __ZN4QMapIiP26AdvancedDelegateLayoutItemE13detach_helperEv
 0000:FFFFFFFF __ZN4QMapIiP26AdvancedDelegateLayoutItemED1Ev  __ZN4QMapIiP26AdvancedDelegateLayoutItemED1Ev
 0000:FFFFFFFF __ZN4QMapIiP26AdvancedDelegateLayoutItemED2Ev  __ZN4QMapIiP26AdvancedDelegateLayoutItemED2Ev
 0000:FFFFFFFF __ZN4QMapIiP4MenuE13detach_helperEv  __ZN4QMapIiP4MenuE13detach_helperEv
 0000:FFFFFFFF __ZN4QMapIiP4MenuE5eraseENS2_8iteratorE  __ZN4QMapIiP4MenuE5eraseENS2_8iteratorE
 0000:FFFFFFFF __ZN4QMapIiP4MenuED2Ev  __ZN4QMapIiP4MenuED2Ev
 0000:FFFFFFFF __ZN4QMapIiP6ActionE13detach_helperEv  __ZN4QMapIiP6ActionE13detach_helperEv
 0000:FFFFFFFF __ZN4QMapIiP6ActionE5eraseENS2_8iteratorE  __ZN4QMapIiP6ActionE5eraseENS2_8iteratorE
 0000:FFFFFFFF __ZN4QMapIiP6ActionED2Ev  __ZN4QMapIiP6ActionED2Ev
 0000:FFFFFFFF __ZN4QMapIiP7QActionE13detach_helperEv  __ZN4QMapIiP7QActionE13detach_helperEv
 0000:FFFFFFFF __ZN4QMapIiP7QActionE4takeERKi  __ZN4QMapIiP7QActionE4takeERKi
 0000:FFFFFFFF __ZN4QMapIiP7QActionE6removeERKi  __ZN4QMapIiP7QActionE6removeERKi
 0000:FFFFFFFF __ZN4QMapIiP7QActionED1Ev  __ZN4QMapIiP7QActionED1Ev
 0000:FFFFFFFF __ZN4QMapIiP7QWidgetE13detach_helperEv  __ZN4QMapIiP7QWidgetE13detach_helperEv
 0000:FFFFFFFF __ZN4QMapIiP7QWidgetE5eraseENS2_8iteratorE  __ZN4QMapIiP7QWidgetE5eraseENS2_8iteratorE
 0000:FFFFFFFF __ZN4QMapIiP7QWidgetED2Ev  __ZN4QMapIiP7QWidgetED2Ev
 0000:FFFFFFFF __ZN4QMapIiS_Ii9QMultiMapIiP26AdvancedDelegateLayoutItemEEE13detach_helperEv  __ZN4QMapIiS_Ii9QMultiMapIiP26AdvancedDelegateLayoutItemEEE13detach_helperEv
 0000:FFFFFFFF __ZN4QMapIiS_IiP10QBoxLayoutEE13detach_helperEv  __ZN4QMapIiS_IiP10QBoxLayoutEE13detach_helperEv
 0000:FFFFFFFF __ZN4QMapIj20AdvancedDelegateItemE13detach_helperEv  __ZN4QMapIj20AdvancedDelegateItemE13detach_helperEv
 0000:FFFFFFFF __ZN4QMapIj20AdvancedDelegateItemED1Ev  __ZN4QMapIj20AdvancedDelegateItemED1Ev
 0000:FFFFFFFF __ZN4QMapIN15XmppStanzaError14ErrorConditionE7QStringE13detach_helperEv  __ZN4QMapIN15XmppStanzaError14ErrorConditionE7QStringE13detach_helperEv
 0000:FFFFFFFF __ZN4QMapIN15XmppStanzaError14ErrorConditionENS0_9ErrorTypeEE13detach_helperEv  __ZN4QMapIN15XmppStanzaError14ErrorConditionENS0_9ErrorTypeEE13detach_helperEv
 0000:FFFFFFFF __ZN4QMapIN15XmppStanzaError9ErrorTypeE7QStringE13detach_helperEv  __ZN4QMapIN15XmppStanzaError9ErrorTypeE7QStringE13detach_helperEv
 0000:FFFFFFFF __ZN4QMapIN15XmppStreamError14ErrorConditionE7QStringE13detach_helperEv  __ZN4QMapIN15XmppStreamError14ErrorConditionE7QStringE13detach_helperEv
 0000:FFFFFFFF __ZN4QMapIP17QxtGlobalShortcut7QStringE13detach_helperEv  __ZN4QMapIP17QxtGlobalShortcut7QStringE13detach_helperEv
 0000:FFFFFFFF __ZN4QMapIP17QxtGlobalShortcut7QStringE6removeERKS1_  __ZN4QMapIP17QxtGlobalShortcut7QStringE6removeERKS1_
 0000:FFFFFFFF __ZN4QMapIP6ActionP11QToolButtonE13detach_helperEv  __ZN4QMapIP6ActionP11QToolButtonE13detach_helperEv
 0000:FFFFFFFF __ZN4QMapIP6ActionP11QToolButtonE5eraseENS4_8iteratorE  __ZN4QMapIP6ActionP11QToolButtonE5eraseENS4_8iteratorE
 0000:FFFFFFFF __ZN4QMapIP6ActionP11QToolButtonED1Ev  __ZN4QMapIP6ActionP11QToolButtonED1Ev
 0000:FFFFFFFF __ZN4QMapIP7QObject7QStringE13detach_helperEv  __ZN4QMapIP7QObject7QStringE13detach_helperEv
 0000:FFFFFFFF __ZN4QMapIP7QObject7QStringE6removeERKS1_  __ZN4QMapIP7QObject7QStringE6removeERKS1_
 0000:FFFFFFFF __ZN4QMapIP7QWidgetP7QActionE13detach_helperEv  __ZN4QMapIP7QWidgetP7QActionE13detach_helperEv
 0000:FFFFFFFF __ZN4QMapIP7QWidgetP7QActionE4takeERKS1_  __ZN4QMapIP7QWidgetP7QActionE4takeERKS1_
 0000:FFFFFFFF __ZN4QMapIP7QWidgetP7QActionED1Ev  __ZN4QMapIP7QWidgetP7QActionED1Ev
 0000:FFFFFFFF __ZN4QMapIP9QShortcut7QStringE13detach_helperEv  __ZN4QMapIP9QShortcut7QStringE13detach_helperEv
 0000:FFFFFFFF __ZN4QMapIP9QShortcut7QStringE4takeERKS1_  __ZN4QMapIP9QShortcut7QStringE4takeERKS1_
 0000:FFFFFFFF __ZN4QMapIP9QShortcut7QStringE6removeERKS1_  __ZN4QMapIP9QShortcut7QStringE6removeERKS1_
 0000:FFFFFFFF __ZN4QMapIP9QShortcutP7QWidgetE13detach_helperEv  __ZN4QMapIP9QShortcutP7QWidgetE13detach_helperEv
 0000:FFFFFFFF __ZN4QMapIP9QShortcutP7QWidgetE6removeERKS1_  __ZN4QMapIP9QShortcutP7QWidgetE6removeERKS1_
 0000:FFFFFFFF __ZN5QHashI4QUrlP6QMovieE11deleteNode2EPN9QHashData4NodeE  __ZN5QHashI4QUrlP6QMovieE11deleteNode2EPN9QHashData4NodeE
 0000:FFFFFFFF __ZN5QHashI4QUrlP6QMovieE13detach_helperEv  __ZN5QHashI4QUrlP6QMovieE13detach_helperEv
 0000:FFFFFFFF __ZN5QHashI4QUrlP6QMovieE13duplicateNodeEPN9QHashData4NodeEPv  __ZN5QHashI4QUrlP6QMovieE13duplicateNodeEPN9QHashData4NodeEPv
 0000:FFFFFFFF __ZN5QHashI4QUrlP6QMovieE6removeERKS0_  __ZN5QHashI4QUrlP6QMovieE6removeERKS0_
 0000:FFFFFFFF __ZN5QHashI4QUrlP6QMovieED1Ev  __ZN5QHashI4QUrlP6QMovieED1Ev
 0000:FFFFFFFF __ZN5QHashI7QString10OptionItemE11deleteNode2EPN9QHashData4NodeE  __ZN5QHashI7QString10OptionItemE11deleteNode2EPN9QHashData4NodeE
 0000:FFFFFFFF __ZN5QHashI7QString10OptionItemE13detach_helperEv  __ZN5QHashI7QString10OptionItemE13detach_helperEv
 0000:FFFFFFFF __ZN5QHashI7QString10OptionItemE13duplicateNodeEPN9QHashData4NodeEPv  __ZN5QHashI7QString10OptionItemE13duplicateNodeEPN9QHashData4NodeEPv
 0000:FFFFFFFF __ZN5QHashI7QString15QHashDummyValueE11deleteNode2EPN9QHashData4NodeE  __ZN5QHashI7QString15QHashDummyValueE11deleteNode2EPN9QHashData4NodeE
 0000:FFFFFFFF __ZN5QHashI7QString15QHashDummyValueE13detach_helperEv  __ZN5QHashI7QString15QHashDummyValueE13detach_helperEv
 0000:FFFFFFFF __ZN5QHashI7QString15QHashDummyValueE13duplicateNodeEPN9QHashData4NodeEPv  __ZN5QHashI7QString15QHashDummyValueE13duplicateNodeEPN9QHashData4NodeEPv
 0000:FFFFFFFF __ZN5QHashI7QString15QHashDummyValueE6removeERKS0_  __ZN5QHashI7QString15QHashDummyValueE6removeERKS0_
 0000:FFFFFFFF __ZN5QHashI7QString15QHashDummyValueED1Ev  __ZN5QHashI7QString15QHashDummyValueED1Ev
 0000:FFFFFFFF __ZN5QHashI7QString3JidE11deleteNode2EPN9QHashData4NodeE  __ZN5QHashI7QString3JidE11deleteNode2EPN9QHashData4NodeE
 0000:FFFFFFFF __ZN5QHashI7QString3JidE13detach_helperEv  __ZN5QHashI7QString3JidE13detach_helperEv
 0000:FFFFFFFF __ZN5QHashI7QString3JidE13duplicateNodeEPN9QHashData4NodeEPv  __ZN5QHashI7QString3JidE13duplicateNodeEPN9QHashData4NodeEPv
 0000:FFFFFFFF __ZN5QHashI7QString5QIconE11deleteNode2EPN9QHashData4NodeE  __ZN5QHashI7QString5QIconE11deleteNode2EPN9QHashData4NodeE
 0000:FFFFFFFF __ZN5QHashI7QString5QIconE13detach_helperEv  __ZN5QHashI7QString5QIconE13detach_helperEv
 0000:FFFFFFFF __ZN5QHashI7QString5QIconE13duplicateNodeEPN9QHashData4NodeEPv  __ZN5QHashI7QString5QIconE13duplicateNodeEPN9QHashData4NodeEPv
 0000:FFFFFFFF __ZN5QHashI7QString5QIconED1Ev  __ZN5QHashI7QString5QIconED1Ev
 0000:FFFFFFFF __ZN5QHashI7QString5QListIN11IconStorage16IconAnimateFrameEEE11deleteNode2EPN9QHashData4NodeE  __ZN5QHashI7QString5QListIN11IconStorage16IconAnimateFrameEEE11deleteNode2EPN9QHashData4NodeE
 0000:FFFFFFFF __ZN5QHashI7QString5QListIN11IconStorage16IconAnimateFrameEEE13detach_helperEv  __ZN5QHashI7QString5QListIN11IconStorage16IconAnimateFrameEEE13detach_helperEv
 0000:FFFFFFFF __ZN5QHashI7QString5QListIN11IconStorage16IconAnimateFrameEEE13duplicateNodeEPN9QHashData4NodeEPv  __ZN5QHashI7QString5QListIN11IconStorage16IconAnimateFrameEEE13duplicateNodeEPN9QHashData4NodeEPv
 0000:FFFFFFFF __ZN5QHashI7QString5QListIN11IconStorage16IconAnimateFrameEEED1Ev  __ZN5QHashI7QString5QListIN11IconStorage16IconAnimateFrameEEED1Ev
 0000:FFFFFFFF __ZN5QHashI7QString5QPairIS0_iEE11deleteNode2EPN9QHashData4NodeE  __ZN5QHashI7QString5QPairIS0_iEE11deleteNode2EPN9QHashData4NodeE
 0000:FFFFFFFF __ZN5QHashI7QString5QPairIS0_iEE13detach_helperEv  __ZN5QHashI7QString5QPairIS0_iEE13detach_helperEv
 0000:FFFFFFFF __ZN5QHashI7QString5QPairIS0_iEE13duplicateNodeEPN9QHashData4NodeEPv  __ZN5QHashI7QString5QPairIS0_iEE13duplicateNodeEPN9QHashData4NodeEPv
 0000:FFFFFFFF __ZN5QHashI7QString8QVariantE11deleteNode2EPN9QHashData4NodeE  __ZN5QHashI7QString8QVariantE11deleteNode2EPN9QHashData4NodeE
 0000:FFFFFFFF __ZN5QHashI7QString8QVariantE13detach_helperEv  __ZN5QHashI7QString8QVariantE13detach_helperEv
 0000:FFFFFFFF __ZN5QHashI7QString8QVariantE13duplicateNodeEPN9QHashData4NodeEPv  __ZN5QHashI7QString8QVariantE13duplicateNodeEPN9QHashData4NodeEPv
 0000:FFFFFFFF __ZN5QHashI7QString8QVariantED1Ev  __ZN5QHashI7QString8QVariantED1Ev
 0000:FFFFFFFF __ZN5QHashI7QStringjE11deleteNode2EPN9QHashData4NodeE  __ZN5QHashI7QStringjE11deleteNode2EPN9QHashData4NodeE
 0000:FFFFFFFF __ZN5QHashI7QStringjE13detach_helperEv  __ZN5QHashI7QStringjE13detach_helperEv
 0000:FFFFFFFF __ZN5QHashI7QStringjE13duplicateNodeEPN9QHashData4NodeEPv  __ZN5QHashI7QStringjE13duplicateNodeEPN9QHashData4NodeEPv
 0000:FFFFFFFF __ZN5QHashI7QStringjED1Ev  __ZN5QHashI7QStringjED1Ev
 0000:FFFFFFFF __ZN5QHashI7QStringN9Shortcuts10DescriptorEE11deleteNode2EPN9QHashData4NodeE  __ZN5QHashI7QStringN9Shortcuts10DescriptorEE11deleteNode2EPN9QHashData4NodeE
 0000:FFFFFFFF __ZN5QHashI7QStringN9Shortcuts10DescriptorEE13detach_helperEv  __ZN5QHashI7QStringN9Shortcuts10DescriptorEE13detach_helperEv
 0000:FFFFFFFF __ZN5QHashI7QStringN9Shortcuts10DescriptorEE13duplicateNodeEPN9QHashData4NodeEPv  __ZN5QHashI7QStringN9Shortcuts10DescriptorEE13duplicateNodeEPN9QHashData4NodeEPv
 0000:FFFFFFFF __ZN5QHashI7QStringP11FileStorageE11deleteNode2EPN9QHashData4NodeE  __ZN5QHashI7QStringP11FileStorageE11deleteNode2EPN9QHashData4NodeE
 0000:FFFFFFFF __ZN5QHashI7QStringP11FileStorageE13detach_helperEv  __ZN5QHashI7QStringP11FileStorageE13detach_helperEv
 0000:FFFFFFFF __ZN5QHashI7QStringP11FileStorageE13duplicateNodeEPN9QHashData4NodeEPv  __ZN5QHashI7QStringP11FileStorageE13duplicateNodeEPN9QHashData4NodeEPv
 0000:FFFFFFFF __ZN5QHashI7QStringP11IconStorageE11deleteNode2EPN9QHashData4NodeE  __ZN5QHashI7QStringP11IconStorageE11deleteNode2EPN9QHashData4NodeE
 0000:FFFFFFFF __ZN5QHashI7QStringP11IconStorageE13detach_helperEv  __ZN5QHashI7QStringP11IconStorageE13detach_helperEv
 0000:FFFFFFFF __ZN5QHashI7QStringP11IconStorageE13duplicateNodeEPN9QHashData4NodeEPv  __ZN5QHashI7QStringP11IconStorageE13duplicateNodeEPN9QHashData4NodeEPv
 0000:FFFFFFFF __ZN5QHashI7QStringP11IconStorageED1Ev  __ZN5QHashI7QStringP11IconStorageED1Ev
 0000:FFFFFFFF __ZN5QHashI7QStringPN13UnzipFileData10ZippedFileEE11deleteNode2EPN9QHashData4NodeE  __ZN5QHashI7QStringPN13UnzipFileData10ZippedFileEE11deleteNode2EPN9QHashData4NodeE
 0000:FFFFFFFF __ZN5QHashI7QStringPN13UnzipFileData10ZippedFileEE13detach_helperEv  __ZN5QHashI7QStringPN13UnzipFileData10ZippedFileEE13detach_helperEv
 0000:FFFFFFFF __ZN5QHashI7QStringPN13UnzipFileData10ZippedFileEE13duplicateNodeEPN9QHashData4NodeEPv  __ZN5QHashI7QStringPN13UnzipFileData10ZippedFileEE13duplicateNodeEPN9QHashData4NodeEPv
 0000:FFFFFFFF __ZN5QHashI7QStringPN13UnzipFileData10ZippedFileEED1Ev  __ZN5QHashI7QStringPN13UnzipFileData10ZippedFileEED1Ev
 0000:FFFFFFFF __ZN5QHashI7QStringS0_E11deleteNode2EPN9QHashData4NodeE  __ZN5QHashI7QStringS0_E11deleteNode2EPN9QHashData4NodeE
 0000:FFFFFFFF __ZN5QHashI7QStringS0_E13detach_helperEv  __ZN5QHashI7QStringS0_E13detach_helperEv
 0000:FFFFFFFF __ZN5QHashI7QStringS0_E13duplicateNodeEPN9QHashData4NodeEPv  __ZN5QHashI7QStringS0_E13duplicateNodeEPN9QHashData4NodeEPv
 0000:FFFFFFFF __ZN5QHashI7QStringS0_ED1Ev  __ZN5QHashI7QStringS0_ED1Ev
 0000:FFFFFFFF __ZN5QHashI7QStringS_IS0_5QIconEE11deleteNode2EPN9QHashData4NodeE  __ZN5QHashI7QStringS_IS0_5QIconEE11deleteNode2EPN9QHashData4NodeE
 0000:FFFFFFFF __ZN5QHashI7QStringS_IS0_5QIconEE13detach_helperEv  __ZN5QHashI7QStringS_IS0_5QIconEE13detach_helperEv
 0000:FFFFFFFF __ZN5QHashI7QStringS_IS0_5QIconEE13duplicateNodeEPN9QHashData4NodeEPv  __ZN5QHashI7QStringS_IS0_5QIconEE13duplicateNodeEPN9QHashData4NodeEPv
 0000:FFFFFFFF __ZN5QHashI7QStringS_IS0_5QIconEED1Ev  __ZN5QHashI7QStringS_IS0_5QIconEED1Ev
 0000:FFFFFFFF __ZN5QHashI7QStringS_IS0_5QListIN11IconStorage16IconAnimateFrameEEEE11deleteNode2EPN9QHashData4NodeE  __ZN5QHashI7QStringS_IS0_5QListIN11IconStorage16IconAnimateFrameEEEE11deleteNode2EPN9QHashData4NodeE
 0000:FFFFFFFF __ZN5QHashI7QStringS_IS0_5QListIN11IconStorage16IconAnimateFrameEEEE13detach_helperEv  __ZN5QHashI7QStringS_IS0_5QListIN11IconStorage16IconAnimateFrameEEEE13detach_helperEv
 0000:FFFFFFFF __ZN5QHashI7QStringS_IS0_5QListIN11IconStorage16IconAnimateFrameEEEE13duplicateNodeEPN9QHashData4NodeEPv  __ZN5QHashI7QStringS_IS0_5QListIN11IconStorage16IconAnimateFrameEEEE13duplicateNodeEPN9QHashData4NodeEPv
 0000:FFFFFFFF __ZN5QHashI7QStringS_IS0_5QListIN11IconStorage16IconAnimateFrameEEEED1Ev  __ZN5QHashI7QStringS_IS0_5QListIN11IconStorage16IconAnimateFrameEEEED1Ev
 0000:FFFFFFFF __ZN5QHashI7QStringS_IS0_P11IconStorageEE11deleteNode2EPN9QHashData4NodeE  __ZN5QHashI7QStringS_IS0_P11IconStorageEE11deleteNode2EPN9QHashData4NodeE
 0000:FFFFFFFF __ZN5QHashI7QStringS_IS0_P11IconStorageEE13detach_helperEv  __ZN5QHashI7QStringS_IS0_P11IconStorageEE13detach_helperEv
 0000:FFFFFFFF __ZN5QHashI7QStringS_IS0_P11IconStorageEE13duplicateNodeEPN9QHashData4NodeEPv  __ZN5QHashI7QStringS_IS0_P11IconStorageEE13duplicateNodeEPN9QHashData4NodeEPv
 0000:FFFFFFFF __ZN5QHashI7QStringS_IS0_P11IconStorageEED1Ev  __ZN5QHashI7QStringS_IS0_P11IconStorageEED1Ev
 0000:FFFFFFFF __ZN5QHashIi8QVariantE11deleteNode2EPN9QHashData4NodeE  __ZN5QHashIi8QVariantE11deleteNode2EPN9QHashData4NodeE
 0000:FFFFFFFF __ZN5QHashIi8QVariantE13detach_helperEv  __ZN5QHashIi8QVariantE13detach_helperEv
 0000:FFFFFFFF __ZN5QHashIi8QVariantE13duplicateNodeEPN9QHashData4NodeEPv  __ZN5QHashIi8QVariantE13duplicateNodeEPN9QHashData4NodeEPv
 0000:FFFFFFFF __ZN5QHashIi8QVariantE6removeERKi  __ZN5QHashIi8QVariantE6removeERKi
 0000:FFFFFFFF __ZN5QHashIi8QVariantED1Ev  __ZN5QHashIi8QVariantED1Ev
 0000:FFFFFFFF __ZN5QHashIP6QMovie15QHashDummyValueE11deleteNode2EPN9QHashData4NodeE  __ZN5QHashIP6QMovie15QHashDummyValueE11deleteNode2EPN9QHashData4NodeE
 0000:FFFFFFFF __ZN5QHashIP6QMovie15QHashDummyValueE13detach_helperEv  __ZN5QHashIP6QMovie15QHashDummyValueE13detach_helperEv
 0000:FFFFFFFF __ZN5QHashIP6QMovie15QHashDummyValueE13duplicateNodeEPN9QHashData4NodeEPv  __ZN5QHashIP6QMovie15QHashDummyValueE13duplicateNodeEPN9QHashData4NodeEPv
 0000:FFFFFFFF __ZN5QHashIP6QMovie15QHashDummyValueE6removeERKS1_  __ZN5QHashIP6QMovie15QHashDummyValueE6removeERKS1_
 0000:FFFFFFFF __ZN5QHashIP6QMovie15QHashDummyValueED1Ev  __ZN5QHashIP6QMovie15QHashDummyValueED1Ev
 0000:FFFFFFFF __ZN5QHashIP6QMovie4QUrlE11deleteNode2EPN9QHashData4NodeE  __ZN5QHashIP6QMovie4QUrlE11deleteNode2EPN9QHashData4NodeE
 0000:FFFFFFFF __ZN5QHashIP6QMovie4QUrlE13detach_helperEv  __ZN5QHashIP6QMovie4QUrlE13detach_helperEv
 0000:FFFFFFFF __ZN5QHashIP6QMovie4QUrlE13duplicateNodeEPN9QHashData4NodeEPv  __ZN5QHashIP6QMovie4QUrlE13duplicateNodeEPN9QHashData4NodeEPv
 0000:FFFFFFFF __ZN5QHashIP6QMovie4QUrlE4takeERKS1_  __ZN5QHashIP6QMovie4QUrlE4takeERKS1_
 0000:FFFFFFFF __ZN5QHashIP6QMovie4QUrlED1Ev  __ZN5QHashIP6QMovie4QUrlED1Ev
 0000:FFFFFFFF __ZN5QHashIP6QMovie5QListIiEE11deleteNode2EPN9QHashData4NodeE  __ZN5QHashIP6QMovie5QListIiEE11deleteNode2EPN9QHashData4NodeE
 0000:FFFFFFFF __ZN5QHashIP6QMovie5QListIiEE13detach_helperEv  __ZN5QHashIP6QMovie5QListIiEE13detach_helperEv
 0000:FFFFFFFF __ZN5QHashIP6QMovie5QListIiEE13duplicateNodeEPN9QHashData4NodeEPv  __ZN5QHashIP6QMovie5QListIiEE13duplicateNodeEPN9QHashData4NodeEPv
 0000:FFFFFFFF __ZN5QHashIP6QMovie5QListIiEE6removeERKS1_  __ZN5QHashIP6QMovie5QListIiEE6removeERKS1_
 0000:FFFFFFFF __ZN5QHashIP6QMovie5QListIiEED1Ev  __ZN5QHashIP6QMovie5QListIiEED1Ev
 0000:FFFFFFFF __ZN5QHashIP6QTimerP7QObjectE11deleteNode2EPN9QHashData4NodeE  __ZN5QHashIP6QTimerP7QObjectE11deleteNode2EPN9QHashData4NodeE
 0000:FFFFFFFF __ZN5QHashIP6QTimerP7QObjectE13detach_helperEv  __ZN5QHashIP6QTimerP7QObjectE13detach_helperEv
 0000:FFFFFFFF __ZN5QHashIP6QTimerP7QObjectE13duplicateNodeEPN9QHashData4NodeEPv  __ZN5QHashIP6QTimerP7QObjectE13duplicateNodeEPN9QHashData4NodeEPv
 0000:FFFFFFFF __ZN5QHashIP6QTimerP7QObjectE6removeERKS1_  __ZN5QHashIP6QTimerP7QObjectE6removeERKS1_
 0000:FFFFFFFF __ZN5QHashIP6QTimerP7QObjectED1Ev  __ZN5QHashIP6QTimerP7QObjectED1Ev
 0000:FFFFFFFF __ZN5QHashIP7QObjectP11IconStorageE11deleteNode2EPN9QHashData4NodeE  __ZN5QHashIP7QObjectP11IconStorageE11deleteNode2EPN9QHashData4NodeE
 0000:FFFFFFFF __ZN5QHashIP7QObjectP11IconStorageE13detach_helperEv  __ZN5QHashIP7QObjectP11IconStorageE13detach_helperEv
 0000:FFFFFFFF __ZN5QHashIP7QObjectP11IconStorageE13duplicateNodeEPN9QHashData4NodeEPv  __ZN5QHashIP7QObjectP11IconStorageE13duplicateNodeEPN9QHashData4NodeEPv
 0000:FFFFFFFF __ZN5QHashIP7QObjectP11IconStorageE6removeERKS1_  __ZN5QHashIP7QObjectP11IconStorageE6removeERKS1_
 0000:FFFFFFFF __ZN5QHashIP7QObjectPN11IconStorage16IconUpdateParamsEE11deleteNode2EPN9QHashData4NodeE  __ZN5QHashIP7QObjectPN11IconStorage16IconUpdateParamsEE11deleteNode2EPN9QHashData4NodeE
 0000:FFFFFFFF __ZN5QHashIP7QObjectPN11IconStorage16IconUpdateParamsEE13detach_helperEv  __ZN5QHashIP7QObjectPN11IconStorage16IconUpdateParamsEE13detach_helperEv
 0000:FFFFFFFF __ZN5QHashIP7QObjectPN11IconStorage16IconUpdateParamsEE13duplicateNodeEPN9QHashData4NodeEPv  __ZN5QHashIP7QObjectPN11IconStorage16IconUpdateParamsEE13duplicateNodeEPN9QHashData4NodeEPv
 0000:FFFFFFFF __ZN5QHashIP7QObjectPN11IconStorage16IconUpdateParamsEE4takeERKS1_  __ZN5QHashIP7QObjectPN11IconStorage16IconUpdateParamsEE4takeERKS1_
 0000:FFFFFFFF __ZN5QHashIP7QObjectPN11IconStorage16IconUpdateParamsEED1Ev  __ZN5QHashIP7QObjectPN11IconStorage16IconUpdateParamsEED1Ev
 0000:FFFFFFFF __ZN5QListI10QByteArrayE13detach_helperEi  __ZN5QListI10QByteArrayE13detach_helperEi
 0000:FFFFFFFF __ZN5QListI10QByteArrayE13detach_helperEv  __ZN5QListI10QByteArrayE13detach_helperEv
 0000:FFFFFFFF __ZN5QListI10QByteArrayE18detach_helper_growEii  __ZN5QListI10QByteArrayE18detach_helper_growEii
 0000:FFFFFFFF __ZN5QListI10QByteArrayE5clearEv  __ZN5QListI10QByteArrayE5clearEv
 0000:FFFFFFFF __ZN5QListI10QByteArrayE6appendERKS0_  __ZN5QListI10QByteArrayE6appendERKS0_
 0000:FFFFFFFF __ZN5QListI10QByteArrayED1Ev  __ZN5QListI10QByteArrayED1Ev
 0000:FFFFFFFF __ZN5QListI5QCharE13detach_helperEi  __ZN5QListI5QCharE13detach_helperEi
 0000:FFFFFFFF __ZN5QListI5QCharE13detach_helperEv  __ZN5QListI5QCharE13detach_helperEv
 0000:FFFFFFFF __ZN5QListI5QCharE18detach_helper_growEii  __ZN5QListI5QCharE18detach_helper_growEii
 0000:FFFFFFFF __ZN5QListI5QCharE6appendERKS0_  __ZN5QListI5QCharE6appendERKS0_
 0000:FFFFFFFF __ZN5QListI5QCharED1Ev  __ZN5QListI5QCharED1Ev
 0000:FFFFFFFF __ZN5QListI5QSizeED1Ev  __ZN5QListI5QSizeED1Ev
 0000:FFFFFFFF __ZN5QListI7QStringE13detach_helperEi  __ZN5QListI7QStringE13detach_helperEi
 0000:FFFFFFFF __ZN5QListI7QStringE13detach_helperEv  __ZN5QListI7QStringE13detach_helperEv
 0000:FFFFFFFF __ZN5QListI7QStringE18detach_helper_growEii  __ZN5QListI7QStringE18detach_helper_growEii
 0000:FFFFFFFF __ZN5QListI7QStringE5clearEv  __ZN5QListI7QStringE5clearEv
 0000:FFFFFFFF __ZN5QListI7QStringE6appendERKS0_  __ZN5QListI7QStringE6appendERKS0_
 0000:FFFFFFFF __ZN5QListI7QStringE7reserveEi  __ZN5QListI7QStringE7reserveEi
 0000:FFFFFFFF __ZN5QListI7QStringE9removeAllERKS0_  __ZN5QListI7QStringE9removeAllERKS0_
 0000:FFFFFFFF __ZN5QListI7QStringED1Ev  __ZN5QListI7QStringED1Ev
 0000:FFFFFFFF __ZN5QListI7QStringED2Ev  __ZN5QListI7QStringED2Ev
 0000:FFFFFFFF __ZN5QListI7QStringEpLERKS1_  __ZN5QListI7QStringEpLERKS1_
 0000:FFFFFFFF __ZN5QListI8QVariantE18detach_helper_growEii  __ZN5QListI8QVariantE18detach_helper_growEii
 0000:FFFFFFFF __ZN5QListI8QVariantE6appendERKS0_  __ZN5QListI8QVariantE6appendERKS0_
 0000:FFFFFFFF __ZN5QListI8QVariantED1Ev  __ZN5QListI8QVariantED1Ev
 0000:FFFFFFFF __ZN5QListIiE13detach_helperEi  __ZN5QListIiE13detach_helperEi
 0000:FFFFFFFF __ZN5QListIiE13detach_helperEv  __ZN5QListIiE13detach_helperEv
 0000:FFFFFFFF __ZN5QListIiE18detach_helper_growEii  __ZN5QListIiE18detach_helper_growEii
 0000:FFFFFFFF __ZN5QListIiE6appendERKi  __ZN5QListIiE6appendERKi
 0000:FFFFFFFF __ZN5QListIiE7reserveEi  __ZN5QListIiE7reserveEi
 0000:FFFFFFFF      __ZN5QListIiED1Ev  __ZN5QListIiED1Ev
 0000:FFFFFFFF __ZN5QListIN11FileStorage13StorageObjectEE13detach_helperEi  __ZN5QListIN11FileStorage13StorageObjectEE13detach_helperEi
 0000:FFFFFFFF __ZN5QListIN11FileStorage13StorageObjectEE13detach_helperEv  __ZN5QListIN11FileStorage13StorageObjectEE13detach_helperEv
 0000:FFFFFFFF __ZN5QListIN11FileStorage13StorageObjectEE18detach_helper_growEii  __ZN5QListIN11FileStorage13StorageObjectEE18detach_helper_growEii
 0000:FFFFFFFF __ZN5QListIN11FileStorage13StorageObjectEE5clearEv  __ZN5QListIN11FileStorage13StorageObjectEE5clearEv
 0000:FFFFFFFF __ZN5QListIN11FileStorage13StorageObjectEE6appendERKS1_  __ZN5QListIN11FileStorage13StorageObjectEE6appendERKS1_
 0000:FFFFFFFF __ZN5QListIN11FileStorage13StorageObjectEED1Ev  __ZN5QListIN11FileStorage13StorageObjectEED1Ev
 0000:FFFFFFFF __ZN5QListIN11IconStorage16IconAnimateFrameEE13detach_helperEi  __ZN5QListIN11IconStorage16IconAnimateFrameEE13detach_helperEi
 0000:FFFFFFFF __ZN5QListIN11IconStorage16IconAnimateFrameEE13detach_helperEv  __ZN5QListIN11IconStorage16IconAnimateFrameEE13detach_helperEv
 0000:FFFFFFFF __ZN5QListIN11IconStorage16IconAnimateFrameEE18detach_helper_growEii  __ZN5QListIN11IconStorage16IconAnimateFrameEE18detach_helper_growEii
 0000:FFFFFFFF __ZN5QListIN11IconStorage16IconAnimateFrameEE6appendERKS1_  __ZN5QListIN11IconStorage16IconAnimateFrameEE6appendERKS1_
 0000:FFFFFFFF __ZN5QListIN11IconStorage16IconAnimateFrameEED1Ev  __ZN5QListIN11IconStorage16IconAnimateFrameEED1Ev
 0000:FFFFFFFF __ZN5QListIP11FileStorageE13detach_helperEi  __ZN5QListIP11FileStorageE13detach_helperEi
 0000:FFFFFFFF __ZN5QListIP11FileStorageE13detach_helperEv  __ZN5QListIP11FileStorageE13detach_helperEv
 0000:FFFFFFFF __ZN5QListIP11FileStorageE18detach_helper_growEii  __ZN5QListIP11FileStorageE18detach_helper_growEii
 0000:FFFFFFFF __ZN5QListIP11FileStorageE6appendERKS1_  __ZN5QListIP11FileStorageE6appendERKS1_
 0000:FFFFFFFF __ZN5QListIP11FileStorageE9removeAllERKS1_  __ZN5QListIP11FileStorageE9removeAllERKS1_
 0000:FFFFFFFF __ZN5QListIP11FileStorageED1Ev  __ZN5QListIP11FileStorageED1Ev
 0000:FFFFFFFF __ZN5QListIP17QxtGlobalShortcutE13detach_helperEi  __ZN5QListIP17QxtGlobalShortcutE13detach_helperEi
 0000:FFFFFFFF __ZN5QListIP17QxtGlobalShortcutE13detach_helperEv  __ZN5QListIP17QxtGlobalShortcutE13detach_helperEv
 0000:FFFFFFFF __ZN5QListIP17QxtGlobalShortcutE18detach_helper_growEii  __ZN5QListIP17QxtGlobalShortcutE18detach_helper_growEii
 0000:FFFFFFFF __ZN5QListIP17QxtGlobalShortcutE6appendERKS1_  __ZN5QListIP17QxtGlobalShortcutE6appendERKS1_
 0000:FFFFFFFF __ZN5QListIP17QxtGlobalShortcutED1Ev  __ZN5QListIP17QxtGlobalShortcutED1Ev
 0000:FFFFFFFF __ZN5QListIP4MenuE13detach_helperEi  __ZN5QListIP4MenuE13detach_helperEi
 0000:FFFFFFFF __ZN5QListIP4MenuE13detach_helperEv  __ZN5QListIP4MenuE13detach_helperEv
 0000:FFFFFFFF __ZN5QListIP4MenuE18detach_helper_growEii  __ZN5QListIP4MenuE18detach_helper_growEii
 0000:FFFFFFFF __ZN5QListIP4MenuE6appendERKS1_  __ZN5QListIP4MenuE6appendERKS1_
 0000:FFFFFFFF __ZN5QListIP4MenuE7reserveEi  __ZN5QListIP4MenuE7reserveEi
 0000:FFFFFFFF __ZN5QListIP4MenuED1Ev  __ZN5QListIP4MenuED1Ev
 0000:FFFFFFFF __ZN5QListIP6ActionE13detach_helperEi  __ZN5QListIP6ActionE13detach_helperEi
 0000:FFFFFFFF __ZN5QListIP6ActionE13detach_helperEv  __ZN5QListIP6ActionE13detach_helperEv
 0000:FFFFFFFF __ZN5QListIP6ActionE18detach_helper_growEii  __ZN5QListIP6ActionE18detach_helper_growEii
 0000:FFFFFFFF __ZN5QListIP6ActionE6appendERKS1_  __ZN5QListIP6ActionE6appendERKS1_
 0000:FFFFFFFF __ZN5QListIP6ActionE7reserveEi  __ZN5QListIP6ActionE7reserveEi
 0000:FFFFFFFF __ZN5QListIP6ActionED1Ev  __ZN5QListIP6ActionED1Ev
 0000:FFFFFFFF __ZN5QListIP6ActionEpLERKS2_  __ZN5QListIP6ActionEpLERKS2_
 0000:FFFFFFFF __ZN5QListIP6QMovieE13detach_helperEi  __ZN5QListIP6QMovieE13detach_helperEi
 0000:FFFFFFFF __ZN5QListIP6QMovieE13detach_helperEv  __ZN5QListIP6QMovieE13detach_helperEv
 0000:FFFFFFFF __ZN5QListIP6QMovieE18detach_helper_growEii  __ZN5QListIP6QMovieE18detach_helper_growEii
 0000:FFFFFFFF __ZN5QListIP6QMovieE6appendERKS1_  __ZN5QListIP6QMovieE6appendERKS1_
 0000:FFFFFFFF __ZN5QListIP6QMovieE7reserveEi  __ZN5QListIP6QMovieE7reserveEi
 0000:FFFFFFFF __ZN5QListIP6QMovieED1Ev  __ZN5QListIP6QMovieED1Ev
 0000:FFFFFFFF __ZN5QListIP7QActionE13detach_helperEi  __ZN5QListIP7QActionE13detach_helperEi
 0000:FFFFFFFF __ZN5QListIP7QActionE13detach_helperEv  __ZN5QListIP7QActionE13detach_helperEv
 0000:FFFFFFFF __ZN5QListIP7QActionE18detach_helper_growEii  __ZN5QListIP7QActionE18detach_helper_growEii
 0000:FFFFFFFF __ZN5QListIP7QActionE6appendERKS1_  __ZN5QListIP7QActionE6appendERKS1_
 0000:FFFFFFFF __ZN5QListIP7QActionE7reserveEi  __ZN5QListIP7QActionE7reserveEi
 0000:FFFFFFFF __ZN5QListIP7QActionED1Ev  __ZN5QListIP7QActionED1Ev
 0000:FFFFFFFF __ZN5QListIP7QObjectE13detach_helperEi  __ZN5QListIP7QObjectE13detach_helperEi
 0000:FFFFFFFF __ZN5QListIP7QObjectE13detach_helperEv  __ZN5QListIP7QObjectE13detach_helperEv
 0000:FFFFFFFF __ZN5QListIP7QObjectE18detach_helper_growEii  __ZN5QListIP7QObjectE18detach_helper_growEii
 0000:FFFFFFFF __ZN5QListIP7QObjectE6appendERKS1_  __ZN5QListIP7QObjectE6appendERKS1_
 0000:FFFFFFFF __ZN5QListIP7QObjectE7reserveEi  __ZN5QListIP7QObjectE7reserveEi
 0000:FFFFFFFF __ZN5QListIP7QObjectED1Ev  __ZN5QListIP7QObjectED1Ev
 0000:FFFFFFFF __ZN5QListIP7QWidgetE13detach_helperEi  __ZN5QListIP7QWidgetE13detach_helperEi
 0000:FFFFFFFF __ZN5QListIP7QWidgetE13detach_helperEv  __ZN5QListIP7QWidgetE13detach_helperEv
 0000:FFFFFFFF __ZN5QListIP7QWidgetE18detach_helper_growEii  __ZN5QListIP7QWidgetE18detach_helper_growEii
 0000:FFFFFFFF __ZN5QListIP7QWidgetE6appendERKS1_  __ZN5QListIP7QWidgetE6appendERKS1_
 0000:FFFFFFFF __ZN5QListIP7QWidgetE7reserveEi  __ZN5QListIP7QWidgetE7reserveEi
 0000:FFFFFFFF __ZN5QListIP7QWidgetED1Ev  __ZN5QListIP7QWidgetED1Ev
 0000:FFFFFFFF __ZN5QListIP9QShortcutE13detach_helperEi  __ZN5QListIP9QShortcutE13detach_helperEi
 0000:FFFFFFFF __ZN5QListIP9QShortcutE13detach_helperEv  __ZN5QListIP9QShortcutE13detach_helperEv
 0000:FFFFFFFF __ZN5QListIP9QShortcutE18detach_helper_growEii  __ZN5QListIP9QShortcutE18detach_helper_growEii
 0000:FFFFFFFF __ZN5QListIP9QShortcutE6appendERKS1_  __ZN5QListIP9QShortcutE6appendERKS1_
 0000:FFFFFFFF __ZN5QListIP9QShortcutED1Ev  __ZN5QListIP9QShortcutED1Ev
 0001:0004D7E0 __ZN6Action11qt_metacallEN11QMetaObject4CallEiPPv  __ZN6Action11qt_metacallEN11QMetaObject4CallEiPPv
 0001:0004D730 __ZN6Action11qt_metacastEPKc  __ZN6Action11qt_metacastEPKc
 0001:00014F30 __ZN6Action13setShortcutIdERK7QString  __ZN6Action13setShortcutIdERK7QString
 0001:0004D7A0 __ZN6Action15actionDestroyedEPS_  __ZN6Action15actionDestroyedEPS_
 0001:000152E0 __ZN6Action15onMenuDestroyedEP4Menu  __ZN6Action15onMenuDestroyedEP4Menu
 0002:00018810 __ZN6Action16staticMetaObjectE  __ZN6Action16staticMetaObjectE
 0001:00014FA0 __ZN6Action18copyStandardActionEPS_P7QAction  __ZN6Action18copyStandardActionEPS_P7QAction
 0001:000155B0 __ZN6Action7setDataEiRK8QVariant  __ZN6Action7setDataEiRK8QVariant
 0001:000156C0 __ZN6Action7setDataERK5QHashIi8QVariantE  __ZN6Action7setDataERK5QHashIi8QVariantE
 0001:00014DD0 __ZN6Action7setIconERK5QIcon  __ZN6Action7setIconERK5QIcon
 0001:00014CF0 __ZN6Action7setIconERK7QStringS2_i  __ZN6Action7setIconERK7QStringS2_i
 0001:00014C60 __ZN6Action7setMenuEP4Menu  __ZN6Action7setMenuEP4Menu
 0001:00014BC0 __ZN6ActionC1EP7QObject  __ZN6ActionC1EP7QObject
 0001:00014BC0 __ZN6ActionC2EP7QObject  __ZN6ActionC2EP7QObject
 0001:00015400        __ZN6ActionD0Ev  __ZN6ActionD0Ev
 0001:00015330        __ZN6ActionD1Ev  __ZN6ActionD1Ev
 0001:00015330        __ZN6ActionD2Ev  __ZN6ActionD2Ev
 0001:000146C0 __ZN6Stanza10addElementERK7QStringS2_  __ZN6Stanza10addElementERK7QStringS2_
 0001:00014580 __ZN6Stanza10setTagNameERK7QString  __ZN6Stanza10setTagNameERK7QString
 0001:00013F00 __ZN6Stanza11findElementERK11QDomElementRK7QStringS5_  __ZN6Stanza11findElementERK11QDomElementRK7QStringS5_
 0001:000147A0 __ZN6Stanza12setAttributeERK7QStringS2_  __ZN6Stanza12setAttributeERK7QStringS2_
 0001:00014620 __ZN6Stanza13createElementERK7QStringS2_  __ZN6Stanza13createElementERK7QStringS2_
 0001:00014530 __ZN6Stanza14createTextNodeERK7QString  __ZN6Stanza14createTextNodeERK7QString
 0001:000149F0 __ZN6Stanza5setIdERK7QString  __ZN6Stanza5setIdERK7QString
 0001:00014970 __ZN6Stanza5setToERK7QString  __ZN6Stanza5setToERK7QString
 0001:000145F0   __ZN6Stanza6detachEv  __ZN6Stanza6detachEv
 0001:000148F0 __ZN6Stanza7setFromERK7QString  __ZN6Stanza7setFromERK7QString
 0001:00014870 __ZN6Stanza7setLangERK7QString  __ZN6Stanza7setLangERK7QString
 0001:00014A70 __ZN6Stanza7setTypeERK7QString  __ZN6Stanza7setTypeERK7QString
 0001:00014350 __ZN6StanzaC1ERK11QDomElement  __ZN6StanzaC1ERK11QDomElement
 0001:00014400 __ZN6StanzaC1ERK7QString  __ZN6StanzaC1ERK7QString
 0001:00014350 __ZN6StanzaC2ERK11QDomElement  __ZN6StanzaC2ERK11QDomElement
 0001:00014400 __ZN6StanzaC2ERK7QString  __ZN6StanzaC2ERK7QString
 0001:00013760        __ZN6StanzaD1Ev  __ZN6StanzaD1Ev
 0001:00013760        __ZN6StanzaD2Ev  __ZN6StanzaD2Ev
 0001:00000520    __ZN7JidDataC1ERKS_  __ZN7JidDataC1ERKS_
 0001:00000430       __ZN7JidDataC1Ev  __ZN7JidDataC1Ev
 0001:00000520    __ZN7JidDataC2ERKS_  __ZN7JidDataC2ERKS_
 0001:00000430       __ZN7JidDataC2Ev  __ZN7JidDataC2Ev
 0001:0001B600 __ZN7Message10setDefLangERK7QString  __ZN7Message10setDefLangERK7QString
 0001:0001C000 __ZN7Message10setSubjectERK7QStringS2_  __ZN7Message10setSubjectERK7QStringS2_
 0001:0001C100 __ZN7Message11setDateTimeERK9QDateTimeb  __ZN7Message11setDateTimeERK9QDateTimeb
 0001:0001B980 __ZN7Message11setThreadIdERK7QString  __ZN7Message11setThreadIdERK7QString
 0001:0001BC60 __ZN7Message14addChildByLangERK11QDomElementRK7QStringS5_S5_  __ZN7Message14addChildByLangERK11QDomElementRK7QStringS5_S5_
 0001:0001B6C0 __ZN7Message5setIdERK7QString  __ZN7Message5setIdERK7QString
 0001:0001B640 __ZN7Message5setToERK7QString  __ZN7Message5setToERK7QString
 0001:0001B730  __ZN7Message6detachEv  __ZN7Message6detachEv
 0001:0001B700  __ZN7Message6stanzaEv  __ZN7Message6stanzaEv
 0001:0001BF00 __ZN7Message7setBodyERK7QStringS2_  __ZN7Message7setBodyERK7QStringS2_
 0001:0001B790 __ZN7Message7setDataEiRK8QVariant  __ZN7Message7setDataEiRK8QVariant
 0001:0001B910 __ZN7Message7setDataERK5QHashIi8QVariantE  __ZN7Message7setDataERK5QHashIi8QVariantE
 0001:0001B680 __ZN7Message7setFromERK7QString  __ZN7Message7setFromERK7QString
 0001:0001C570 __ZN7Message7setTypeENS_11MessageTypeE  __ZN7Message7setTypeENS_11MessageTypeE
 0001:0001B580 __ZN7Message9setStanzaERK6Stanza  __ZN7Message9setStanzaERK6Stanza
 0001:0001AAF0 __ZN7MessageC1ERK6Stanza  __ZN7MessageC1ERK6Stanza
 0001:0001ABF0       __ZN7MessageC1Ev  __ZN7MessageC1Ev
 0001:0001AAF0 __ZN7MessageC2ERK6Stanza  __ZN7MessageC2ERK6Stanza
 0001:0001ABF0       __ZN7MessageC2Ev  __ZN7MessageC2Ev
 0001:000198A0       __ZN7MessageD1Ev  __ZN7MessageD1Ev
 0001:000198A0       __ZN7MessageD2Ev  __ZN7MessageD2Ev
 0001:00037770 __ZN7Options10exportNodeERK7QStringR11QDomElement  __ZN7Options10exportNodeERK7QStringR11QDomElement
 0001:00038680 __ZN7Options10importNodeERK7QStringRK11QDomElement  __ZN7Options10importNodeERK7QStringRK11QDomElement
 0001:00034390 __ZN7Options10setOptionsE12QDomDocumentRK7QStringRK10QByteArray  __ZN7Options10setOptionsE12QDomDocumentRK7QStringRK10QByteArray
 0001:0004F4B0 __ZN7Options11qt_metacallEN11QMetaObject4CallEiPPv  __ZN7Options11qt_metacallEN11QMetaObject4CallEiPPv
 0001:0004F2E0 __ZN7Options11qt_metacastEPKc  __ZN7Options11qt_metacastEPKc
 0001:00033E00 __ZN7Options12cleanNSpacesERK7QString  __ZN7Options12cleanNSpacesERK7QString
 0001:000359A0 __ZN7Options12defaultValueERK7QString  __ZN7Options12defaultValueERK7QString
 0001:00034200 __ZN7Options12setFileValueERK8QVariantRK7QStringS5_  __ZN7Options12setFileValueERK8QVariantRK7QStringS5_
 0001:0004F380 __ZN7Options13optionsClosedEv  __ZN7Options13optionsClosedEv
 0001:0004F350 __ZN7Options13optionsOpenedEv  __ZN7Options13optionsOpenedEv
 0001:0004F3F0 __ZN7Options14optionsChangedERK11OptionsNode  __ZN7Options14optionsChangedERK11OptionsNode
 0001:0004F3B0 __ZN7Options14optionsCreatedERK11OptionsNode  __ZN7Options14optionsCreatedERK11OptionsNode
 0001:0004F430 __ZN7Options14optionsRemovedERK11OptionsNode  __ZN7Options14optionsRemovedERK11OptionsNode
 0001:000389F0 __ZN7Options15setDefaultValueERK7QStringRK8QVariant  __ZN7Options15setDefaultValueERK7QStringRK8QVariant
 0002:00018E10 __ZN7Options16staticMetaObjectE  __ZN7Options16staticMetaObjectE
 0001:0004F470 __ZN7Options19defaultValueChangedERK7QStringRK8QVariant  __ZN7Options19defaultValueChangedERK7QStringRK8QVariant
 0002:0001B0B4        __ZN7Options1dE  __ZN7Options1dE
 0001:00033F80 __ZN7Options4nodeERK7QStringS2_  __ZN7Options4nodeERK7QStringS2_
 0001:00033DA0  __ZN7Options6isNullEv  __ZN7Options6isNullEv
 0001:00037C00 __ZN7Options7decryptERK10QByteArrayS2_  __ZN7Options7decryptERK10QByteArrayS2_
 0001:00034B70 __ZN7Options7encryptERK8QVariantRK10QByteArray  __ZN7Options7encryptERK8QVariantRK10QByteArray
 0001:00033EF0 __ZN7Options7hasNodeERK7QStringS2_  __ZN7Options7hasNodeERK7QStringS2_
 0001:00033DE0 __ZN7Options8cryptKeyEv  __ZN7Options8cryptKeyEv
 0001:00033150 __ZN7Options8instanceEv  __ZN7Options8instanceEv
 0001:00033DC0 __ZN7Options9filesPathEv  __ZN7Options9filesPathEv
 0001:00035A90 __ZN7Options9fileValueERK7QStringS2_  __ZN7Options9fileValueERK7QStringS2_
 0000:FFFFFFFF       __ZN7OptionsD0Ev  __ZN7OptionsD0Ev
 0000:FFFFFFFF       __ZN7OptionsD1Ev  __ZN7OptionsD1Ev
 0000:00000000       __ZN7QStringD1Ev  __ZN7QStringD1Ev
 0001:00022660 __ZN8DateTime10tzdFromX85ERK7QString  __ZN8DateTime10tzdFromX85ERK7QString
 0001:00023190 __ZN8DateTime11setDateTimeERK9QDateTime  __ZN8DateTime11setDateTimeERK9QDateTime
 0001:00023160 __ZN8DateTime11setTimeZoneEi  __ZN8DateTime11setTimeZoneEi
 0001:000228E0 __ZN8DateTime9dtFromX85ERK7QString  __ZN8DateTime9dtFromX85ERK7QString
 0001:00022F30 __ZN8DateTimeC1ERK7QString  __ZN8DateTimeC1ERK7QString
 0001:00022DB0 __ZN8DateTimeC1ERK9QDateTime  __ZN8DateTimeC1ERK9QDateTime
 0001:00022F30 __ZN8DateTimeC2ERK7QString  __ZN8DateTimeC2ERK7QString
 0001:00022DB0 __ZN8DateTimeC2ERK9QDateTime  __ZN8DateTimeC2ERK9QDateTime
 0001:00021DE0      __ZN8DateTimeD1Ev  __ZN8DateTimeD1Ev
 0001:00021DE0      __ZN8DateTimeD2Ev  __ZN8DateTimeD2Ev
 0000:FFFFFFFF __ZN9Shortcuts10DescriptorD1Ev  __ZN9Shortcuts10DescriptorD1Ev
 0001:00039780 __ZN9Shortcuts10groupOrderERK7QString  __ZN9Shortcuts10groupOrderERK7QString
 0001:0004FA90 __ZN9Shortcuts11qt_metacallEN11QMetaObject4CallEiPPv  __ZN9Shortcuts11qt_metacallEN11QMetaObject4CallEiPPv
 0001:0004F810 __ZN9Shortcuts11qt_metacastEPKc  __ZN9Shortcuts11qt_metacastEPKc
 0001:0003AA10 __ZN9Shortcuts12declareGroupERK7QStringS2_i  __ZN9Shortcuts12declareGroupERK7QStringS2_i
 0001:00039ED0 __ZN9Shortcuts12updateGlobalEP17QxtGlobalShortcut  __ZN9Shortcuts12updateGlobalEP17QxtGlobalShortcut
 0001:00039910 __ZN9Shortcuts12updateObjectEP7QObject  __ZN9Shortcuts12updateObjectEP7QObject
 0001:0003A190 __ZN9Shortcuts12updateWidgetEP9QShortcut  __ZN9Shortcuts12updateWidgetEP9QShortcut
 0001:0004F880 __ZN9Shortcuts13groupDeclaredERK7QString  __ZN9Shortcuts13groupDeclaredERK7QString
 0001:00039190 __ZN9Shortcuts14convertContextENS_7ContextE  __ZN9Shortcuts14convertContextENS_7ContextE
 0001:000390D0 __ZN9Shortcuts14objectShortcutEP7QObject  __ZN9Shortcuts14objectShortcutEP7QObject
 0001:0004F940 __ZN9Shortcuts14shortcutBindedERK7QStringP7QObject  __ZN9Shortcuts14shortcutBindedERK7QStringP7QObject
 0001:0003CFC0 __ZN9Shortcuts14updateShortcutERK7QStringRK12QKeySequence  __ZN9Shortcuts14updateShortcutERK7QStringRK12QKeySequence
 0001:0003AC10 __ZN9Shortcuts15declareShortcutERK7QStringS2_RK12QKeySequenceNS_7ContextE  __ZN9Shortcuts15declareShortcutERK7QStringS2_RK12QKeySequenceNS_7ContextE
 0001:0003A970 __ZN9Shortcuts15globalShortcutsEv  __ZN9Shortcuts15globalShortcutsEv
 0001:0004FA00 __ZN9Shortcuts15shortcutEnabledERK7QStringb  __ZN9Shortcuts15shortcutEnabledERK7QStringb
 0001:0004F9C0 __ZN9Shortcuts15shortcutRemovedERK7QStringP7QWidget  __ZN9Shortcuts15shortcutRemovedERK7QStringP7QWidget
 0001:0004F900 __ZN9Shortcuts15shortcutUpdatedERK7QString  __ZN9Shortcuts15shortcutUpdatedERK7QString
 0001:0003C770 __ZN9Shortcuts15widgetShortcutsEP7QWidget  __ZN9Shortcuts15widgetShortcutsEP7QWidget
 0001:00039160 __ZN9Shortcuts16activateShortcutERK7QStringP7QWidget  __ZN9Shortcuts16activateShortcutERK7QStringP7QWidget
 0001:000397F0 __ZN9Shortcuts16groupDescriptionERK7QString  __ZN9Shortcuts16groupDescriptionERK7QString
 0001:0004F8C0 __ZN9Shortcuts16shortcutDeclaredERK7QString  __ZN9Shortcuts16shortcutDeclaredERK7QString
 0001:0004F980 __ZN9Shortcuts16shortcutInsertedERK7QStringP7QWidget  __ZN9Shortcuts16shortcutInsertedERK7QStringP7QWidget
 0002:00018FD0 __ZN9Shortcuts16staticMetaObjectE  __ZN9Shortcuts16staticMetaObjectE
 0001:0003B680 __ZN9Shortcuts17onObjectDestroyedEP7QObject  __ZN9Shortcuts17onObjectDestroyedEP7QObject
 0001:0003C520 __ZN9Shortcuts17onWidgetDestroyedEP7QObject  __ZN9Shortcuts17onWidgetDestroyedEP7QObject
 0001:0003C200 __ZN9Shortcuts17setGlobalShortcutERK7QStringb  __ZN9Shortcuts17setGlobalShortcutERK7QStringb
 0001:0004FA50 __ZN9Shortcuts17shortcutActivatedERK7QStringP7QWidget  __ZN9Shortcuts17shortcutActivatedERK7QStringP7QWidget
 0001:0003B6E0 __ZN9Shortcuts18bindObjectShortcutERK7QStringP7QObject  __ZN9Shortcuts18bindObjectShortcutERK7QStringP7QObject
 0001:00039E00 __ZN9Shortcuts18shortcutDescriptorERK7QString  __ZN9Shortcuts18shortcutDescriptorERK7QString
 0001:000391B0 __ZN9Shortcuts19onShortcutActivatedEv  __ZN9Shortcuts19onShortcutActivatedEv
 0002:0001B0D0      __ZN9Shortcuts1dE  __ZN9Shortcuts1dE
 0001:0003C970 __ZN9Shortcuts20insertWidgetShortcutERK7QStringP7QWidget  __ZN9Shortcuts20insertWidgetShortcutERK7QStringP7QWidget
 0001:0003CC20 __ZN9Shortcuts20removeWidgetShortcutERK7QStringP7QWidget  __ZN9Shortcuts20removeWidgetShortcutERK7QStringP7QWidget
 0001:0003A5C0 __ZN9Shortcuts22isGlobalShortcutActiveERK7QString  __ZN9Shortcuts22isGlobalShortcutActiveERK7QString
 0001:00039300 __ZN9Shortcuts25onGlobalShortcutActivatedEv  __ZN9Shortcuts25onGlobalShortcutActivatedEv
 0001:0003A7E0 __ZN9Shortcuts6groupsEv  __ZN9Shortcuts6groupsEv
 0001:00038FE0 __ZN9Shortcuts8instanceEv  __ZN9Shortcuts8instanceEv
 0001:0003A8C0 __ZN9Shortcuts9shortcutsEv  __ZN9Shortcuts9shortcutsEv
 0000:FFFFFFFF     __ZN9ShortcutsD0Ev  __ZN9ShortcutsD0Ev
 0000:FFFFFFFF     __ZN9ShortcutsD1Ev  __ZN9ShortcutsD1Ev
 0001:00018A90 __ZN9UnzipFile19loadZippedFilesInfoEb  __ZN9UnzipFile19loadZippedFilesInfoEb
 0001:00018E40 __ZN9UnzipFile8openFileERK7QStringb  __ZN9UnzipFile8openFileERK7QStringb
 0001:00018FC0 __ZN9UnzipFileC1ERK7QStringb  __ZN9UnzipFileC1ERK7QStringb
 0001:00018640     __ZN9UnzipFileC1Ev  __ZN9UnzipFileC1Ev
 0001:00018FC0 __ZN9UnzipFileC2ERK7QStringb  __ZN9UnzipFileC2ERK7QStringb
 0001:00018640     __ZN9UnzipFileC2Ev  __ZN9UnzipFileC2Ev
 0001:00018600     __ZN9UnzipFileD1Ev  __ZN9UnzipFileD1Ev
 0001:00018600     __ZN9UnzipFileD2Ev  __ZN9UnzipFileD2Ev
 0001:00012A90 __ZN9XmppError10initializeEv  __ZN9XmppError10initializeEv
 0001:00008150 __ZN9XmppError10setErrorNsERK7QString  __ZN9XmppError10setErrorNsERK7QString
 0001:00008050 __ZN9XmppError12setConditionERK7QString  __ZN9XmppError12setConditionERK7QString
 0001:000083A0 __ZN9XmppError12setErrorTextERK7QStringS2_  __ZN9XmppError12setErrorTextERK7QStringS2_
 0001:000098A0 __ZN9XmppError13registerErrorERK7QStringS2_S2_S2_  __ZN9XmppError13registerErrorERK7QStringS2_S2_S2_
 0001:0000E690 __ZN9XmppError14getErrorStringERK7QStringS2_S2_  __ZN9XmppError14getErrorStringERK7QStringS2_S2_
 0001:0000E660 __ZN9XmppError14registerErrorsEv  __ZN9XmppError14registerErrorsEv
 0001:00006910 __ZN9XmppError15getErrorMessageERK7QStringS2_  __ZN9XmppError15getErrorMessageERK7QStringS2_
 0001:00008280 __ZN9XmppError15setAppConditionERK7QStringS2_  __ZN9XmppError15setAppConditionERK7QStringS2_
 0001:00008010 __ZN9XmppError16setConditionTextERK7QString  __ZN9XmppError16setConditionTextERK7QString
 0002:0001B024   __ZN9XmppError4nullE  __ZN9XmppError4nullE
 0002:0001B010 __ZN9XmppError7FErrorsE  __ZN9XmppError7FErrorsE
 0001:000089A0 __ZN9XmppErrorC1E11QDomElementRK7QString  __ZN9XmppErrorC1E11QDomElementRK7QString
 0001:00006EB0 __ZN9XmppErrorC1ERK18QSharedDataPointerI13XmppErrorDataE  __ZN9XmppErrorC1ERK18QSharedDataPointerI13XmppErrorDataE
 0001:000084C0 __ZN9XmppErrorC1ERK7QStringS2_S2_  __ZN9XmppErrorC1ERK7QStringS2_S2_
 0001:00012AC0     __ZN9XmppErrorC1Ev  __ZN9XmppErrorC1Ev
 0001:000089A0 __ZN9XmppErrorC2E11QDomElementRK7QString  __ZN9XmppErrorC2E11QDomElementRK7QString
 0001:00006EB0 __ZN9XmppErrorC2ERK18QSharedDataPointerI13XmppErrorDataE  __ZN9XmppErrorC2ERK18QSharedDataPointerI13XmppErrorDataE
 0001:000084C0 __ZN9XmppErrorC2ERK7QStringS2_S2_  __ZN9XmppErrorC2ERK7QStringS2_S2_
 0001:00012AC0     __ZN9XmppErrorC2Ev  __ZN9XmppErrorC2Ev
 0001:0002FB50 __ZNK10RingBuffer11canReadLineEv  __ZNK10RingBuffer11canReadLineEv
 0001:0002FA80 __ZNK10RingBuffer11maximumSizeEv  __ZNK10RingBuffer11maximumSizeEv
 0001:0002FBB0 __ZNK10RingBuffer11readPointerEv  __ZNK10RingBuffer11readPointerEv
 0001:0002FB80 __ZNK10RingBuffer17nextDataBlockSizeEv  __ZNK10RingBuffer17nextDataBlockSizeEv
 0001:0002FBD0 __ZNK10RingBuffer4peekEi  __ZNK10RingBuffer4peekEi
 0001:0002FA70 __ZNK10RingBuffer4sizeEv  __ZNK10RingBuffer4sizeEv
 0001:0002FA90 __ZNK10RingBuffer7indexOfEc  __ZNK10RingBuffer7indexOfEc
 0001:0002FA50 __ZNK10RingBuffer7isEmptyEv  __ZNK10RingBuffer7isEmptyEv
 0001:00050EF0 __ZNK11CloseButton10metaObjectEv  __ZNK11CloseButton10metaObjectEv
 0001:00041EB0 __ZNK11CloseButton8sizeHintEv  __ZNK11CloseButton8sizeHintEv
 0001:00025820 __ZNK11FileStorage10fileOptionERK7QStringS2_  __ZNK11FileStorage10fileOptionERK7QStringS2_
 0001:00025E20 __ZNK11FileStorage10filesCountERK7QString  __ZNK11FileStorage10filesCountERK7QString
 0001:0004E490 __ZNK11FileStorage10metaObjectEv  __ZNK11FileStorage10metaObjectEv
 0001:000234D0 __ZNK11FileStorage10subStorageEv  __ZNK11FileStorage10subStorageEv
 0001:00025B40 __ZNK11FileStorage12fileCacheKeyERK7QStringi  __ZNK11FileStorage12fileCacheKeyERK7QStringi
 0001:00025CA0 __ZNK11FileStorage12fileFullNameERK7QStringi  __ZNK11FileStorage12fileFullNameERK7QStringi
 0001:00024820 __ZNK11FileStorage13fileFirstKeysEv  __ZNK11FileStorage13fileFirstKeysEv
 0001:00023CD0 __ZNK11FileStorage6optionERK7QString  __ZNK11FileStorage6optionERK7QString
 0001:000234B0 __ZNK11FileStorage7storageEv  __ZNK11FileStorage7storageEv
 0001:00024340 __ZNK11FileStorage8fileKeysEv  __ZNK11FileStorage8fileKeysEv
 0001:00025960 __ZNK11FileStorage8fileMimeERK7QStringi  __ZNK11FileStorage8fileMimeERK7QStringi
 0001:00025A50 __ZNK11FileStorage8fileNameERK7QStringi  __ZNK11FileStorage8fileNameERK7QStringi
 0001:0004E6B0 __ZNK11IconStorage10metaObjectEv  __ZNK11IconStorage10metaObjectEv
 0001:0002AD10 __ZNK11IconStorage7getIconERK7QStringi  __ZNK11IconStorage7getIconERK7QStringi
 0001:00035480 __ZNK11OptionsNode10childNamesEv  __ZNK11OptionsNode10childNamesEv
 0001:00032630 __ZNK11OptionsNode11isChildNodeERKS_  __ZNK11OptionsNode11isChildNodeERKS_
 0001:000352C0 __ZNK11OptionsNode12childNSpacesERK7QString  __ZNK11OptionsNode12childNSpacesERK7QString
 0001:00035680 __ZNK11OptionsNode13parentNSpacesEv  __ZNK11OptionsNode13parentNSpacesEv
 0001:000324B0 __ZNK11OptionsNode4nameEv  __ZNK11OptionsNode4nameEv
 0001:00033440 __ZNK11OptionsNode4nodeERK7QStringS2_  __ZNK11OptionsNode4nodeERK7QStringS2_
 0001:000340B0 __ZNK11OptionsNode4pathEv  __ZNK11OptionsNode4pathEv
 0001:000363A0 __ZNK11OptionsNode5valueERK7QStringS2_  __ZNK11OptionsNode5valueERK7QStringS2_
 0001:00032490 __ZNK11OptionsNode6isNullEv  __ZNK11OptionsNode6isNullEv
 0001:000324E0 __ZNK11OptionsNode6nspaceEv  __ZNK11OptionsNode6nspaceEv
 0001:000325A0 __ZNK11OptionsNode6parentEv  __ZNK11OptionsNode6parentEv
 0001:00032E40 __ZNK11OptionsNode7hasNodeERK7QStringS2_  __ZNK11OptionsNode7hasNodeERK7QStringS2_
 0001:00033770 __ZNK11OptionsNode8hasValueERK7QStringS2_  __ZNK11OptionsNode8hasValueERK7QStringS2_
 0001:00032710 __ZNK11OptionsNode9childPathERKS_  __ZNK11OptionsNode9childPathERKS_
 0001:00033010 __ZNK11OptionsNodeeqERKS_  __ZNK11OptionsNodeeqERKS_
 0001:00033040 __ZNK11OptionsNodeneERKS_  __ZNK11OptionsNodeneERKS_
 0001:0004FFC0 __ZNK13SystemManager10metaObjectEv  __ZNK13SystemManager10metaObjectEv
 0001:000051A0 __ZNK13VersionParser11buildNumberEv  __ZNK13VersionParser11buildNumberEv
 0001:00005170 __ZNK13VersionParser12majorVersionEv  __ZNK13VersionParser12majorVersionEv
 0001:00005180 __ZNK13VersionParser12minorVersionEv  __ZNK13VersionParser12minorVersionEv
 0001:00005190 __ZNK13VersionParser13releaseNumberEv  __ZNK13VersionParser13releaseNumberEv
 0001:000051B0 __ZNK13VersionParser13versionNumberEv  __ZNK13VersionParser13versionNumberEv
 0001:00005230 __ZNK13VersionParser8toStringENS_4PartE  __ZNK13VersionParser8toStringENS_4PartE
 0001:000057A0 __ZNK13VersionParsereqERKS_  __ZNK13VersionParsereqERKS_
 0001:00005CA0 __ZNK13VersionParsergeERKS_  __ZNK13VersionParsergeERKS_
 0001:00005B80 __ZNK13VersionParsergtERKS_  __ZNK13VersionParsergtERKS_
 0001:00005A60 __ZNK13VersionParserleERKS_  __ZNK13VersionParserleERKS_
 0001:00005940 __ZNK13VersionParserltERKS_  __ZNK13VersionParserltERKS_
 0001:00005870 __ZNK13VersionParserneERKS_  __ZNK13VersionParserneERKS_
 0001:0002E110 __ZNK14MenuBarChanger10groupMenusEi  __ZNK14MenuBarChanger10groupMenusEi
 0001:0004E960 __ZNK14MenuBarChanger10metaObjectEv  __ZNK14MenuBarChanger10metaObjectEv
 0001:0002DB80 __ZNK14MenuBarChanger7isEmptyEv  __ZNK14MenuBarChanger7isEmptyEv
 0001:0002DBA0 __ZNK14MenuBarChanger7menuBarEv  __ZNK14MenuBarChanger7menuBarEv
 0001:0002DBB0 __ZNK14MenuBarChanger9menuGroupEP4Menu  __ZNK14MenuBarChanger9menuGroupEP4Menu
 0001:000511B0 __ZNK14SearchLineEdit10metaObjectEv  __ZNK14SearchLineEdit10metaObjectEv
 0001:00042500 __ZNK14SearchLineEdit10searchMenuEv  __ZNK14SearchLineEdit10searchMenuEv
 0001:00042510 __ZNK14SearchLineEdit11clearButtonEv  __ZNK14SearchLineEdit11clearButtonEv
 0001:00042520 __ZNK14SearchLineEdit16isStartingSearchEv  __ZNK14SearchLineEdit16isStartingSearchEv
 0001:00042560 __ZNK14SearchLineEdit18startSearchTimeoutEv  __ZNK14SearchLineEdit18startSearchTimeoutEv
 0001:00042580 __ZNK14SearchLineEdit19isSearchMenuVisibleEv  __ZNK14SearchLineEdit19isSearchMenuVisibleEv
 0001:000425A0 __ZNK14SearchLineEdit26isSelectTextOnFocusEnabledEv  __ZNK14SearchLineEdit26isSelectTextOnFocusEnabledEv
 0001:000203E0 __ZNK14ToolBarChanger10groupItemsEi  __ZNK14ToolBarChanger10groupItemsEi
 0001:0004E020 __ZNK14ToolBarChanger10metaObjectEv  __ZNK14ToolBarChanger10metaObjectEv
 0001:0001F430 __ZNK14ToolBarChanger12actionHandleEP6Action  __ZNK14ToolBarChanger12actionHandleEP6Action
 0001:0001F500 __ZNK14ToolBarChanger12handleActionEP7QAction  __ZNK14ToolBarChanger12handleActionEP7QAction
 0001:0001F3F0 __ZNK14ToolBarChanger12handleWidgetEP7QAction  __ZNK14ToolBarChanger12handleWidgetEP7QAction
 0001:0001F380 __ZNK14ToolBarChanger12widgetHandleEP7QWidget  __ZNK14ToolBarChanger12widgetHandleEP7QWidget
 0001:0001F2E0 __ZNK14ToolBarChanger17separatorsVisibleEv  __ZNK14ToolBarChanger17separatorsVisibleEv
 0001:0001FC30 __ZNK14ToolBarChanger18findGroupSeparatorEi  __ZNK14ToolBarChanger18findGroupSeparatorEi
 0001:0001F2F0 __ZNK14ToolBarChanger20autoHideEmptyToolbarEv  __ZNK14ToolBarChanger20autoHideEmptyToolbarEv
 0001:0001F2C0 __ZNK14ToolBarChanger7isEmptyEv  __ZNK14ToolBarChanger7isEmptyEv
 0001:0001F300 __ZNK14ToolBarChanger7toolBarEv  __ZNK14ToolBarChanger7toolBarEv
 0001:0001F310 __ZNK14ToolBarChanger9itemGroupEP7QAction  __ZNK14ToolBarChanger9itemGroupEP7QAction
 0001:0001C850 __ZNK15IconsetDelegate14drawBackgroundEP8QPainterRK20QStyleOptionViewItemRK11QModelIndex  __ZNK15IconsetDelegate14drawBackgroundEP8QPainterRK20QStyleOptionViewItemRK11QModelIndex
 0001:0001D610 __ZNK15IconsetDelegate5paintEP8QPainterRK20QStyleOptionViewItemRK11QModelIndex  __ZNK15IconsetDelegate5paintEP8QPainterRK20QStyleOptionViewItemRK11QModelIndex
 0001:0001E4A0 __ZNK15IconsetDelegate8sizeHintERK20QStyleOptionViewItemRK11QModelIndex  __ZNK15IconsetDelegate8sizeHintERK20QStyleOptionViewItemRK11QModelIndex
 0001:000073A0 __ZNK15XmppStanzaError13conditionCodeEv  __ZNK15XmppStanzaError13conditionCodeEv
 0001:000072B0 __ZNK15XmppStanzaError13errorTypeCodeEv  __ZNK15XmppStanzaError13errorTypeCodeEv
 0001:00006A50 __ZNK15XmppStanzaError7errorByEv  __ZNK15XmppStanzaError7errorByEv
 0001:00006A70 __ZNK15XmppStanzaError9errorTypeEv  __ZNK15XmppStanzaError9errorTypeEv
 0001:000071C0 __ZNK15XmppStreamError13conditionCodeEv  __ZNK15XmppStreamError13conditionCodeEv
 0001:0004ED60 __ZNK16StatusBarChanger10metaObjectEv  __ZNK16StatusBarChanger10metaObjectEv
 0001:0002E810 __ZNK16StatusBarChanger11widgetGroupEP7QWidget  __ZNK16StatusBarChanger11widgetGroupEP7QWidget
 0001:0002F0C0 __ZNK16StatusBarChanger12groupWidgetsEi  __ZNK16StatusBarChanger12groupWidgetsEi
 0001:0002E7F0 __ZNK16StatusBarChanger16manageVisibitilyEv  __ZNK16StatusBarChanger16manageVisibitilyEv
 0001:0002E7D0 __ZNK16StatusBarChanger7isEmptyEv  __ZNK16StatusBarChanger7isEmptyEv
 0001:0002E800 __ZNK16StatusBarChanger9statusBarEv  __ZNK16StatusBarChanger9statusBarEv
 0001:0003E6C0 __ZNK19AnimatedTextBrowser10isAnimatedEv  __ZNK19AnimatedTextBrowser10isAnimatedEv
 0001:000502B0 __ZNK19AnimatedTextBrowser10metaObjectEv  __ZNK19AnimatedTextBrowser10metaObjectEv
 0001:0003ED90 __ZNK19AnimatedTextBrowser16findUrlPositionsERK4QUrl  __ZNK19AnimatedTextBrowser16findUrlPositionsERK4QUrl
 0001:0003E7B0 __ZNK19AnimatedTextBrowser20networkAccessManagerEv  __ZNK19AnimatedTextBrowser20networkAccessManagerEv
 0001:0003E6D0 __ZNK19AnimatedTextBrowser23visiblePositionBoundaryEv  __ZNK19AnimatedTextBrowser23visiblePositionBoundaryEv
 0001:00044BF0 __ZNK20AdvancedItemDelegate10editItemIdEv  __ZNK20AdvancedItemDelegate10editItemIdEv
 0001:00051680 __ZNK20AdvancedItemDelegate10metaObjectEv  __ZNK20AdvancedItemDelegate10metaObjectEv
 0001:00049D80 __ZNK20AdvancedItemDelegate12createEditorEP7QWidgetRK20QStyleOptionViewItemRK11QModelIndex  __ZNK20AdvancedItemDelegate12createEditorEP7QWidgetRK20QStyleOptionViewItemRK11QModelIndex
 0001:00044D70 __ZNK20AdvancedItemDelegate12setModelDataEP7QWidgetP18QAbstractItemModelRK11QModelIndex  __ZNK20AdvancedItemDelegate12setModelDataEP7QWidgetP18QAbstractItemModelRK11QModelIndex
 0001:000472D0 __ZNK20AdvancedItemDelegate13drawFocusRectEP8QPainterRK22QStyleOptionViewItemV4RK5QRect  __ZNK20AdvancedItemDelegate13drawFocusRectEP8QPainterRK22QStyleOptionViewItemV4RK5QRect
 0001:00044C30 __ZNK20AdvancedItemDelegate13editorFactoryEv  __ZNK20AdvancedItemDelegate13editorFactoryEv
 0001:00048F20 __ZNK20AdvancedItemDelegate13getIndexItemsERK11QModelIndexRK22QStyleOptionViewItemV4  __ZNK20AdvancedItemDelegate13getIndexItemsERK11QModelIndexRK22QStyleOptionViewItemV4
 0001:00044C80 __ZNK20AdvancedItemDelegate13setEditorDataEP7QWidgetRK11QModelIndex  __ZNK20AdvancedItemDelegate13setEditorDataEP7QWidgetRK11QModelIndex
 0001:00047270 __ZNK20AdvancedItemDelegate14drawBackgroundEP8QPainterRK22QStyleOptionViewItemV4  __ZNK20AdvancedItemDelegate14drawBackgroundEP8QPainterRK22QStyleOptionViewItemV4
 0001:00044B50 __ZNK20AdvancedItemDelegate15contentsMarginsEv  __ZNK20AdvancedItemDelegate15contentsMarginsEv
 0001:00045760 __ZNK20AdvancedItemDelegate15itemStyleOptionERK20AdvancedDelegateItemRK22QStyleOptionViewItemV4  __ZNK20AdvancedItemDelegate15itemStyleOptionERK20AdvancedDelegateItemRK22QStyleOptionViewItemV4
 0001:00044AD0 __ZNK20AdvancedItemDelegate15verticalSpacingEv  __ZNK20AdvancedItemDelegate15verticalSpacingEv
 0001:00044B10 __ZNK20AdvancedItemDelegate16focusRectVisibleEv  __ZNK20AdvancedItemDelegate16focusRectVisibleEv
 0001:00044EC0 __ZNK20AdvancedItemDelegate16indexStyleOptionERK20QStyleOptionViewItemRK11QModelIndexb  __ZNK20AdvancedItemDelegate16indexStyleOptionERK20QStyleOptionViewItemRK11QModelIndexb
 0001:0004A680 __ZNK20AdvancedItemDelegate17createItemsLayoutERK4QMapIj20AdvancedDelegateItemERK22QStyleOptionViewItemV4  __ZNK20AdvancedItemDelegate17createItemsLayoutERK4QMapIj20AdvancedDelegateItemERK22QStyleOptionViewItemV4
 0001:00044AF0 __ZNK20AdvancedItemDelegate17horizontalSpacingEv  __ZNK20AdvancedItemDelegate17horizontalSpacingEv
 0001:00047EB0 __ZNK20AdvancedItemDelegate18destroyItemsLayoutEPNS_11ItemsLayoutE  __ZNK20AdvancedItemDelegate18destroyItemsLayoutEPNS_11ItemsLayoutE
 0001:0004C2A0 __ZNK20AdvancedItemDelegate20updateEditorGeometryEP7QWidgetRK20QStyleOptionViewItemRK11QModelIndex  __ZNK20AdvancedItemDelegate20updateEditorGeometryEP7QWidgetRK20QStyleOptionViewItemRK11QModelIndex
 0001:00044B30 __ZNK20AdvancedItemDelegate24defaultBranchItemEnabledEv  __ZNK20AdvancedItemDelegate24defaultBranchItemEnabledEv
 0001:0004C6F0 __ZNK20AdvancedItemDelegate5paintEP8QPainterRK20QStyleOptionViewItemRK11QModelIndex  __ZNK20AdvancedItemDelegate5paintEP8QPainterRK20QStyleOptionViewItemRK11QModelIndex
 0001:00046A20 __ZNK20AdvancedItemDelegate6itemAtERK6QPointPKNS_11ItemsLayoutERK5QRect  __ZNK20AdvancedItemDelegate6itemAtERK6QPointPKNS_11ItemsLayoutERK5QRect
 0001:0004BC10 __ZNK20AdvancedItemDelegate6itemAtERK6QPointRK20QStyleOptionViewItemRK11QModelIndex  __ZNK20AdvancedItemDelegate6itemAtERK6QPointRK20QStyleOptionViewItemRK11QModelIndex
 0001:00044BD0 __ZNK20AdvancedItemDelegate8editRoleEv  __ZNK20AdvancedItemDelegate8editRoleEv
 0001:00046850 __ZNK20AdvancedItemDelegate8itemRectEjPKNS_11ItemsLayoutERK5QRect  __ZNK20AdvancedItemDelegate8itemRectEjPKNS_11ItemsLayoutERK5QRect
 0001:0004BE10 __ZNK20AdvancedItemDelegate8itemRectEjRK20QStyleOptionViewItemRK11QModelIndex  __ZNK20AdvancedItemDelegate8itemRectEjRK20QStyleOptionViewItemRK11QModelIndex
 0001:0004C430 __ZNK20AdvancedItemDelegate8sizeHintERK20QStyleOptionViewItemRK11QModelIndex  __ZNK20AdvancedItemDelegate8sizeHintERK20QStyleOptionViewItemRK11QModelIndex
 0001:00044BB0 __ZNK20AdvancedItemDelegate9blinkModeEv  __ZNK20AdvancedItemDelegate9blinkModeEv
 0001:00044C10 __ZNK20AdvancedItemDelegate9editProxyEv  __ZNK20AdvancedItemDelegate9editProxyEv
 0001:00044AB0 __ZNK20AdvancedItemDelegate9itemsRoleEv  __ZNK20AdvancedItemDelegate9itemsRoleEv
 0001:00044270 __ZNK25AdvancedDelegateEditProxy20updateEditorGeometryEPK20AdvancedItemDelegateP7QWidgetRK20QStyleOptionViewItemRK11QModelIndex  __ZNK25AdvancedDelegateEditProxy20updateEditorGeometryEPK20AdvancedItemDelegateP7QWidgetRK20QStyleOptionViewItemRK11QModelIndex
 0000:FFFFFFFF __ZNK26AdvancedDelegateLayoutItem11maximumSizeEv  __ZNK26AdvancedDelegateLayoutItem11maximumSizeEv
 0000:FFFFFFFF __ZNK26AdvancedDelegateLayoutItem11minimumSizeEv  __ZNK26AdvancedDelegateLayoutItem11minimumSizeEv
 0000:FFFFFFFF __ZNK26AdvancedDelegateLayoutItem19expandingDirectionsEv  __ZNK26AdvancedDelegateLayoutItem19expandingDirectionsEv
 0000:FFFFFFFF __ZNK26AdvancedDelegateLayoutItem7isEmptyEv  __ZNK26AdvancedDelegateLayoutItem7isEmptyEv
 0000:FFFFFFFF __ZNK26AdvancedDelegateLayoutItem8geometryEv  __ZNK26AdvancedDelegateLayoutItem8geometryEv
 0000:FFFFFFFF __ZNK26AdvancedDelegateLayoutItem8sizeHintEv  __ZNK26AdvancedDelegateLayoutItem8sizeHintEv
 0001:00000910       __ZNK3Jid4bareEv  __ZNK3Jid4bareEv
 0001:00000970       __ZNK3Jid4fullEv  __ZNK3Jid4fullEv
 0001:000007F0       __ZNK3Jid4nodeEv  __ZNK3Jid4nodeEv
 0001:00000940      __ZNK3Jid5pBareEv  __ZNK3Jid5pBareEv
 0001:00000990      __ZNK3Jid5pFullEv  __ZNK3Jid5pFullEv
 0001:00000820      __ZNK3Jid5pNodeEv  __ZNK3Jid5pNodeEv
 0001:00001620      __ZNK3Jid5uBareEv  __ZNK3Jid5uBareEv
 0001:000017D0      __ZNK3Jid5uFullEv  __ZNK3Jid5uFullEv
 0001:000018C0      __ZNK3Jid5uNodeEv  __ZNK3Jid5uNodeEv
 0001:00000850     __ZNK3Jid6domainEv  __ZNK3Jid6domainEv
 0001:000007C0    __ZNK3Jid7isEmptyEv  __ZNK3Jid7isEmptyEv
 0001:00000780    __ZNK3Jid7isValidEv  __ZNK3Jid7isValidEv
 0001:00000880    __ZNK3Jid7pDomainEv  __ZNK3Jid7pDomainEv
 0001:000008B0   __ZNK3Jid8resourceEv  __ZNK3Jid8resourceEv
 0001:000008E0  __ZNK3Jid9pResourceEv  __ZNK3Jid9pResourceEv
 0001:000045D0 __ZNK3JidaaERK7QString  __ZNK3JidaaERK7QString
 0001:00000A00       __ZNK3JidaaERKS_  __ZNK3JidaaERKS_
 0001:000046B0 __ZNK3JideqERK7QString  __ZNK3JideqERK7QString
 0001:000009B0       __ZNK3JideqERKS_  __ZNK3JideqERKS_
 0001:00000A60       __ZNK3JidgtERKS_  __ZNK3JidgtERKS_
 0001:00000A30       __ZNK3JidltERKS_  __ZNK3JidltERKS_
 0001:00004790 __ZNK3JidneERK7QString  __ZNK3JidneERK7QString
 0001:000009E0       __ZNK3JidneERKS_  __ZNK3JidneERKS_
 0001:00015960 __ZNK4Menu10menuActionEv  __ZNK4Menu10menuActionEv
 0001:0004D9B0 __ZNK4Menu10metaObjectEv  __ZNK4Menu10metaObjectEv
 0001:00015970 __ZNK4Menu11actionGroupEPK6Action  __ZNK4Menu11actionGroupEPK6Action
 0001:00016D30 __ZNK4Menu11findActionsERK10QMultiHashIi8QVariantEb  __ZNK4Menu11findActionsERK10QMultiHashIi8QVariantEb
 0001:00016420 __ZNK4Menu12groupActionsEi  __ZNK4Menu12groupActionsEi
 0001:00015FA0 __ZNK4Menu18nextGroupSeparatorEi  __ZNK4Menu18nextGroupSeparatorEi
 0001:00015940   __ZNK4Menu7isEmptyEv  __ZNK4Menu7isEmptyEv
 0000:FFFFFFFF __ZNK4QMapI7QStringS0_E15mutableFindNodeEPPN8QMapData4NodeERKS0_  __ZNK4QMapI7QStringS0_E15mutableFindNodeEPPN8QMapData4NodeERKS0_
 0000:FFFFFFFF __ZNK4QMapI7QStringS0_E4keysEv  __ZNK4QMapI7QStringS0_E4keysEv
 0000:FFFFFFFF __ZNK4QMapI7QStringS_IS0_S0_EE15mutableFindNodeEPPN8QMapData4NodeERKS0_  __ZNK4QMapI7QStringS_IS0_S0_EE15mutableFindNodeEPPN8QMapData4NodeERKS0_
 0000:FFFFFFFF __ZNK4QMapI7QStringS_IS0_S_IS0_S0_EEE15mutableFindNodeEPPN8QMapData4NodeERKS0_  __ZNK4QMapI7QStringS_IS0_S_IS0_S0_EEE15mutableFindNodeEPPN8QMapData4NodeERKS0_
 0000:FFFFFFFF __ZNK4QMapIi8QVariantE15mutableFindNodeEPPN8QMapData4NodeERKi  __ZNK4QMapIi8QVariantE15mutableFindNodeEPPN8QMapData4NodeERKi
 0000:FFFFFFFF __ZNK4QMapIi9QMultiMapIiP26AdvancedDelegateLayoutItemEE15mutableFindNodeEPPN8QMapData4NodeERKi  __ZNK4QMapIi9QMultiMapIiP26AdvancedDelegateLayoutItemEE15mutableFindNodeEPPN8QMapData4NodeERKi
 0000:FFFFFFFF __ZNK4QMapIiP10QBoxLayoutE15mutableFindNodeEPPN8QMapData4NodeERKi  __ZNK4QMapIiP10QBoxLayoutE15mutableFindNodeEPPN8QMapData4NodeERKi
 0000:FFFFFFFF __ZNK4QMapIiP26AdvancedDelegateLayoutItemE15mutableFindNodeEPPN8QMapData4NodeERKi  __ZNK4QMapIiP26AdvancedDelegateLayoutItemE15mutableFindNodeEPPN8QMapData4NodeERKi
 0000:FFFFFFFF __ZNK4QMapIiP4MenuE15mutableFindNodeEPPN8QMapData4NodeERKi  __ZNK4QMapIiP4MenuE15mutableFindNodeEPPN8QMapData4NodeERKi
 0000:FFFFFFFF __ZNK4QMapIiP4MenuE6valuesERKi  __ZNK4QMapIiP4MenuE6valuesERKi
 0000:FFFFFFFF __ZNK4QMapIiP4MenuE6valuesEv  __ZNK4QMapIiP4MenuE6valuesEv
 0000:FFFFFFFF __ZNK4QMapIiP6ActionE15mutableFindNodeEPPN8QMapData4NodeERKi  __ZNK4QMapIiP6ActionE15mutableFindNodeEPPN8QMapData4NodeERKi
 0000:FFFFFFFF __ZNK4QMapIiP6ActionE6valuesERKi  __ZNK4QMapIiP6ActionE6valuesERKi
 0000:FFFFFFFF __ZNK4QMapIiP6ActionE6valuesEv  __ZNK4QMapIiP6ActionE6valuesEv
 0000:FFFFFFFF __ZNK4QMapIiP7QActionE15mutableFindNodeEPPN8QMapData4NodeERKi  __ZNK4QMapIiP7QActionE15mutableFindNodeEPPN8QMapData4NodeERKi
 0000:FFFFFFFF __ZNK4QMapIiP7QActionE6valuesEv  __ZNK4QMapIiP7QActionE6valuesEv
 0000:FFFFFFFF __ZNK4QMapIiP7QWidgetE15mutableFindNodeEPPN8QMapData4NodeERKi  __ZNK4QMapIiP7QWidgetE15mutableFindNodeEPPN8QMapData4NodeERKi
 0000:FFFFFFFF __ZNK4QMapIiP7QWidgetE4keysEv  __ZNK4QMapIiP7QWidgetE4keysEv
 0000:FFFFFFFF __ZNK4QMapIiP7QWidgetE6valuesERKi  __ZNK4QMapIiP7QWidgetE6valuesERKi
 0000:FFFFFFFF __ZNK4QMapIiP7QWidgetE6valuesEv  __ZNK4QMapIiP7QWidgetE6valuesEv
 0000:FFFFFFFF __ZNK4QMapIiS_Ii9QMultiMapIiP26AdvancedDelegateLayoutItemEEE15mutableFindNodeEPPN8QMapData4NodeERKi  __ZNK4QMapIiS_Ii9QMultiMapIiP26AdvancedDelegateLayoutItemEEE15mutableFindNodeEPPN8QMapData4NodeERKi
 0000:FFFFFFFF __ZNK4QMapIiS_IiP10QBoxLayoutEE15mutableFindNodeEPPN8QMapData4NodeERKi  __ZNK4QMapIiS_IiP10QBoxLayoutEE15mutableFindNodeEPPN8QMapData4NodeERKi
 0000:FFFFFFFF __ZNK4QMapIj20AdvancedDelegateItemE15mutableFindNodeEPPN8QMapData4NodeERKj  __ZNK4QMapIj20AdvancedDelegateItemE15mutableFindNodeEPPN8QMapData4NodeERKj
 0000:FFFFFFFF __ZNK4QMapIN15XmppStanzaError14ErrorConditionE7QStringE15mutableFindNodeEPPN8QMapData4NodeERKS1_  __ZNK4QMapIN15XmppStanzaError14ErrorConditionE7QStringE15mutableFindNodeEPPN8QMapData4NodeERKS1_
 0000:FFFFFFFF __ZNK4QMapIN15XmppStanzaError14ErrorConditionE7QStringE3keyERKS2_RKS1_  __ZNK4QMapIN15XmppStanzaError14ErrorConditionE7QStringE3keyERKS2_RKS1_
 0000:FFFFFFFF __ZNK4QMapIN15XmppStanzaError14ErrorConditionENS0_9ErrorTypeEE15mutableFindNodeEPPN8QMapData4NodeERKS1_  __ZNK4QMapIN15XmppStanzaError14ErrorConditionENS0_9ErrorTypeEE15mutableFindNodeEPPN8QMapData4NodeERKS1_
 0000:FFFFFFFF __ZNK4QMapIN15XmppStanzaError9ErrorTypeE7QStringE15mutableFindNodeEPPN8QMapData4NodeERKS1_  __ZNK4QMapIN15XmppStanzaError9ErrorTypeE7QStringE15mutableFindNodeEPPN8QMapData4NodeERKS1_
 0000:FFFFFFFF __ZNK4QMapIN15XmppStanzaError9ErrorTypeE7QStringE3keyERKS2_RKS1_  __ZNK4QMapIN15XmppStanzaError9ErrorTypeE7QStringE3keyERKS2_RKS1_
 0000:FFFFFFFF __ZNK4QMapIN15XmppStreamError14ErrorConditionE7QStringE15mutableFindNodeEPPN8QMapData4NodeERKS1_  __ZNK4QMapIN15XmppStreamError14ErrorConditionE7QStringE15mutableFindNodeEPPN8QMapData4NodeERKS1_
 0000:FFFFFFFF __ZNK4QMapIN15XmppStreamError14ErrorConditionE7QStringE3keyERKS2_RKS1_  __ZNK4QMapIN15XmppStreamError14ErrorConditionE7QStringE3keyERKS2_RKS1_
 0000:FFFFFFFF __ZNK4QMapIP17QxtGlobalShortcut7QStringE15mutableFindNodeEPPN8QMapData4NodeERKS1_  __ZNK4QMapIP17QxtGlobalShortcut7QStringE15mutableFindNodeEPPN8QMapData4NodeERKS1_
 0000:FFFFFFFF __ZNK4QMapIP17QxtGlobalShortcut7QStringE3keyERKS2_  __ZNK4QMapIP17QxtGlobalShortcut7QStringE3keyERKS2_
 0000:FFFFFFFF __ZNK4QMapIP17QxtGlobalShortcut7QStringE3keyERKS2_RKS1_  __ZNK4QMapIP17QxtGlobalShortcut7QStringE3keyERKS2_RKS1_
 0000:FFFFFFFF __ZNK4QMapIP17QxtGlobalShortcut7QStringE4keysERKS2_  __ZNK4QMapIP17QxtGlobalShortcut7QStringE4keysERKS2_
 0000:FFFFFFFF __ZNK4QMapIP17QxtGlobalShortcut7QStringE6valuesEv  __ZNK4QMapIP17QxtGlobalShortcut7QStringE6valuesEv
 0000:FFFFFFFF __ZNK4QMapIP6ActionP11QToolButtonE15mutableFindNodeEPPN8QMapData4NodeERKS1_  __ZNK4QMapIP6ActionP11QToolButtonE15mutableFindNodeEPPN8QMapData4NodeERKS1_
 0000:FFFFFFFF __ZNK4QMapIP7QObject7QStringE15mutableFindNodeEPPN8QMapData4NodeERKS1_  __ZNK4QMapIP7QObject7QStringE15mutableFindNodeEPPN8QMapData4NodeERKS1_
 0000:FFFFFFFF __ZNK4QMapIP7QObject7QStringE4keysERKS2_  __ZNK4QMapIP7QObject7QStringE4keysERKS2_
 0000:FFFFFFFF __ZNK4QMapIP7QWidgetP7QActionE15mutableFindNodeEPPN8QMapData4NodeERKS1_  __ZNK4QMapIP7QWidgetP7QActionE15mutableFindNodeEPPN8QMapData4NodeERKS1_
 0000:FFFFFFFF __ZNK4QMapIP7QWidgetP7QActionE6valuesEv  __ZNK4QMapIP7QWidgetP7QActionE6valuesEv
 0000:FFFFFFFF __ZNK4QMapIP9QShortcut7QStringE15mutableFindNodeEPPN8QMapData4NodeERKS1_  __ZNK4QMapIP9QShortcut7QStringE15mutableFindNodeEPPN8QMapData4NodeERKS1_
 0000:FFFFFFFF __ZNK4QMapIP9QShortcut7QStringE4keysERKS2_  __ZNK4QMapIP9QShortcut7QStringE4keysERKS2_
 0000:FFFFFFFF __ZNK4QMapIP9QShortcutP7QWidgetE15mutableFindNodeEPPN8QMapData4NodeERKS1_  __ZNK4QMapIP9QShortcutP7QWidgetE15mutableFindNodeEPPN8QMapData4NodeERKS1_
 0000:FFFFFFFF __ZNK4QMapIP9QShortcutP7QWidgetE4keysERKS3_  __ZNK4QMapIP9QShortcutP7QWidgetE4keysERKS3_
 0000:FFFFFFFF __ZNK4QMapIP9QShortcutP7QWidgetE6valuesEv  __ZNK4QMapIP9QShortcutP7QWidgetE6valuesEv
 0000:FFFFFFFF __ZNK5QHashI4QUrlP6QMovieE8findNodeERKS0_Pj  __ZNK5QHashI4QUrlP6QMovieE8findNodeERKS0_Pj
 0000:FFFFFFFF __ZNK5QHashI7QString10OptionItemE8findNodeERKS0_Pj  __ZNK5QHashI7QString10OptionItemE8findNodeERKS0_Pj
 0000:FFFFFFFF __ZNK5QHashI7QString15QHashDummyValueE8findNodeERKS0_Pj  __ZNK5QHashI7QString15QHashDummyValueE8findNodeERKS0_Pj
 0000:FFFFFFFF __ZNK5QHashI7QString3JidE8findNodeERKS0_Pj  __ZNK5QHashI7QString3JidE8findNodeERKS0_Pj
 0000:FFFFFFFF __ZNK5QHashI7QString5QIconE8findNodeERKS0_Pj  __ZNK5QHashI7QString5QIconE8findNodeERKS0_Pj
 0000:FFFFFFFF __ZNK5QHashI7QString5QListIN11IconStorage16IconAnimateFrameEEE8findNodeERKS0_Pj  __ZNK5QHashI7QString5QListIN11IconStorage16IconAnimateFrameEEE8findNodeERKS0_Pj
 0000:FFFFFFFF __ZNK5QHashI7QString5QPairIS0_iEE4keysEv  __ZNK5QHashI7QString5QPairIS0_iEE4keysEv
 0000:FFFFFFFF __ZNK5QHashI7QString5QPairIS0_iEE8findNodeERKS0_Pj  __ZNK5QHashI7QString5QPairIS0_iEE8findNodeERKS0_Pj
 0000:FFFFFFFF __ZNK5QHashI7QString8QVariantE8findNodeERKS0_Pj  __ZNK5QHashI7QString8QVariantE8findNodeERKS0_Pj
 0000:FFFFFFFF __ZNK5QHashI7QStringjE8findNodeERKS0_Pj  __ZNK5QHashI7QStringjE8findNodeERKS0_Pj
 0000:FFFFFFFF __ZNK5QHashI7QStringN9Shortcuts10DescriptorEE4keysEv  __ZNK5QHashI7QStringN9Shortcuts10DescriptorEE4keysEv
 0000:FFFFFFFF __ZNK5QHashI7QStringN9Shortcuts10DescriptorEE8findNodeERKS0_Pj  __ZNK5QHashI7QStringN9Shortcuts10DescriptorEE8findNodeERKS0_Pj
 0000:FFFFFFFF __ZNK5QHashI7QStringP11FileStorageE8findNodeERKS0_Pj  __ZNK5QHashI7QStringP11FileStorageE8findNodeERKS0_Pj
 0000:FFFFFFFF __ZNK5QHashI7QStringP11IconStorageE8findNodeERKS0_Pj  __ZNK5QHashI7QStringP11IconStorageE8findNodeERKS0_Pj
 0000:FFFFFFFF __ZNK5QHashI7QStringPN13UnzipFileData10ZippedFileEE4keysEv  __ZNK5QHashI7QStringPN13UnzipFileData10ZippedFileEE4keysEv
 0000:FFFFFFFF __ZNK5QHashI7QStringPN13UnzipFileData10ZippedFileEE8findNodeERKS0_Pj  __ZNK5QHashI7QStringPN13UnzipFileData10ZippedFileEE8findNodeERKS0_Pj
 0000:FFFFFFFF __ZNK5QHashI7QStringS0_E8findNodeERKS0_Pj  __ZNK5QHashI7QStringS0_E8findNodeERKS0_Pj
 0000:FFFFFFFF __ZNK5QHashI7QStringS_IS0_5QIconEE8findNodeERKS0_Pj  __ZNK5QHashI7QStringS_IS0_5QIconEE8findNodeERKS0_Pj
 0000:FFFFFFFF __ZNK5QHashI7QStringS_IS0_5QListIN11IconStorage16IconAnimateFrameEEEE8findNodeERKS0_Pj  __ZNK5QHashI7QStringS_IS0_5QListIN11IconStorage16IconAnimateFrameEEEE8findNodeERKS0_Pj
 0000:FFFFFFFF __ZNK5QHashI7QStringS_IS0_P11IconStorageEE4keysEv  __ZNK5QHashI7QStringS_IS0_P11IconStorageEE4keysEv
 0000:FFFFFFFF __ZNK5QHashI7QStringS_IS0_P11IconStorageEE8findNodeERKS0_Pj  __ZNK5QHashI7QStringS_IS0_P11IconStorageEE8findNodeERKS0_Pj
 0000:FFFFFFFF __ZNK5QHashIi8QVariantE4keysEv  __ZNK5QHashIi8QVariantE4keysEv
 0000:FFFFFFFF __ZNK5QHashIi8QVariantE6valuesERKi  __ZNK5QHashIi8QVariantE6valuesERKi
 0000:FFFFFFFF __ZNK5QHashIP6QMovie4QUrlE4keysEv  __ZNK5QHashIP6QMovie4QUrlE4keysEv
 0000:FFFFFFFF __ZNK5QHashIP7QObjectPN11IconStorage16IconUpdateParamsEE4keysEv  __ZNK5QHashIP7QObjectPN11IconStorage16IconUpdateParamsEE4keysEv
 0000:FFFFFFFF __ZNK5QListI10QByteArrayE5valueEi  __ZNK5QListI10QByteArrayE5valueEi
 0000:FFFFFFFF __ZNK5QListI5QCharE7indexOfERKS0_i  __ZNK5QListI5QCharE7indexOfERKS0_i
 0000:FFFFFFFF __ZNK5QListI5QSizeE5valueEi  __ZNK5QListI5QSizeE5valueEi
 0000:FFFFFFFF __ZNK5QListI7QStringE5toSetEv  __ZNK5QListI7QStringE5toSetEv
 0000:FFFFFFFF __ZNK5QListI7QStringE5valueEi  __ZNK5QListI7QStringE5valueEi
 0000:FFFFFFFF __ZNK5QListI7QStringE7indexOfERKS0_i  __ZNK5QListI7QStringE7indexOfERKS0_i
 0000:FFFFFFFF __ZNK5QListI7QStringE8containsERKS0_  __ZNK5QListI7QStringE8containsERKS0_
 0000:FFFFFFFF __ZNK5QListI7QStringEeqERKS1_  __ZNK5QListI7QStringEeqERKS1_
 0000:FFFFFFFF __ZNK5QListI8QVariantE8containsERKS0_  __ZNK5QListI8QVariantE8containsERKS0_
 0000:FFFFFFFF __ZNK5QListIiE5valueEi  __ZNK5QListIiE5valueEi
 0000:FFFFFFFF __ZNK5QListIN11FileStorage13StorageObjectEE5valueEi  __ZNK5QListIN11FileStorage13StorageObjectEE5valueEi
 0000:FFFFFFFF __ZNK5QListIP7QWidgetE7indexOfERKS1_i  __ZNK5QListIP7QWidgetE7indexOfERKS1_i
 0001:0004D710 __ZNK6Action10metaObjectEv  __ZNK6Action10metaObjectEv
 0001:00014F10 __ZNK6Action10shortcutIdEv  __ZNK6Action10shortcutIdEv
 0001:00014E90    __ZNK6Action4dataEi  __ZNK6Action4dataEi
 0001:00014C20    __ZNK6Action4menuEv  __ZNK6Action4menuEv
 0001:00013E90 __ZNK6Stanza11toByteArrayEv  __ZNK6Stanza11toByteArrayEv
 0001:00014000 __ZNK6Stanza12firstElementERK7QStringS2_  __ZNK6Stanza12firstElementERK7QStringS2_
 0001:00013B10 __ZNK6Stanza12isFromServerEv  __ZNK6Stanza12isFromServerEv
 0001:000139A0      __ZNK6Stanza2idEv  __ZNK6Stanza2idEv
 0001:00013A20      __ZNK6Stanza2toEv  __ZNK6Stanza2toEv
 0001:00013AA0    __ZNK6Stanza4fromEv  __ZNK6Stanza4fromEv
 0001:00013D40    __ZNK6Stanza4langEv  __ZNK6Stanza4langEv
 0001:00013920    __ZNK6Stanza4typeEv  __ZNK6Stanza4typeEv
 0001:000137D0 __ZNK6Stanza7elementEv  __ZNK6Stanza7elementEv
 0001:00014070 __ZNK6Stanza7isValidEv  __ZNK6Stanza7isValidEv
 0001:000138B0 __ZNK6Stanza7tagNameEv  __ZNK6Stanza7tagNameEv
 0001:000137A0 __ZNK6Stanza8documentEv  __ZNK6Stanza8documentEv
 0001:00013DC0 __ZNK6Stanza8toStringEi  __ZNK6Stanza8toStringEi
 0001:00013800 __ZNK6Stanza9attributeERK7QString  __ZNK6Stanza9attributeERK7QString
 0001:0001B180 __ZNK7Message12subjectLangsEv  __ZNK7Message12subjectLangsEv
 0001:0001A670 __ZNK7Message13setTextToElemER11QDomElementRK7QString  __ZNK7Message13setTextToElemER11QDomElementRK7QString
 0001:0001AE70 __ZNK7Message14availableLangsERK11QDomElementRK7QString  __ZNK7Message14availableLangsERK11QDomElementRK7QString
 0001:0001A220 __ZNK7Message14findChidByLangERK11QDomElementRK7QStringS5_  __ZNK7Message14findChidByLangERK11QDomElementRK7QStringS5_
 0001:000199D0     __ZNK7Message2idEv  __ZNK7Message2idEv
 0001:00019A30     __ZNK7Message2toEv  __ZNK7Message2toEv
 0001:0001A420 __ZNK7Message4bodyERK7QString  __ZNK7Message4bodyERK7QString
 0001:00019950   __ZNK7Message4dataEi  __ZNK7Message4dataEi
 0001:00019A00   __ZNK7Message4fromEv  __ZNK7Message4fromEv
 0001:00019AB0   __ZNK7Message4typeEv  __ZNK7Message4typeEv
 0001:00019940 __ZNK7Message6stanzaEv  __ZNK7Message6stanzaEv
 0001:00019A60 __ZNK7Message7defLangEv  __ZNK7Message7defLangEv
 0001:0001A500 __ZNK7Message7subjectERK7QString  __ZNK7Message7subjectERK7QString
 0001:0001A100 __ZNK7Message8dateTimeEv  __ZNK7Message8dateTimeEv
 0001:0001A130 __ZNK7Message8threadIdEv  __ZNK7Message8threadIdEv
 0001:0001B0D0 __ZNK7Message9bodyLangsEv  __ZNK7Message9bodyLangsEv
 0001:00019E00 __ZNK7Message9isDelayedEv  __ZNK7Message9isDelayedEv
 0001:0001A5E0   __ZNK7MessageltERKS_  __ZNK7MessageltERKS_
 0001:0004F270 __ZNK7Options10metaObjectEv  __ZNK7Options10metaObjectEv
 0001:000223F0 __ZNK8DateTime11toX85FormatEbbb  __ZNK8DateTime11toX85FormatEbbb
 0001:00022610 __ZNK8DateTime13toX85DateTimeEv  __ZNK8DateTime13toX85DateTimeEv
 0001:00021EA0 __ZNK8DateTime5toUTCEv  __ZNK8DateTime5toUTCEv
 0001:00021E20 __ZNK8DateTime6isNullEv  __ZNK8DateTime6isNullEv
 0001:00021E40 __ZNK8DateTime7isValidEv  __ZNK8DateTime7isValidEv
 0001:00021F20 __ZNK8DateTime7toLocalEv  __ZNK8DateTime7toLocalEv
 0001:00021E70 __ZNK8DateTime8dateTimeEv  __ZNK8DateTime8dateTimeEv
 0001:00021E60 __ZNK8DateTime8timeZoneEv  __ZNK8DateTime8timeZoneEv
 0001:00021F90 __ZNK8DateTime8toX85TZDEv  __ZNK8DateTime8toX85TZDEv
 0001:00023010 __ZNK8DateTime8toX85UTCEv  __ZNK8DateTime8toX85UTCEv
 0001:00022250 __ZNK8DateTime9toX85DateEv  __ZNK8DateTime9toX85DateEv
 0001:000222A0 __ZNK8DateTime9toX85TimeEv  __ZNK8DateTime9toX85TimeEv
 0001:0004F7A0 __ZNK9Shortcuts10metaObjectEv  __ZNK9Shortcuts10metaObjectEv
 0001:00018250 __ZNK9UnzipFile11zipFileNameEv  __ZNK9UnzipFile11zipFileNameEv
 0001:000187F0 __ZNK9UnzipFile18loadZippedFileDataERK7QString  __ZNK9UnzipFile18loadZippedFileDataERK7QString
 0001:00018230 __ZNK9UnzipFile7isValidEv  __ZNK9UnzipFile7isValidEv
 0001:00018980 __ZNK9UnzipFile8fileDataERK7QString  __ZNK9UnzipFile8fileDataERK7QString
 0001:00018760 __ZNK9UnzipFile8fileSizeERK7QString  __ZNK9UnzipFile8fileSizeERK7QString
 0001:00019380 __ZNK9UnzipFile9fileNamesEv  __ZNK9UnzipFile9fileNamesEv
 0001:0000EAE0 __ZNK9XmppError11errorStringERK7QString  __ZNK9XmppError11errorStringERK7QString
 0001:00006850 __ZNK9XmppError12appConditionERK7QString  __ZNK9XmppError12appConditionERK7QString
 0001:0000ED50 __ZNK9XmppError12errorMessageERK7QStringS2_  __ZNK9XmppError12errorMessageERK7QStringS2_
 0001:00006440 __ZNK9XmppError13conditionTextEv  __ZNK9XmppError13conditionTextEv
 0001:000063C0 __ZNK9XmppError13isStanzaErrorEv  __ZNK9XmppError13isStanzaErrorEv
 0001:000063A0 __ZNK9XmppError13isStreamErrorEv  __ZNK9XmppError13isStreamErrorEv
 0001:00007020 __ZNK9XmppError13toStanzaErrorEv  __ZNK9XmppError13toStanzaErrorEv
 0001:00007080 __ZNK9XmppError13toStreamErrorEv  __ZNK9XmppError13toStreamErrorEv
 0001:00007A90 __ZNK9XmppError14errorTextLangsEv  __ZNK9XmppError14errorTextLangsEv
 0001:000063E0 __ZNK9XmppError15isInternalErrorEv  __ZNK9XmppError15isInternalErrorEv
 0001:00007A60 __ZNK9XmppError18appConditionNsListEv  __ZNK9XmppError18appConditionNsListEv
 0001:00006370 __ZNK9XmppError6isNullEv  __ZNK9XmppError6isNullEv
 0001:00006400 __ZNK9XmppError7errorNsEv  __ZNK9XmppError7errorNsEv
 0001:00006420 __ZNK9XmppError9conditionEv  __ZNK9XmppError9conditionEv
 0001:00006460 __ZNK9XmppError9errorTextERK7QString  __ZNK9XmppError9errorTextERK7QString
 0000:FFFFFFFF __ZrsIi8QVariantER11QDataStreamS2_R4QMapIT_T0_E  __ZrsIi8QVariantER11QDataStreamS2_R4QMapIT_T0_E
 0000:FFFFFFFF __ZrsIj20AdvancedDelegateItemER11QDataStreamS2_R4QMapIT_T0_E  __ZrsIj20AdvancedDelegateItemER11QDataStreamS2_R4QMapIT_T0_E
 0001:00048970 __ZrsR11QDataStreamR20AdvancedDelegateItem  __ZrsR11QDataStreamR20AdvancedDelegateItem
 0001:000037D0 __ZrsR11QDataStreamR3Jid  __ZrsR11QDataStreamR3Jid
 0001:00041EA0 __ZThn8_N11CloseButtonD0Ev  __ZThn8_N11CloseButtonD0Ev
 0001:00041E60 __ZThn8_N11CloseButtonD1Ev  __ZThn8_N11CloseButtonD1Ev
 0001:000424F0 __ZThn8_N14SearchLineEditD0Ev  __ZThn8_N14SearchLineEditD0Ev
 0001:000424C0 __ZThn8_N14SearchLineEditD1Ev  __ZThn8_N14SearchLineEditD1Ev
 0000:FFFFFFFF __ZThn8_N19AnimatedTextBrowserD0Ev  __ZThn8_N19AnimatedTextBrowserD0Ev
 0000:FFFFFFFF __ZThn8_N19AnimatedTextBrowserD1Ev  __ZThn8_N19AnimatedTextBrowserD1Ev
 0001:00015D40     __ZThn8_N4MenuD0Ev  __ZThn8_N4MenuD0Ev
 0001:00015D10     __ZThn8_N4MenuD1Ev  __ZThn8_N4MenuD1Ev
 0000:FFFFFFFF     __ZTI11CloseButton  __ZTI11CloseButton
 0000:FFFFFFFF     __ZTI11FileStorage  __ZTI11FileStorage
 0000:FFFFFFFF     __ZTI11IconStorage  __ZTI11IconStorage
 0000:FFFFFFFF     __ZTI11QLayoutItem  __ZTI11QLayoutItem
 0000:FFFFFFFF    __ZTI12QPaintDevice  __ZTI12QPaintDevice
 0000:FFFFFFFF    __ZTI12QTextBrowser  __ZTI12QTextBrowser
 0000:FFFFFFFF   __ZTI13QItemDelegate  __ZTI13QItemDelegate
 0000:FFFFFFFF   __ZTI13QWidgetAction  __ZTI13QWidgetAction
 0000:FFFFFFFF   __ZTI13SystemManager  __ZTI13SystemManager
 0000:FFFFFFFF   __ZTI13WindowSticker  __ZTI13WindowSticker
 0000:FFFFFFFF  __ZTI14MenuBarChanger  __ZTI14MenuBarChanger
 0000:FFFFFFFF  __ZTI14SearchLineEdit  __ZTI14SearchLineEdit
 0000:FFFFFFFF  __ZTI14ToolBarChanger  __ZTI14ToolBarChanger
 0000:FFFFFFFF __ZTI15IconsetDelegate  __ZTI15IconsetDelegate
 0000:FFFFFFFF __ZTI15QAbstractButton  __ZTI15QAbstractButton
 0000:FFFFFFFF __ZTI16StatusBarChanger  __ZTI16StatusBarChanger
 0000:FFFFFFFF __ZTI16ToolButtonAction  __ZTI16ToolButtonAction
 0000:FFFFFFFF __ZTI19AnimatedTextBrowser  __ZTI19AnimatedTextBrowser
 0000:FFFFFFFF __ZTI19QAbstractScrollArea  __ZTI19QAbstractScrollArea
 0000:FFFFFFFF __ZTI19QStyledItemDelegate  __ZTI19QStyledItemDelegate
 0000:FFFFFFFF __ZTI20AdvancedItemDelegate  __ZTI20AdvancedItemDelegate
 0000:FFFFFFFF __ZTI21QAbstractItemDelegate  __ZTI21QAbstractItemDelegate
 0000:FFFFFFFF __ZTI25AdvancedDelegateEditProxy  __ZTI25AdvancedDelegateEditProxy
 0000:FFFFFFFF __ZTI26AdvancedDelegateLayoutItem  __ZTI26AdvancedDelegateLayoutItem
 0000:FFFFFFFF             __ZTI4Menu  __ZTI4Menu
 0000:FFFFFFFF            __ZTI5QMenu  __ZTI5QMenu
 0000:FFFFFFFF           __ZTI6Action  __ZTI6Action
 0000:FFFFFFFF           __ZTI6QFrame  __ZTI6QFrame
 0000:FFFFFFFF          __ZTI7Options  __ZTI7Options
 0000:FFFFFFFF          __ZTI7QAction  __ZTI7QAction
 0000:FFFFFFFF          __ZTI7QObject  __ZTI7QObject
 0000:FFFFFFFF          __ZTI7QWidget  __ZTI7QWidget
 0000:FFFFFFFF        __ZTI9QLineEdit  __ZTI9QLineEdit
 0000:FFFFFFFF        __ZTI9QTextEdit  __ZTI9QTextEdit
 0000:FFFFFFFF        __ZTI9Shortcuts  __ZTI9Shortcuts
 0000:00000000      __ZTISt9bad_alloc  __ZTISt9bad_alloc
 0000:00000000      __ZTISt9exception  __ZTISt9exception
 0000:FFFFFFFF     __ZTS11CloseButton  __ZTS11CloseButton
 0000:FFFFFFFF     __ZTS11FileStorage  __ZTS11FileStorage
 0000:FFFFFFFF     __ZTS11IconStorage  __ZTS11IconStorage
 0000:FFFFFFFF     __ZTS11QLayoutItem  __ZTS11QLayoutItem
 0000:FFFFFFFF    __ZTS12QPaintDevice  __ZTS12QPaintDevice
 0000:FFFFFFFF    __ZTS12QTextBrowser  __ZTS12QTextBrowser
 0000:FFFFFFFF   __ZTS13QItemDelegate  __ZTS13QItemDelegate
 0000:FFFFFFFF   __ZTS13QWidgetAction  __ZTS13QWidgetAction
 0000:FFFFFFFF   __ZTS13SystemManager  __ZTS13SystemManager
 0000:FFFFFFFF   __ZTS13WindowSticker  __ZTS13WindowSticker
 0000:FFFFFFFF  __ZTS14MenuBarChanger  __ZTS14MenuBarChanger
 0000:FFFFFFFF  __ZTS14SearchLineEdit  __ZTS14SearchLineEdit
 0000:FFFFFFFF  __ZTS14ToolBarChanger  __ZTS14ToolBarChanger
 0000:FFFFFFFF __ZTS15IconsetDelegate  __ZTS15IconsetDelegate
 0000:FFFFFFFF __ZTS15QAbstractButton  __ZTS15QAbstractButton
 0000:FFFFFFFF __ZTS16StatusBarChanger  __ZTS16StatusBarChanger
 0000:FFFFFFFF __ZTS16ToolButtonAction  __ZTS16ToolButtonAction
 0000:FFFFFFFF __ZTS19AnimatedTextBrowser  __ZTS19AnimatedTextBrowser
 0000:FFFFFFFF __ZTS19QAbstractScrollArea  __ZTS19QAbstractScrollArea
 0000:FFFFFFFF __ZTS19QStyledItemDelegate  __ZTS19QStyledItemDelegate
 0000:FFFFFFFF __ZTS20AdvancedItemDelegate  __ZTS20AdvancedItemDelegate
 0000:FFFFFFFF __ZTS21QAbstractItemDelegate  __ZTS21QAbstractItemDelegate
 0000:FFFFFFFF __ZTS25AdvancedDelegateEditProxy  __ZTS25AdvancedDelegateEditProxy
 0000:FFFFFFFF __ZTS26AdvancedDelegateLayoutItem  __ZTS26AdvancedDelegateLayoutItem
 0000:FFFFFFFF             __ZTS4Menu  __ZTS4Menu
 0000:FFFFFFFF            __ZTS5QMenu  __ZTS5QMenu
 0000:FFFFFFFF           __ZTS6Action  __ZTS6Action
 0000:FFFFFFFF           __ZTS6QFrame  __ZTS6QFrame
 0000:FFFFFFFF          __ZTS7Options  __ZTS7Options
 0000:FFFFFFFF          __ZTS7QAction  __ZTS7QAction
 0000:FFFFFFFF          __ZTS7QObject  __ZTS7QObject
 0000:FFFFFFFF          __ZTS7QWidget  __ZTS7QWidget
 0000:FFFFFFFF        __ZTS9QLineEdit  __ZTS9QLineEdit
 0000:FFFFFFFF        __ZTS9QTextEdit  __ZTS9QTextEdit
 0000:FFFFFFFF        __ZTS9Shortcuts  __ZTS9Shortcuts
 0000:00000000      __ZTSSt9bad_alloc  __ZTSSt9bad_alloc
 0000:00000000      __ZTSSt9exception  __ZTSSt9exception
 0000:FFFFFFFF     __ZTV11CloseButton  __ZTV11CloseButton
 0000:FFFFFFFF     __ZTV11FileStorage  __ZTV11FileStorage
 0000:FFFFFFFF     __ZTV11IconStorage  __ZTV11IconStorage
 0000:FFFFFFFF   __ZTV13SystemManager  __ZTV13SystemManager
 0000:FFFFFFFF   __ZTV13WindowSticker  __ZTV13WindowSticker
 0000:FFFFFFFF  __ZTV14MenuBarChanger  __ZTV14MenuBarChanger
 0000:FFFFFFFF  __ZTV14SearchLineEdit  __ZTV14SearchLineEdit
 0000:FFFFFFFF  __ZTV14ToolBarChanger  __ZTV14ToolBarChanger
 0000:FFFFFFFF __ZTV15IconsetDelegate  __ZTV15IconsetDelegate
 0000:FFFFFFFF __ZTV16StatusBarChanger  __ZTV16StatusBarChanger
 0000:FFFFFFFF __ZTV16ToolButtonAction  __ZTV16ToolButtonAction
 0000:FFFFFFFF __ZTV19AnimatedTextBrowser  __ZTV19AnimatedTextBrowser
 0000:FFFFFFFF __ZTV20AdvancedItemDelegate  __ZTV20AdvancedItemDelegate
 0000:FFFFFFFF __ZTV25AdvancedDelegateEditProxy  __ZTV25AdvancedDelegateEditProxy
 0000:FFFFFFFF __ZTV26AdvancedDelegateLayoutItem  __ZTV26AdvancedDelegateLayoutItem
 0000:FFFFFFFF             __ZTV4Menu  __ZTV4Menu
 0000:FFFFFFFF           __ZTV6Action  __ZTV6Action
 0000:FFFFFFFF          __ZTV7Options  __ZTV7Options
 0000:FFFFFFFF        __ZTV9Shortcuts  __ZTV9Shortcuts
 0000:FFFFFFFF __ZZN11QMetaTypeIdI20AdvancedDelegateItemE14qt_metatype_idEvE11metatype_id  __ZZN11QMetaTypeIdI20AdvancedDelegateItemE14qt_metatype_idEvE11metatype_id
 0000:FFFFFFFF __ZZN11QMetaTypeIdI3JidE14qt_metatype_idEvE11metatype_id  __ZZN11QMetaTypeIdI3JidE14qt_metatype_idEvE11metatype_id
 0000:FFFFFFFF __ZZN11QMetaTypeIdI4QMapIj20AdvancedDelegateItemEE14qt_metatype_idEvE11metatype_id  __ZZN11QMetaTypeIdI4QMapIj20AdvancedDelegateItemEE14qt_metatype_idEvE11metatype_id


 Address         Publics by Name
 0000:00000000  Abs  WEAK$ZERO
 0001:0007DBC0       _call_zopen64
 0001:0007DC00       _call_zseek64
 0001:0007DC80       _call_ztell64
 0000:00000000  Imp  _crc32               (QtCore4._crc32)
 0001:00082370       _DLL_InitTerm
 0002:0001AFC0       _edata
 0002:0001F320       _end
 0002:0001AFC4       _EscChars
 0002:0001AFC8       _EscStrings
 0001:00082430       _etext
 0001:0007DD70       _fill_fopen64_filefunc
 0001:0007DD30       _fill_fopen_filefunc
 0001:0007DCD0       _fill_zlib_filefunc64_32_def_from_filefunc32
 0000:00000000  Imp  _inflate             (QtCore4._inflate)
 0000:00000000  Imp  _inflateEnd          (QtCore4._inflateEnd)
 0000:00000000  Imp  _inflateInit2_       (QtCore4._inflateInit2_)
 0002:0001AFC0       _JidCache
 0001:00052EF0       _stringprep
 0001:00052A30       _stringprep_4i
 0001:00053140       _stringprep_4zi
 0001:000525E0       _stringprep_iscsi
 0001:00051FC0       _stringprep_iscsi_prohibit
 0001:00051AE0       _stringprep_kerberos5
 0001:00051A00       _stringprep_nameprep
 0001:00051E80       _stringprep_plain
 0001:00053030       _stringprep_profile
 0001:000519B0       _stringprep_profiles
 0001:00068B80       _stringprep_rfc3454_A_1
 0001:0006B0C0       _stringprep_rfc3454_B_1
 0001:0006B360       _stringprep_rfc3454_B_2
 0001:00073400       _stringprep_rfc3454_B_3
 0001:000782B0       _stringprep_rfc3454_C_1_1
 0001:000782E0       _stringprep_rfc3454_C_1_2
 0001:00078490       _stringprep_rfc3454_C_2_1
 0001:000784E0       _stringprep_rfc3454_C_2_2
 0001:00078680       _stringprep_rfc3454_C_3
 0001:000786E0       _stringprep_rfc3454_C_4
 0001:000788B0       _stringprep_rfc3454_C_5
 0001:000788E0       _stringprep_rfc3454_C_6
 0001:00078970       _stringprep_rfc3454_C_7
 0001:000789A0       _stringprep_rfc3454_C_8
 0001:00078B20       _stringprep_rfc3454_C_9
 0001:00078B70       _stringprep_rfc3454_D_1
 0001:00078EC0       _stringprep_rfc3454_D_2
 0001:00052890       _stringprep_saslprep
 0001:000526E0       _stringprep_saslprep_space_map
 0001:00051F20       _stringprep_trace
 0001:00054110       _stringprep_ucs4_nfkc_normalize
 0001:00053850       _stringprep_ucs4_to_utf8
 0001:000535A0       _stringprep_unichar_to_utf8
 0001:00054160       _stringprep_utf8_nfkc_normalize
 0001:00053880       _stringprep_utf8_to_ucs4
 0001:00053590       _stringprep_utf8_to_unichar
 0001:00051CA0       _stringprep_xmpp_nodeprep
 0001:00051BC0       _stringprep_xmpp_nodeprep_prohibit
 0001:00051DA0       _stringprep_xmpp_resourceprep
 0001:0007C3B0       _unzClose
 0001:0007C300       _unzCloseCurrentFile
 0001:0007B530       _unzeof
 0001:0007C030       _unzGetCurrentFileInfo
 0001:0007C100       _unzGetCurrentFileInfo64
 0001:0007B4B0       _unzGetCurrentFileZStreamPos64
 0001:0007B480       _unzGetFilePos
 0001:0007B420       _unzGetFilePos64
 0001:0007C150       _unzGetGlobalComment
 0001:0007B3F0       _unzGetGlobalInfo
 0001:0007B3C0       _unzGetGlobalInfo64
 0001:0007C210       _unzGetLocalExtrafield
 0001:0007B5B0       _unzGetOffset
 0001:0007B560       _unzGetOffset64
 0001:0007BE70       _unzGoToFilePos
 0001:0007BDD0       _unzGoToFilePos64
 0001:0007BFA0       _unzGoToFirstFile
 0001:0007BEB0       _unzGoToNextFile
 0001:0007D9C0       _unzLocateFile
 0001:0007D830       _unzOpen
 0001:0007D8D0       _unzOpen2
 0001:0007D850       _unzOpen2_64
 0001:0007D810       _unzOpen64
 0001:0007CC60       _unzOpenCurrentFile
 0001:0007CBF0       _unzOpenCurrentFile2
 0001:0007C6D0       _unzOpenCurrentFile3
 0001:0007CC20       _unzOpenCurrentFilePassword
 0001:0007C400       _unzReadCurrentFile
 0001:0007BDA0       _unzSetOffset
 0001:0007BD10       _unzSetOffset64
 0001:0007D930       _unzStringFileNameCompare
 0001:0007B4E0       _unztell
 0001:0007B500       _unztell64
 0001:0007DB60       _unz_copyright
 0000:00000000  Imp  __atfork_callback    (libc065.445)
 0000:00000000  Imp  __CRT_init           (libc065.167)
 0000:00000000  Imp  __CRT_term           (libc065.168)
 0002:00000000       __data
 0002:0001AFC0       __edata
 0002:0001F320       __end
 0000:00000000  Imp  __errno              (libc065.541)
 0001:00082430       __etext
 0000:00000000  Imp  __fmutex_create      (libc065.559)
 0002:0001AE08       __os2dll
 0000:00000000  Imp  __std_abort          (libc065.653)
 0000:00000000  Imp  __std_atexit         (libc065.667)
 0000:00000000  Imp  __std_fclose         (libc065.740)
 0000:00000000  Imp  __std_ferror         (libc065.744)
 0000:00000000  Imp  __std_fopen          (libc065.760)
 0000:00000000  Imp  __std_fread          (libc065.767)
 0000:00000000  Imp  __std_free           (libc065.768)
 0000:00000000  Imp  __std_fseek          (libc065.773)
 0000:00000000  Imp  __std_fseeko         (libc065.774)
 0000:00000000  Imp  __std_ftell          (libc065.780)
 0000:00000000  Imp  __std_ftello         (libc065.781)
 0000:00000000  Imp  __std_fwrite         (libc065.785)
 0000:00000000  Imp  __std_malloc         (libc065.856)
 0000:00000000  Imp  __std_memcpy         (libc065.864)
 0000:00000000  Imp  __std_memmove        (libc065.866)
 0000:00000000  Imp  __std_memset         (libc065.867)
 0000:00000000  Imp  __std_realloc        (libc065.907)
 0000:00000000  Imp  __std_strcmp         (libc065.1000)
 0000:00000000  Imp  __std_strcpy         (libc065.1002)
 0000:00000000  Imp  __std_strlen         (libc065.1009)
 0001:00000000       __text
 0000:00000000  Imp  __Unwind_DeleteException (gcc446.__Unwind_DeleteException)
 0000:00000000  Imp  __Unwind_GetDataRelBase (gcc446.__Unwind_GetDataRelBase)
 0000:00000000  Imp  __Unwind_GetIP       (gcc446.__Unwind_GetIP)
 0000:00000000  Imp  __Unwind_GetLanguageSpecificData (gcc446.__Unwind_GetLanguageSpecificData)
 0000:00000000  Imp  __Unwind_GetRegionStart (gcc446.__Unwind_GetRegionStart)
 0000:00000000  Imp  __Unwind_GetTextRelBase (gcc446.__Unwind_GetTextRelBase)
 0000:00000000  Imp  __Unwind_RaiseException (gcc446.__Unwind_RaiseException)
 0000:00000000  Imp  __Unwind_Resume      (gcc446.__Unwind_Resume)
 0000:00000000  Imp  __Unwind_Resume_or_Rethrow (gcc446.__Unwind_Resume_or_Rethrow)
 0000:00000000  Imp  __Unwind_SetGR       (gcc446.__Unwind_SetGR)
 0000:00000000  Imp  __Unwind_SetIP       (gcc446.__Unwind_SetIP)
 0001:0001CF20       __Z10qDeleteAllIN5QHashI7QStringP11IconStorageE14const_iteratorEEvT_S6_$w$TsYjLNwpfD6WUzhB0
 0001:00018470       __Z10qDeleteAllIN5QHashI7QStringPN13UnzipFileData10ZippedFileEE14const_iteratorEEvT_S7_$w$rYz77ywpfD6ajwMW2
 0001:00031C50       __Z12fullFileNameRK7QStringS1_
 0001:00031A60       __Z13findChildTextRK11QDomElement
 0001:00000310       __Z13stringPreparePK16Stringprep_tableRK7QString
 0001:000321A0       __Z14xtea2_decipherjPjPKj
 0001:000320B0       __Z14xtea2_encipherjPjPKj
 0001:00031B30       __Z15fullOptionsPathRK7QStringS1_
 0001:00035CB0       __Z15stringToVariantRK7QStringN8QVariant4TypeE
 0001:00034490       __Z15variantToStringRK8QVariant
 0001:00036DC0       __Z16exportOptionNodeRK11OptionsNodeR11QDomElement
 0001:000315D0       __Z16findChildElementRK11QDomElementRK7QStringS4_RS2_S5_S5_
 0001:00037F70       __Z16importOptionNodeR11OptionsNodeRK11QDomElement
 0001:00044540       __Z17getSingleLineTextRK7QString
 0001:000474F0       __Z17qRegisterMetaTypeI20AdvancedDelegateItemEiPKcPT_$w$d32ndWypfD6CcIGO3
 0001:00001180       __Z17qRegisterMetaTypeI3JidEiPKcPT_$w$RbmQ7RvpfD690XI54
 0001:00047580       __Z17qRegisterMetaTypeI4QMapIj20AdvancedDelegateItemEEiPKcPT_$w$d32ndWypfD6CcIGO3
 0000:00000000  Imp  __Z17qt_message_output9QtMsgTypePKc (QtCore4.__Z17qt_message_output9QtMsgTypePKc)
 0001:00038FB0       __Z18correctKeySequenceRK12QKeySequence
 0001:00048A60       __Z19qMetaTypeLoadHelperI20AdvancedDelegateItemEvR11QDataStreamPT_$w$d32ndWypfD6CcIGO3
 0001:00003850       __Z19qMetaTypeLoadHelperI3JidEvR11QDataStreamPT_$w$RbmQ7RvpfD690XI54
 0001:00048F10       __Z19qMetaTypeLoadHelperI4QMapIj20AdvancedDelegateItemEEvR11QDataStreamPT_$w$d32ndWypfD6CcIGO3
 0001:00047920       __Z19qMetaTypeSaveHelperI20AdvancedDelegateItemEvR11QDataStreamPKT_$w$d32ndWypfD6CcIGO3
 0001:00001170       __Z19qMetaTypeSaveHelperI3JidEvR11QDataStreamPKT_$w$RbmQ7RvpfD690XI54
 0001:00048610       __Z19qMetaTypeSaveHelperI4QMapIj20AdvancedDelegateItemEEvR11QDataStreamPKT_$w$d32ndWypfD6CcIGO3
 0001:00047C00       __Z21qMetaTypeDeleteHelperI20AdvancedDelegateItemEvPT_$w$d32ndWypfD6CcIGO3
 0001:00000270       __Z21qMetaTypeDeleteHelperI3JidEvPT_$w$RbmQ7RvpfD690XI54
 0001:00047C70       __Z21qMetaTypeDeleteHelperI4QMapIj20AdvancedDelegateItemEEvPT_$w$d32ndWypfD6CcIGO3
 0001:000444D0       __Z22destroyLayoutRecursiveP7QLayout
 0001:00047740       __Z24qMetaTypeConstructHelperI20AdvancedDelegateItemEPvPKT_$w$d32ndWypfD6CcIGO3
 0001:00004520       __Z24qMetaTypeConstructHelperI3JidEPvPKT_$w$RbmQ7RvpfD690XI54
 0001:00048B90       __Z24qMetaTypeConstructHelperI4QMapIj20AdvancedDelegateItemEEPvPKT_$w$d32ndWypfD6CcIGO3
 0001:000011F0       __Z26registerJidStreamOperatorsv
 0001:000475F0       __Z43registerAdvancedDelegateItemStreamOperatorsv
 0000:00000000  Imp  __Z5qFreePv          (QtCore4.__Z5qFreePv)
 0000:00000000  Imp  __Z5qHashRK10QByteArray (QtCore4.__Z5qHashRK10QByteArray)
 0001:000010A0       __Z5qHashRK3Jid
 0000:00000000  Imp  __Z5qHashRK7QString  (QtCore4.__Z5qHashRK7QString)
 0001:00080180       __ZdaPv
 0001:00080160       __ZdlPv
 0000:00000000  Imp  __ZeqRK10QStringRefS1_ (QtCore4.__ZeqRK10QStringRefS1_)
 0001:000477C0       __ZlsIi8QVariantER11QDataStreamS2_RK4QMapIT_T0_E$w$d32ndWypfD6CcIGO3
 0001:000485B0       __ZlsIj20AdvancedDelegateItemER11QDataStreamS2_RK4QMapIT_T0_E$w$d32ndWypfD6CcIGO3
 0000:00000000  Imp  __ZlsR11QDataStreamRK11QSizePolicy (QtGui4.__ZlsR11QDataStreamRK11QSizePolicy)
 0001:00047820       __ZlsR11QDataStreamRK20AdvancedDelegateItem
 0001:00001100       __ZlsR11QDataStreamRK3Jid
 0000:00000000  Imp  __ZlsR11QDataStreamRK7QString (QtCore4.__ZlsR11QDataStreamRK7QString)
 0000:00000000  Imp  __ZlsR11QDataStreamRK8QVariant (QtCore4.__ZlsR11QDataStreamRK8QVariant)
 0000:00000000  Imp  __ZN10QBoxLayout10addStretchEi (QtGui4.__ZN10QBoxLayout10addStretchEi)
 0000:00000000  Imp  __ZN10QBoxLayout10setSpacingEi (QtGui4.__ZN10QBoxLayout10setSpacingEi)
 0000:00000000  Imp  __ZN10QBoxLayout9addLayoutEP7QLayouti (QtGui4.__ZN10QBoxLayout9addLayoutEP7QLayouti)
 0000:00000000  Imp  __ZN10QBoxLayout9addWidgetEP7QWidgeti6QFlagsIN2Qt13AlignmentFlagEE (QtGui4.__ZN10QBoxLayout9addWidgetEP7QWidgeti6QFlagsIN2Qt13AlignmentFlagEE)
 0000:00000000  Imp  __ZN10QByteArray10fromBase64ERKS_ (QtCore4.__ZN10QByteArray10fromBase64ERKS_)
 0000:00000000  Imp  __ZN10QByteArray11shared_nullE (QtCore4.__ZN10QByteArray11shared_nullE)
 0000:00000000  Imp  __ZN10QByteArray6appendERKS_ (QtCore4.__ZN10QByteArray6appendERKS_)
 0000:00000000  Imp  __ZN10QByteArray6expandEi (QtCore4.__ZN10QByteArray6expandEi)
 0000:00000000  Imp  __ZN10QByteArray6numberEji (QtCore4.__ZN10QByteArray6numberEji)
 0000:00000000  Imp  __ZN10QByteArray6resizeEi (QtCore4.__ZN10QByteArray6resizeEi)
 0000:00000000  Imp  __ZN10QByteArray7reallocEi (QtCore4.__ZN10QByteArray7reallocEi)
 0000:00000000  Imp  __ZN10QByteArrayaSERKS_ (QtCore4.__ZN10QByteArrayaSERKS_)
 0000:00000000  Imp  __ZN10QByteArrayC1Eic (QtCore4.__ZN10QByteArrayC1Eic)
 0000:00000000  Imp  __ZN10QByteArrayD1Ev (QtCore4.__ZN10QByteArrayD1Ev)
 0001:000233E0       __ZN10QByteArrayD1Ev$w$9jvlvcxpfD6zc01C1
 0001:00044430       __ZN10QByteArrayD1Ev$w$d32ndWypfD6CcIGO3
 0001:0003E5B0       __ZN10QByteArrayD1Ev$w$LuTRgoypfD6srdWB2
 0001:0002FA20       __ZN10QByteArrayD1Ev$w$NzJLsCxpfD66RP621
 0001:00029AC0       __ZN10QByteArrayD1Ev$w$Pegk7mxpfD6IeT6r2
 0001:00000150       __ZN10QByteArrayD1Ev$w$RbmQ7RvpfD690XI54
 0001:00018190       __ZN10QByteArrayD1Ev$w$rYz77ywpfD6ajwMW2
 0001:0003D6C0       __ZN10QByteArrayD1Ev$w$vujxWdypfD6GmsqJ0
 0001:0007E160       __ZN10QByteArrayD1Ev$w$xvL7aFupfD6iFA5P0
 0001:000314B0       __ZN10QByteArrayD1Ev$w$ZjIoOUxpfD62Qc4R2
 0000:00000000  Imp  __ZN10QStatusBar12insertWidgetEiP7QWidgeti (QtGui4.__ZN10QStatusBar12insertWidgetEiP7QWidgeti)
 0000:00000000  Imp  __ZN10QStatusBar12removeWidgetEP7QWidget (QtGui4.__ZN10QStatusBar12removeWidgetEP7QWidget)
 0000:00000000  Imp  __ZN10QStatusBar18addPermanentWidgetEP7QWidgeti (QtGui4.__ZN10QStatusBar18addPermanentWidgetEP7QWidgeti)
 0000:00000000  Imp  __ZN10QStatusBar21insertPermanentWidgetEiP7QWidgeti (QtGui4.__ZN10QStatusBar21insertPermanentWidgetEiP7QWidgeti)
 0000:00000000  Imp  __ZN10QStatusBar9addWidgetEP7QWidgeti (QtGui4.__ZN10QStatusBar9addWidgetEP7QWidgeti)
 0000:00000000  Imp  __ZN10QTextBlock8iteratorppEv (QtGui4.__ZN10QTextBlock8iteratorppEv)
 0001:0007E050       __ZN10QxtPrivateI17QxtGlobalShortcutED0Ev$w$xvL7aFupfD6iFA5P0
 0001:0007DFF0       __ZN10QxtPrivateI17QxtGlobalShortcutED1Ev$w$xvL7aFupfD6iFA5P0
 0001:00030000       __ZN10RingBuffer4chopEi
 0001:00030690       __ZN10RingBuffer4freeEi
 0001:00030890       __ZN10RingBuffer4readEi
 0001:000307F0       __ZN10RingBuffer4readEPci
 0001:00030930       __ZN10RingBuffer4skipEi
 0001:000301B0       __ZN10RingBuffer5clearEv
 0001:00030660       __ZN10RingBuffer5writeE10QByteArray
 0001:00030600       __ZN10RingBuffer5writeEPKci
 0001:00030360       __ZN10RingBuffer7reserveEi
 0001:00030960       __ZN10RingBuffer8readLineEPci
 0001:00030110       __ZN10RingBuffer8truncateEi
 0001:000302C0       __ZN10RingBufferC1Eii
 0001:000302C0       __ZN10RingBufferC2Eii
 0001:00013610       __ZN10StanzaDataC1ERK11QDomElement
 0001:00013580       __ZN10StanzaDataC1ERK7QString
 0001:000136B0       __ZN10StanzaDataC1ERKS_
 0001:00013610       __ZN10StanzaDataC2ERK11QDomElement
 0001:00013580       __ZN10StanzaDataC2ERK7QString
 0001:000136B0       __ZN10StanzaDataC2ERKS_
 0001:00080B10       __ZN10__cxxabiv111__terminateEPFvvE
 0001:00080B32       __ZN10__cxxabiv112__unexpectedEPFvvE
 0001:00080EF8       __ZN10__cxxabiv117__class_type_infoD0Ev
 0001:00080EE0       __ZN10__cxxabiv117__class_type_infoD1Ev
 0001:00080EC8       __ZN10__cxxabiv117__class_type_infoD2Ev
 0002:0001A610       __ZN10__cxxabiv119__terminate_handlerE
 0001:00080F4A       __ZN10__cxxabiv120__si_class_type_infoD0Ev
 0001:00080F32       __ZN10__cxxabiv120__si_class_type_infoD1Ev
 0001:00080F1A       __ZN10__cxxabiv120__si_class_type_infoD2Ev
 0002:0001A614       __ZN10__cxxabiv120__unexpected_handlerE
 0001:00080F9C       __ZN10__cxxabiv121__vmi_class_type_infoD0Ev
 0001:00080F84       __ZN10__cxxabiv121__vmi_class_type_infoD1Ev
 0001:00080F6C       __ZN10__cxxabiv121__vmi_class_type_infoD2Ev
 0001:00042070       __ZN11CloseButton10enterEventEP6QEvent
 0001:000420B0       __ZN11CloseButton10leaveEventEP6QEvent
 0001:000420F0       __ZN11CloseButton10paintEventEP11QPaintEvent
 0001:00050F10       __ZN11CloseButton11qt_metacallEN11QMetaObject4CallEiPPv
 0001:00050F20       __ZN11CloseButton11qt_metacastEPKc
 0002:00019660       __ZN11CloseButton16staticMetaObjectE
 0001:00041FC0       __ZN11CloseButtonC1EP7QWidget
 0001:00041FC0       __ZN11CloseButtonC2EP7QWidget
 0001:00041E70       __ZN11CloseButtonD0Ev
 0001:00041E40       __ZN11CloseButtonD1Ev
 0001:00041E40       __ZN11CloseButtonD2Ev
 0002:0001B058       __ZN11FileStorage10FInstancesE
 0002:0001B050       __ZN11FileStorage10FMimeTypesE
 0002:0001B068       __ZN11FileStorage11FObjectTagsE
 0001:0004E550       __ZN11FileStorage11qt_metacallEN11QMetaObject4CallEiPPv
 0001:0004E4B0       __ZN11FileStorage11qt_metacastEPKc
 0001:00024B80       __ZN11FileStorage13availStoragesEv
 0002:0001B054       __ZN11FileStorage13FResourceDirsE
 0001:00024380       __ZN11FileStorage13resourcesDirsEv
 0001:00028340       __ZN11FileStorage13setSubStorageERK7QString
 0001:00028530       __ZN11FileStorage13staticStorageERK7QString
 0001:000235E0       __ZN11FileStorage13StorageObjectD1Ev$w$9jvlvcxpfD6zc01C1
 0001:0004E520       __ZN11FileStorage14storageChangedEv
 0001:00024920       __ZN11FileStorage14subStorageDirsERK7QStringS2_
 0002:0001B05C       __ZN11FileStorage15FStaticStoragesE
 0001:00026510       __ZN11FileStorage15loadDefinitionsERK7QStringi
 0001:000243D0       __ZN11FileStorage16availSubStoragesERK7QStringb
 0001:00028840       __ZN11FileStorage16setResourcesDirsERK5QListI7QStringE
 0002:00018B00       __ZN11FileStorage16staticMetaObjectE
 0001:00027C50       __ZN11FileStorage17updateDefinitionsEv
 0002:0001B060       __ZN11FileStorage8FKeyTagsE
 0002:0001B064       __ZN11FileStorage9FFileTagsE
 0001:000283F0       __ZN11FileStorageC1ERK7QStringS2_P7QObject
 0001:000283F0       __ZN11FileStorageC2ERK7QStringS2_P7QObject
 0001:00025610       __ZN11FileStorageD0Ev
 0001:00025470       __ZN11FileStorageD1Ev
 0001:00025470       __ZN11FileStorageD2Ev
 0002:0001B070       __ZN11IconStorage10FIconCacheE
 0001:0004E6D0       __ZN11IconStorage11qt_metacallEN11QMetaObject4CallEiPPv
 0001:0004E770       __ZN11IconStorage11qt_metacastEPKc
 0001:0002BDB0       __ZN11IconStorage12removeObjectEP7QObject
 0001:0002CB30       __ZN11IconStorage12updateObjectEP7QObject
 0002:0001B07C       __ZN11IconStorage13FAnimateCacheE
 0001:0002C190       __ZN11IconStorage13initAnimationEP7QObjectPNS_16IconUpdateParamsE
 0001:0002B560       __ZN11IconStorage13staticStorageERK7QString
 0001:0002B390       __ZN11IconStorage14clearIconCacheEv
 0002:0001B078       __ZN11IconStorage14FObjectStorageE
 0001:0002D780       __ZN11IconStorage14insertAutoIconEP7QObjectRK7QStringiiS4_
 0001:0002D560       __ZN11IconStorage14onAnimateTimerEv
 0001:0002BF00       __ZN11IconStorage14removeAutoIconEP7QObject
 0002:0001B074       __ZN11IconStorage15FStaticStoragesE
 0001:0002BD00       __ZN11IconStorage15removeAnimationEPNS_16IconUpdateParamsE
 0001:0002D630       __ZN11IconStorage16onStorageChangedEv
 0001:0004E7E0       __ZN11IconStorage16staticMetaObjectE
 0001:0002BEC0       __ZN11IconStorage17onObjectDestroyedEP7QObject
 0001:00029E20       __ZN11IconStorageC1ERK7QStringS2_P7QObject
 0001:00029E20       __ZN11IconStorageC2ERK7QStringS2_P7QObject
 0001:0002C0D0       __ZN11IconStorageD0Ev
 0001:0002BF60       __ZN11IconStorageD1Ev
 0001:0002BF60       __ZN11IconStorageD2Ev
 0001:00019500       __ZN11MessageData14updateDateTimeEv
 0001:0001A8C0       __ZN11MessageDataC1ERK6Stanza
 0001:0001B3C0       __ZN11MessageDataC1ERKS_
 0001:0001A950       __ZN11MessageDataC1Ev
 0001:0001A8C0       __ZN11MessageDataC2ERK6Stanza
 0001:0001B3C0       __ZN11MessageDataC2ERKS_
 0001:0001A950       __ZN11MessageDataC2Ev
 0001:000331D0       __ZN11OptionsNode10removeNodeERK7QStringS2_
 0001:00033940       __ZN11OptionsNode12removeChildsERK7QStringS2_
 0002:0001B0B0       __ZN11OptionsNode4nullE
 0001:00036770       __ZN11OptionsNode8setValueERK8QVariantRK7QStringS5_
 0001:00033060       __ZN11OptionsNodeaSERKS_
 0001:000322A0       __ZN11OptionsNodeC1ERK11QDomElement
 0001:00033100       __ZN11OptionsNodeC1ERKS_
 0001:00033120       __ZN11OptionsNodeC1Ev
 0001:000322A0       __ZN11OptionsNodeC2ERK11QDomElement
 0001:00033100       __ZN11OptionsNodeC2ERKS_
 0001:00033120       __ZN11OptionsNodeC2Ev
 0001:00032330       __ZN11OptionsNodeD1Ev
 0001:00032330       __ZN11OptionsNodeD2Ev
 0000:00000000  Imp  __ZN11QDataStream11resetStatusEv (QtCore4.__ZN11QDataStream11resetStatusEv)
 0000:00000000  Imp  __ZN11QDataStream9setStatusENS_6StatusE (QtCore4.__ZN11QDataStream9setStatusENS_6StatusE)
 0000:00000000  Imp  __ZN11QDataStreamC1EP9QIODevice (QtCore4.__ZN11QDataStreamC1EP9QIODevice)
 0000:00000000  Imp  __ZN11QDataStreamD1Ev (QtCore4.__ZN11QDataStreamD1Ev)
 0000:00000000  Imp  __ZN11QDataStreamlsEa (QtCore4.__ZN11QDataStreamlsEa)
 0000:00000000  Imp  __ZN11QDataStreamlsEd (QtCore4.__ZN11QDataStreamlsEd)
 0000:00000000  Imp  __ZN11QDataStreamlsEi (QtCore4.__ZN11QDataStreamlsEi)
 0000:00000000  Imp  __ZN11QDataStreamlsEx (QtCore4.__ZN11QDataStreamlsEx)
 0000:00000000  Imp  __ZN11QDataStreamrsERa (QtCore4.__ZN11QDataStreamrsERa)
 0000:00000000  Imp  __ZN11QDataStreamrsERd (QtCore4.__ZN11QDataStreamrsERd)
 0000:00000000  Imp  __ZN11QDataStreamrsERi (QtCore4.__ZN11QDataStreamrsERi)
 0000:00000000  Imp  __ZN11QDataStreamrsERx (QtCore4.__ZN11QDataStreamrsERx)
 0000:00000000  Imp  __ZN11QDomElement10setTagNameERK7QString (QtXml4.__ZN11QDomElement10setTagNameERK7QString)
 0000:00000000  Imp  __ZN11QDomElement12setAttributeERK7QStringS2_ (QtXml4.__ZN11QDomElement12setAttributeERK7QStringS2_)
 0000:00000000  Imp  __ZN11QDomElement12setAttributeERK7QStringy (QtXml4.__ZN11QDomElement12setAttributeERK7QStringy)
 0000:00000000  Imp  __ZN11QDomElement15removeAttributeERK7QString (QtXml4.__ZN11QDomElement15removeAttributeERK7QString)
 0000:00000000  Imp  __ZN11QDomElementaSERKS_ (QtXml4.__ZN11QDomElementaSERKS_)
 0000:00000000  Imp  __ZN11QDomElementC1ERKS_ (QtXml4.__ZN11QDomElementC1ERKS_)
 0000:00000000  Imp  __ZN11QDomElementC1Ev (QtXml4.__ZN11QDomElementC1Ev)
 0000:00000000  Imp  __ZN11QHBoxLayoutC1EP7QWidget (QtGui4.__ZN11QHBoxLayoutC1EP7QWidget)
 0000:00000000  Imp  __ZN11QHBoxLayoutC1Ev (QtGui4.__ZN11QHBoxLayoutC1Ev)
 0000:00000000  Imp  __ZN11QLayoutItem10spacerItemEv (QtGui4.__ZN11QLayoutItem10spacerItemEv)
 0000:00000000  Imp  __ZN11QLayoutItem12setAlignmentE6QFlagsIN2Qt13AlignmentFlagEE (QtGui4.__ZN11QLayoutItem12setAlignmentE6QFlagsIN2Qt13AlignmentFlagEE)
 0000:00000000  Imp  __ZN11QLayoutItem6layoutEv (QtGui4.__ZN11QLayoutItem6layoutEv)
 0000:00000000  Imp  __ZN11QLayoutItem6widgetEv (QtGui4.__ZN11QLayoutItem6widgetEv)
 0000:00000000  Imp  __ZN11QLayoutItemD2Ev (QtGui4.__ZN11QLayoutItemD2Ev)
 0000:00000000  Imp  __ZN11QMetaObject11changeGuardEPP7QObjectS1_ (QtCore4.__ZN11QMetaObject11changeGuardEPP7QObjectS1_)
 0000:00000000  Imp  __ZN11QMetaObject11removeGuardEPP7QObject (QtCore4.__ZN11QMetaObject11removeGuardEPP7QObject)
 0000:00000000  Imp  __ZN11QMetaObject8activateEP7QObjectPKS_iPPv (QtCore4.__ZN11QMetaObject8activateEP7QObjectPKS_iPPv)
 0000:00000000  Imp  __ZN11QTextCursor10insertTextERK7QString (QtGui4.__ZN11QTextCursor10insertTextERK7QString)
 0000:00000000  Imp  __ZN11QTextCursor11insertImageERK16QTextImageFormat (QtGui4.__ZN11QTextCursor11insertImageERK16QTextImageFormat)
 0000:00000000  Imp  __ZN11QTextCursor11setPositionEiNS_8MoveModeE (QtGui4.__ZN11QTextCursor11setPositionEiNS_8MoveModeE)
 0000:00000000  Imp  __ZN11QTextCursor12endEditBlockEv (QtGui4.__ZN11QTextCursor12endEditBlockEv)
 0000:00000000  Imp  __ZN11QTextCursor12movePositionENS_13MoveOperationENS_8MoveModeEi (QtGui4.__ZN11QTextCursor12movePositionENS_13MoveOperationENS_8MoveModeEi)
 0000:00000000  Imp  __ZN11QTextCursor14beginEditBlockEv (QtGui4.__ZN11QTextCursor14beginEditBlockEv)
 0000:00000000  Imp  __ZN11QTextCursor14insertFragmentERK21QTextDocumentFragment (QtGui4.__ZN11QTextCursor14insertFragmentERK21QTextDocumentFragment)
 0000:00000000  Imp  __ZN11QTextCursor18removeSelectedTextEv (QtGui4.__ZN11QTextCursor18removeSelectedTextEv)
 0000:00000000  Imp  __ZN11QTextCursor6selectENS_13SelectionTypeE (QtGui4.__ZN11QTextCursor6selectENS_13SelectionTypeE)
 0000:00000000  Imp  __ZN11QTextCursorC1EP13QTextDocument (QtGui4.__ZN11QTextCursorC1EP13QTextDocument)
 0000:00000000  Imp  __ZN11QTextCursorD1Ev (QtGui4.__ZN11QTextCursorD1Ev)
 0000:00000000  Imp  __ZN11QTextFormatD2Ev (QtGui4.__ZN11QTextFormatD2Ev)
 0000:00000000  Imp  __ZN11QTextStream8setCodecEPKc (QtCore4.__ZN11QTextStream8setCodecEPKc)
 0000:00000000  Imp  __ZN11QTextStreamC1EP7QString6QFlagsIN9QIODevice12OpenModeFlagEE (QtCore4.__ZN11QTextStreamC1EP7QString6QFlagsIN9QIODevice12OpenModeFlagEE)
 0000:00000000  Imp  __ZN11QTextStreamD1Ev (QtCore4.__ZN11QTextStreamD1Ev)
 0000:00000000  Imp  __ZN11QTextStreamlsEc (QtCore4.__ZN11QTextStreamlsEc)
 0000:00000000  Imp  __ZN11QTextStreamlsERK7QString (QtCore4.__ZN11QTextStreamlsERK7QString)
 0000:00000000  Imp  __ZN11QToolButton12setArrowTypeEN2Qt9ArrowTypeE (QtGui4.__ZN11QToolButton12setArrowTypeEN2Qt9ArrowTypeE)
 0000:00000000  Imp  __ZN11QToolButton12setAutoRaiseEb (QtGui4.__ZN11QToolButton12setAutoRaiseEb)
 0000:00000000  Imp  __ZN11QToolButton12setPopupModeENS_19ToolButtonPopupModeE (QtGui4.__ZN11QToolButton12setPopupModeENS_19ToolButtonPopupModeE)
 0000:00000000  Imp  __ZN11QToolButton16setDefaultActionEP7QAction (QtGui4.__ZN11QToolButton16setDefaultActionEP7QAction)
 0000:00000000  Imp  __ZN11QToolButton16staticMetaObjectE (QtGui4.__ZN11QToolButton16staticMetaObjectE)
 0000:00000000  Imp  __ZN11QToolButton18setToolButtonStyleEN2Qt15ToolButtonStyleE (QtGui4.__ZN11QToolButton18setToolButtonStyleEN2Qt15ToolButtonStyleE)
 0000:00000000  Imp  __ZN11QToolButtonC1EP7QWidget (QtGui4.__ZN11QToolButtonC1EP7QWidget)
 0000:00000000  Imp  __ZN11QVBoxLayoutC1Ev (QtGui4.__ZN11QVBoxLayoutC1Ev)
 0001:0003D740       __ZN11TextManager15getDocumentBodyERK13QTextDocument
 0001:0003DBE0       __ZN11TextManager19getTextFragmentHrefERK21QTextDocumentFragment
 0001:0003DF60       __ZN11TextManager20insertQuotedFragmentE11QTextCursorRK21QTextDocumentFragment
 0001:0003E0C0       __ZN11TextManager22getTrimmedTextFragmentERK21QTextDocumentFragmentb
 0001:00021D10       __ZN12DateTimeDataC1ERK9QDateTimei
 0001:00021D80       __ZN12DateTimeDataC1ERKS_
 0001:00021D10       __ZN12DateTimeDataC2ERK9QDateTimei
 0001:00021D80       __ZN12DateTimeDataC2ERKS_
 0001:0007FEF0       __ZN12IdlePlatform11secondsIdleEv
 0001:0007FEE0       __ZN12IdlePlatform4initEv
 0001:0007FE90       __ZN12IdlePlatformC1Ev
 0001:0007FE90       __ZN12IdlePlatformC2Ev
 0001:0007FEB0       __ZN12IdlePlatformD1Ev
 0001:0007FEB0       __ZN12IdlePlatformD2Ev
 0001:00043130       __ZN12ImageManager10grayscaledERK6QImage
 0001:00043C80       __ZN12ImageManager10opacitizedERK6QImaged
 0001:00043F70       __ZN12ImageManager12rotatedImageERK6QImaged
 0001:00043460       __ZN12ImageManager12roundSquaredERK6QImageii
 0001:00043210       __ZN12ImageManager7squaredERK6QImagei
 0001:00043E00       __ZN12ImageManager8addSpaceERK6QImageiiii
 0001:00043860       __ZN12ImageManager9addShadowERK6QImageRK6QColorRK6QPoint
 0001:00043B00       __ZN12ImageManager9colorizedERK6QImageRK6QColor
 0000:00000000  Imp  __ZN12QApplication5alertEP7QWidgeti (QtGui4.__ZN12QApplication5alertEP7QWidgeti)
 0000:00000000  Imp  __ZN12QApplication5styleEv (QtGui4.__ZN12QApplication5styleEv)
 0000:00000000  Imp  __ZN12QApplication7desktopEv (QtGui4.__ZN12QApplication7desktopEv)
 0000:00000000  Imp  __ZN12QDomDocument10importNodeERK8QDomNodeb (QtXml4.__ZN12QDomDocument10importNodeERK8QDomNodeb)
 0000:00000000  Imp  __ZN12QDomDocument10setContentERK10QByteArraybP7QStringPiS5_ (QtXml4.__ZN12QDomDocument10setContentERK10QByteArraybP7QStringPiS5_)
 0000:00000000  Imp  __ZN12QDomDocument13createElementERK7QString (QtXml4.__ZN12QDomDocument13createElementERK7QString)
 0000:00000000  Imp  __ZN12QDomDocument14createTextNodeERK7QString (QtXml4.__ZN12QDomDocument14createTextNodeERK7QString)
 0000:00000000  Imp  __ZN12QDomDocument15createElementNSERK7QStringS2_ (QtXml4.__ZN12QDomDocument15createElementNSERK7QStringS2_)
 0000:00000000  Imp  __ZN12QDomDocumentaSERKS_ (QtXml4.__ZN12QDomDocumentaSERKS_)
 0000:00000000  Imp  __ZN12QDomDocumentC1ERKS_ (QtXml4.__ZN12QDomDocumentC1ERKS_)
 0000:00000000  Imp  __ZN12QDomDocumentC1Ev (QtXml4.__ZN12QDomDocumentC1Ev)
 0000:00000000  Imp  __ZN12QDomDocumentD1Ev (QtXml4.__ZN12QDomDocumentD1Ev)
 0000:00000000  Imp  __ZN12QFontMetricsaSERKS_ (QtGui4.__ZN12QFontMetricsaSERKS_)
 0000:00000000  Imp  __ZN12QFontMetricsC1ERK5QFont (QtGui4.__ZN12QFontMetricsC1ERK5QFont)
 0000:00000000  Imp  __ZN12QFontMetricsD1Ev (QtGui4.__ZN12QFontMetricsD1Ev)
 0000:00000000  Imp  __ZN12QImageReader4readEv (QtGui4.__ZN12QImageReader4readEv)
 0000:00000000  Imp  __ZN12QImageReaderC1ERK7QStringRK10QByteArray (QtGui4.__ZN12QImageReaderC1ERK7QStringRK10QByteArray)
 0000:00000000  Imp  __ZN12QImageReaderD1Ev (QtGui4.__ZN12QImageReaderD1Ev)
 0000:00000000  Imp  __ZN12QKeySequence10fromStringERK7QStringNS_14SequenceFormatE (QtGui4.__ZN12QKeySequence10fromStringERK7QStringNS_14SequenceFormatE)
 0000:00000000  Imp  __ZN12QKeySequenceaSERKS_ (QtGui4.__ZN12QKeySequenceaSERKS_)
 0000:00000000  Imp  __ZN12QKeySequenceC1Eiiii (QtGui4.__ZN12QKeySequenceC1Eiiii)
 0000:00000000  Imp  __ZN12QKeySequenceC1ERKS_ (QtGui4.__ZN12QKeySequenceC1ERKS_)
 0000:00000000  Imp  __ZN12QKeySequenceC1Ev (QtGui4.__ZN12QKeySequenceC1Ev)
 0000:00000000  Imp  __ZN12QKeySequenceD1Ev (QtGui4.__ZN12QKeySequenceD1Ev)
 0000:00000000  Imp  __ZN12QStyleOption4initEPK7QWidget (QtGui4.__ZN12QStyleOption4initEPK7QWidget)
 0000:00000000  Imp  __ZN12QStyleOptionaSERKS_ (QtGui4.__ZN12QStyleOptionaSERKS_)
 0000:00000000  Imp  __ZN12QStyleOptionC1Eii (QtGui4.__ZN12QStyleOptionC1Eii)
 0000:00000000  Imp  __ZN12QStyleOptionD1Ev (QtGui4.__ZN12QStyleOptionD1Ev)
 0000:00000000  Imp  __ZN12QStyleOptionD2Ev (QtGui4.__ZN12QStyleOptionD2Ev)
 0000:00000000  Imp  __ZN12QTextBrowser10paintEventEP11QPaintEvent (QtGui4.__ZN12QTextBrowser10paintEventEP11QPaintEvent)
 0000:00000000  Imp  __ZN12QTextBrowser11qt_metacallEN11QMetaObject4CallEiPPv (QtGui4.__ZN12QTextBrowser11qt_metacallEN11QMetaObject4CallEiPPv)
 0000:00000000  Imp  __ZN12QTextBrowser11qt_metacastEPKc (QtGui4.__ZN12QTextBrowser11qt_metacastEPKc)
 0000:00000000  Imp  __ZN12QTextBrowser12loadResourceEiRK4QUrl (QtGui4.__ZN12QTextBrowser12loadResourceEiRK4QUrl)
 0000:00000000  Imp  __ZN12QTextBrowser13focusOutEventEP11QFocusEvent (QtGui4.__ZN12QTextBrowser13focusOutEventEP11QFocusEvent)
 0000:00000000  Imp  __ZN12QTextBrowser13keyPressEventEP9QKeyEvent (QtGui4.__ZN12QTextBrowser13keyPressEventEP9QKeyEvent)
 0000:00000000  Imp  __ZN12QTextBrowser14mouseMoveEventEP11QMouseEvent (QtGui4.__ZN12QTextBrowser14mouseMoveEventEP11QMouseEvent)
 0000:00000000  Imp  __ZN12QTextBrowser15mousePressEventEP11QMouseEvent (QtGui4.__ZN12QTextBrowser15mousePressEventEP11QMouseEvent)
 0000:00000000  Imp  __ZN12QTextBrowser16staticMetaObjectE (QtGui4.__ZN12QTextBrowser16staticMetaObjectE)
 0000:00000000  Imp  __ZN12QTextBrowser17mouseReleaseEventEP11QMouseEvent (QtGui4.__ZN12QTextBrowser17mouseReleaseEventEP11QMouseEvent)
 0000:00000000  Imp  __ZN12QTextBrowser18focusNextPrevChildEb (QtGui4.__ZN12QTextBrowser18focusNextPrevChildEb)
 0000:00000000  Imp  __ZN12QTextBrowser4homeEv (QtGui4.__ZN12QTextBrowser4homeEv)
 0000:00000000  Imp  __ZN12QTextBrowser5eventEP6QEvent (QtGui4.__ZN12QTextBrowser5eventEP6QEvent)
 0000:00000000  Imp  __ZN12QTextBrowser6reloadEv (QtGui4.__ZN12QTextBrowser6reloadEv)
 0000:00000000  Imp  __ZN12QTextBrowser7forwardEv (QtGui4.__ZN12QTextBrowser7forwardEv)
 0000:00000000  Imp  __ZN12QTextBrowser8backwardEv (QtGui4.__ZN12QTextBrowser8backwardEv)
 0000:00000000  Imp  __ZN12QTextBrowser9setSourceERK4QUrl (QtGui4.__ZN12QTextBrowser9setSourceERK4QUrl)
 0000:00000000  Imp  __ZN12QTextBrowserC2EP7QWidget (QtGui4.__ZN12QTextBrowserC2EP7QWidget)
 0000:00000000  Imp  __ZN12QTextBrowserD2Ev (QtGui4.__ZN12QTextBrowserD2Ev)
 0000:00000000  Imp  __ZN13QItemDelegate11eventFilterEP7QObjectP6QEvent (QtGui4.__ZN13QItemDelegate11eventFilterEP7QObjectP6QEvent)
 0000:00000000  Imp  __ZN13QItemDelegate11qt_metacallEN11QMetaObject4CallEiPPv (QtGui4.__ZN13QItemDelegate11qt_metacallEN11QMetaObject4CallEiPPv)
 0000:00000000  Imp  __ZN13QItemDelegate11qt_metacastEPKc (QtGui4.__ZN13QItemDelegate11qt_metacastEPKc)
 0000:00000000  Imp  __ZN13QItemDelegateC2EP7QObject (QtGui4.__ZN13QItemDelegateC2EP7QObject)
 0000:00000000  Imp  __ZN13QItemDelegateD2Ev (QtGui4.__ZN13QItemDelegateD2Ev)
 0000:00000000  Imp  __ZN13QNetworkReply16staticMetaObjectE (QtNet4.__ZN13QNetworkReply16staticMetaObjectE)
 0000:00000000  Imp  __ZN13QTextDocument11addResourceEiRK4QUrlRK8QVariant (QtGui4.__ZN13QTextDocument11addResourceEiRK4QUrlRK8QVariant)
 0000:00000000  Imp  __ZN13QTextDocument7setHtmlERK7QString (QtGui4.__ZN13QTextDocument7setHtmlERK7QString)
 0000:00000000  Imp  __ZN13QTextDocumentC1EP7QObject (QtGui4.__ZN13QTextDocumentC1EP7QObject)
 0000:00000000  Imp  __ZN13QTextDocumentD1Ev (QtGui4.__ZN13QTextDocumentD1Ev)
 0000:00000000  Imp  __ZN13QWidgetAction11eventFilterEP7QObjectP6QEvent (QtGui4.__ZN13QWidgetAction11eventFilterEP7QObjectP6QEvent)
 0000:00000000  Imp  __ZN13QWidgetAction11qt_metacallEN11QMetaObject4CallEiPPv (QtGui4.__ZN13QWidgetAction11qt_metacallEN11QMetaObject4CallEiPPv)
 0000:00000000  Imp  __ZN13QWidgetAction11qt_metacastEPKc (QtGui4.__ZN13QWidgetAction11qt_metacastEPKc)
 0000:00000000  Imp  __ZN13QWidgetAction12deleteWidgetEP7QWidget (QtGui4.__ZN13QWidgetAction12deleteWidgetEP7QWidget)
 0000:00000000  Imp  __ZN13QWidgetAction5eventEP6QEvent (QtGui4.__ZN13QWidgetAction5eventEP6QEvent)
 0000:00000000  Imp  __ZN13QWidgetActionC2EP7QObject (QtGui4.__ZN13QWidgetActionC2EP7QObject)
 0000:00000000  Imp  __ZN13QWidgetActionD2Ev (QtGui4.__ZN13QWidgetActionD2Ev)
 0001:0003D5C0       __ZN13SystemManager10systemIdleEv
 0001:000500E0       __ZN13SystemManager11qt_metacallEN11QMetaObject4CallEiPPv
 0001:00050030       __ZN13SystemManager11qt_metacastEPKc
 0001:0003D670       __ZN13SystemManager13onIdleChangedEi
 0001:0003D630       __ZN13SystemManager14stopSystemIdleEv
 0001:0003D5F0       __ZN13SystemManager15startSystemIdleEv
 0002:000191E0       __ZN13SystemManager16staticMetaObjectE
 0001:000500A0       __ZN13SystemManager17systemIdleChangedEi
 0001:0003D5D0       __ZN13SystemManager18isSystemIdleActiveEv
 0002:0001B110       __ZN13SystemManager1dE
 0001:0003D510       __ZN13SystemManager8instanceEv
 0001:00050000       __ZN13SystemManagerD0Ev$w$30HJgxApfD62bIYd0
 0001:0004FFE0       __ZN13SystemManagerD1Ev$w$30HJgxApfD62bIYd0
 0001:00018330       __ZN13UnzipFileDataC1ERKS_
 0001:000181F0       __ZN13UnzipFileDataC1Ev
 0001:00018330       __ZN13UnzipFileDataC2ERKS_
 0001:000181F0       __ZN13UnzipFileDataC2Ev
 0001:000184F0       __ZN13UnzipFileDataD1Ev
 0001:000184F0       __ZN13UnzipFileDataD2Ev
 0001:00005770       __ZN13VersionParseraSERKS_
 0001:00005E90       __ZN13VersionParserC1ERK7QString
 0001:00005130       __ZN13VersionParserC1Essss
 0001:00005E90       __ZN13VersionParserC2ERK7QString
 0001:00005130       __ZN13VersionParserC2Essss
 0001:00005160       __ZN13VersionParserD1Ev
 0001:00005160       __ZN13VersionParserD2Ev
 0001:00030F00       __ZN13WidgetManager11alertWidgetEP7QWidget
 0001:000311E0       __ZN13WidgetManager11alignWindowEP7QWidget6QFlagsIN2Qt13AlignmentFlagEE
 0001:00030E20       __ZN13WidgetManager11raiseWidgetEP7QWidget
 0001:00031310       __ZN13WidgetManager13alignGeometryERK5QSizePK7QWidget6QFlagsIN2Qt13AlignmentFlagEE
 0001:00030E30       __ZN13WidgetManager14isActiveWindowEPK7QWidget
 0001:00030EF0       __ZN13WidgetManager15setWindowStickyEP7QWidgetb
 0001:00030F50       __ZN13WidgetManager15windowAlignmentEPK7QWidget
 0001:00030F30       __ZN13WidgetManager20isWidgetAlertEnabledEv
 0001:00030F40       __ZN13WidgetManager21setWidgetAlertEnabledEb
 0001:00030E80       __ZN13WidgetManager23showActivateRaiseWindowEP7QWidget
 0001:00031060       __ZN13WidgetManager9alignRectERK5QRectS2_6QFlagsIN2Qt13AlignmentFlagEE
 0001:00030AC0       __ZN13WindowSticker11eventFilterEP7QObjectP6QEvent
 0001:00030DC0       __ZN13WindowSticker12insertWindowEP7QWidget
 0001:00030DF0       __ZN13WindowSticker12removeWindowEP7QWidget
 0001:00030D60       __ZN13WindowSticker8instanceEv
 0001:00030D00       __ZN13WindowStickerC1Ev
 0001:00030D00       __ZN13WindowStickerC2Ev
 0001:00030A90       __ZN13WindowStickerD0Ev$w$jmQ2EKxpfD6jv6463
 0001:00030A70       __ZN13WindowStickerD1Ev$w$jmQ2EKxpfD6jv6463
 0001:0002E570       __ZN14MenuBarChanger10insertMenuEP4Menui
 0001:0002E360       __ZN14MenuBarChanger10removeMenuEP4Menu
 0001:0004EA40       __ZN14MenuBarChanger11menuRemovedEP4Menu
 0001:0004EAC0       __ZN14MenuBarChanger11qt_metacallEN11QMetaObject4CallEiPPv
 0001:0004E980       __ZN14MenuBarChanger11qt_metacastEPKc
 0001:0004E9F0       __ZN14MenuBarChanger12menuInsertedEP4MenuS1_i
 0001:0002E470       __ZN14MenuBarChanger15onMenuDestroyedEP4Menu
 0002:00018C10       __ZN14MenuBarChanger16staticMetaObjectE
 0001:0004EA80       __ZN14MenuBarChanger23menuBarChangerDestroyedEPS_
 0001:0002E480       __ZN14MenuBarChanger5clearEv
 0001:0002DB30       __ZN14MenuBarChangerC1EP8QMenuBar
 0001:0002DB30       __ZN14MenuBarChangerC2EP8QMenuBar
 0001:0002DCD0       __ZN14MenuBarChangerD0Ev
 0001:0002DC40       __ZN14MenuBarChangerD1Ev
 0001:0002DC40       __ZN14MenuBarChangerD2Ev
 0001:00051270       __ZN14SearchLineEdit10searchNextEv
 0001:000512A0       __ZN14SearchLineEdit11qt_metacallEN11QMetaObject4CallEiPPv
 0001:000511D0       __ZN14SearchLineEdit11qt_metacastEPKc
 0001:00051240       __ZN14SearchLineEdit11searchStartEv
 0001:00042530       __ZN14SearchLineEdit14restartTimeoutEi
 0002:00019670       __ZN14SearchLineEdit16staticMetaObjectE
 0001:00042720       __ZN14SearchLineEdit17updateTextMarginsEv
 0001:00043000       __ZN14SearchLineEdit19onStartTimerTimeoutEv
 0001:000428A0       __ZN14SearchLineEdit19updateLayoutMarginsEv
 0001:00043020       __ZN14SearchLineEdit20onClearButtonClickedEv
 0001:00042860       __ZN14SearchLineEdit20setSearchMenuVisibleEb
 0001:000430E0       __ZN14SearchLineEdit21onLineEditTextChangedERK7QString
 0001:00042570       __ZN14SearchLineEdit21setStartSearchTimeoutEi
 0001:00043050       __ZN14SearchLineEdit23onLineEditReturnPressedEv
 0001:000425B0       __ZN14SearchLineEdit27setSelectTextOnFocusEnabledEb
 0001:000425F0       __ZN14SearchLineEdit5eventEP6QEvent
 0001:00042830       __ZN14SearchLineEdit9showEventEP10QShowEvent
 0001:00042AE0       __ZN14SearchLineEditC1EP7QWidget
 0001:00042AE0       __ZN14SearchLineEditC2EP7QWidget
 0001:000424D0       __ZN14SearchLineEditD0Ev
 0001:00042470       __ZN14SearchLineEditD1Ev
 0001:00042470       __ZN14SearchLineEditD2Ev
 0001:000217D0       __ZN14ToolBarChanger10removeItemEP7QAction
 0001:0004E110       __ZN14ToolBarChanger11itemRemovedEP7QAction
 0001:0004E190       __ZN14ToolBarChanger11qt_metacallEN11QMetaObject4CallEiPPv
 0001:0004E040       __ZN14ToolBarChanger11qt_metacastEPKc
 0001:00020CC0       __ZN14ToolBarChanger12insertActionEP6Actioni
 0001:00020FC0       __ZN14ToolBarChanger12insertWidgetEP7QWidgeti
 0001:0004E0B0       __ZN14ToolBarChanger12itemInsertedEP7QActionS1_P6ActionP7QWidgeti
 0001:0001F580       __ZN14ToolBarChanger13updateVisibleEv
 0002:00018A00       __ZN14ToolBarChanger16staticMetaObjectE
 0001:000219E0       __ZN14ToolBarChanger17onWidgetDestroyedEP7QObject
 0001:00020B60       __ZN14ToolBarChanger20insertGroupSeparatorEiP7QAction
 0001:000216D0       __ZN14ToolBarChanger20removeGroupSeparatorEi
 0001:0001FF60       __ZN14ToolBarChanger20setSeparatorsVisibleEb
 0001:0001FDE0       __ZN14ToolBarChanger22updateSeparatorVisibleEv
 0001:0001F5F0       __ZN14ToolBarChanger23setAutoHideEmptyToolbarEb
 0001:0004E150       __ZN14ToolBarChanger23toolBarChangerDestroyedEPS_
 0001:00021B40       __ZN14ToolBarChanger5clearEv
 0001:00021230       __ZN14ToolBarChangerC1EP8QToolBar
 0001:00021230       __ZN14ToolBarChangerC2EP8QToolBar
 0001:0001F860       __ZN14ToolBarChangerD0Ev
 0001:0001F710       __ZN14ToolBarChangerD1Ev
 0001:0001F710       __ZN14ToolBarChangerD2Ev
 0001:0001C8C0       __ZN15IconsetDelegate11editorEventEP6QEventP18QAbstractItemModelRK20QStyleOptionViewItemRK11QModelIndex
 0001:0001CC40       __ZN15IconsetDelegateC1EP7QObject
 0001:0001CC40       __ZN15IconsetDelegateC2EP7QObject
 0001:0001D5E0       __ZN15IconsetDelegateD0Ev
 0001:0001D2D0       __ZN15IconsetDelegateD1Ev
 0001:0001D2D0       __ZN15IconsetDelegateD2Ev
 0000:00000000  Imp  __ZN15QAbstractButton10timerEventEP11QTimerEvent (QtGui4.__ZN15QAbstractButton10timerEventEP11QTimerEvent)
 0000:00000000  Imp  __ZN15QAbstractButton11changeEventEP6QEvent (QtGui4.__ZN15QAbstractButton11changeEventEP6QEvent)
 0000:00000000  Imp  __ZN15QAbstractButton11qt_metacallEN11QMetaObject4CallEiPPv (QtGui4.__ZN15QAbstractButton11qt_metacallEN11QMetaObject4CallEiPPv)
 0000:00000000  Imp  __ZN15QAbstractButton11qt_metacastEPKc (QtGui4.__ZN15QAbstractButton11qt_metacastEPKc)
 0000:00000000  Imp  __ZN15QAbstractButton12animateClickEi (QtGui4.__ZN15QAbstractButton12animateClickEi)
 0000:00000000  Imp  __ZN15QAbstractButton12focusInEventEP11QFocusEvent (QtGui4.__ZN15QAbstractButton12focusInEventEP11QFocusEvent)
 0000:00000000  Imp  __ZN15QAbstractButton13checkStateSetEv (QtGui4.__ZN15QAbstractButton13checkStateSetEv)
 0000:00000000  Imp  __ZN15QAbstractButton13focusOutEventEP11QFocusEvent (QtGui4.__ZN15QAbstractButton13focusOutEventEP11QFocusEvent)
 0000:00000000  Imp  __ZN15QAbstractButton13keyPressEventEP9QKeyEvent (QtGui4.__ZN15QAbstractButton13keyPressEventEP9QKeyEvent)
 0000:00000000  Imp  __ZN15QAbstractButton14mouseMoveEventEP11QMouseEvent (QtGui4.__ZN15QAbstractButton14mouseMoveEventEP11QMouseEvent)
 0000:00000000  Imp  __ZN15QAbstractButton14nextCheckStateEv (QtGui4.__ZN15QAbstractButton14nextCheckStateEv)
 0000:00000000  Imp  __ZN15QAbstractButton15keyReleaseEventEP9QKeyEvent (QtGui4.__ZN15QAbstractButton15keyReleaseEventEP9QKeyEvent)
 0000:00000000  Imp  __ZN15QAbstractButton15mousePressEventEP11QMouseEvent (QtGui4.__ZN15QAbstractButton15mousePressEventEP11QMouseEvent)
 0000:00000000  Imp  __ZN15QAbstractButton16staticMetaObjectE (QtGui4.__ZN15QAbstractButton16staticMetaObjectE)
 0000:00000000  Imp  __ZN15QAbstractButton17mouseReleaseEventEP11QMouseEvent (QtGui4.__ZN15QAbstractButton17mouseReleaseEventEP11QMouseEvent)
 0000:00000000  Imp  __ZN15QAbstractButton5eventEP6QEvent (QtGui4.__ZN15QAbstractButton5eventEP6QEvent)
 0000:00000000  Imp  __ZN15QAbstractButton7setIconERK5QIcon (QtGui4.__ZN15QAbstractButton7setIconERK5QIcon)
 0000:00000000  Imp  __ZN15QAbstractButtonC2EP7QWidget (QtGui4.__ZN15QAbstractButtonC2EP7QWidget)
 0000:00000000  Imp  __ZN15QAbstractButtonD2Ev (QtGui4.__ZN15QAbstractButtonD2Ev)
 0000:00000000  Imp  __ZN15QNetworkRequestC1ERK4QUrl (QtNet4.__ZN15QNetworkRequestC1ERK4QUrl)
 0000:00000000  Imp  __ZN15QNetworkRequestD1Ev (QtNet4.__ZN15QNetworkRequestD1Ev)
 0001:00007280       __ZN15XmppStanzaError10codeByTypeERK7QString
 0001:000106C0       __ZN15XmppStanzaError10initializeEv
 0001:00007FD0       __ZN15XmppStanzaError10setErrorByERK7QString
 0001:00006A90       __ZN15XmppStanzaError10typeByCodeENS_9ErrorTypeE
 0002:0001B018       __ZN15XmppStanzaError11FErrorTypesE
 0001:00008090       __ZN15XmppStanzaError12setConditionENS_14ErrorConditionE
 0001:00007F30       __ZN15XmppStanzaError12setErrorTypeENS_9ErrorTypeE
 0001:00007370       __ZN15XmppStanzaError15codeByConditionERK7QString
 0001:00006B90       __ZN15XmppStanzaError15conditionByCodeENS_14ErrorConditionE
 0002:0001B020       __ZN15XmppStanzaError15FConditionTypesE
 0001:00006B20       __ZN15XmppStanzaError15typeByConditionENS_14ErrorConditionE
 0002:0001B01C       __ZN15XmppStanzaError16FErrorConditionsE
 0001:00009ED0       __ZN15XmppStanzaError20registerStanzaErrorsEv
 0002:0001B02C       __ZN15XmppStanzaError4nullE
 0001:00009140       __ZN15XmppStanzaErrorC1E11QDomElement
 0001:00008760       __ZN15XmppStanzaErrorC1ENS_14ErrorConditionERK7QStringNS_9ErrorTypeES3_
 0001:00007010       __ZN15XmppStanzaErrorC1ERK18QSharedDataPointerI13XmppErrorDataE
 0001:00012CE0       __ZN15XmppStanzaErrorC1ERK6Stanza
 0001:00013050       __ZN15XmppStanzaErrorC1Ev
 0001:00009140       __ZN15XmppStanzaErrorC2E11QDomElement
 0001:00008760       __ZN15XmppStanzaErrorC2ENS_14ErrorConditionERK7QStringNS_9ErrorTypeES3_
 0001:00007010       __ZN15XmppStanzaErrorC2ERK18QSharedDataPointerI13XmppErrorDataE
 0001:00012CE0       __ZN15XmppStanzaErrorC2ERK6Stanza
 0001:00013050       __ZN15XmppStanzaErrorC2Ev
 0001:00006D80       __ZN15XmppStanzaErrorD1Ev$w$f88ZN9wpfD61qkSl0
 0001:0000EEF0       __ZN15XmppStreamError10initializeEv
 0001:000080F0       __ZN15XmppStreamError12setConditionENS_14ErrorConditionE
 0001:00007190       __ZN15XmppStreamError15codeByConditionERK7QString
 0001:000069C0       __ZN15XmppStreamError15conditionByCodeENS_14ErrorConditionE
 0002:0001B014       __ZN15XmppStreamError16FErrorConditionsE
 0001:0000C3E0       __ZN15XmppStreamError20registerStreamErrorsEv
 0002:0001B028       __ZN15XmppStreamError4nullE
 0001:00009400       __ZN15XmppStreamErrorC1E11QDomElement
 0001:00008890       __ZN15XmppStreamErrorC1ENS_14ErrorConditionERK7QString
 0001:00007070       __ZN15XmppStreamErrorC1ERK18QSharedDataPointerI13XmppErrorDataE
 0001:000130A0       __ZN15XmppStreamErrorC1Ev
 0001:00009400       __ZN15XmppStreamErrorC2E11QDomElement
 0001:00008890       __ZN15XmppStreamErrorC2ENS_14ErrorConditionERK7QString
 0001:00007070       __ZN15XmppStreamErrorC2ERK18QSharedDataPointerI13XmppErrorDataE
 0001:000130A0       __ZN15XmppStreamErrorC2Ev
 0000:00000000  Imp  __ZN16QCoreApplication4selfE (QtCore4.__ZN16QCoreApplication4selfE)
 0000:00000000  Imp  __ZN16QCoreApplication9postEventEP7QObjectP6QEventi (QtCore4.__ZN16QCoreApplication9postEventEP7QObjectP6QEventi)
 0000:00000000  Imp  __ZN16QCoreApplication9translateEPKcS1_S1_NS_8EncodingE (QtCore4.__ZN16QCoreApplication9translateEPKcS1_S1_NS_8EncodingE)
 0000:00000000  Imp  __ZN16QDomNamedNodeMapD1Ev (QtXml4.__ZN16QDomNamedNodeMapD1Ev)
 0001:0002E920       __ZN16StatusBarChanger11eventFilterEP7QObjectP6QEvent
 0001:0004EED0       __ZN16StatusBarChanger11qt_metacallEN11QMetaObject4CallEiPPv
 0001:0004ED80       __ZN16StatusBarChanger11qt_metacastEPKc
 0001:0002F220       __ZN16StatusBarChanger12insertWidgetEP7QWidgetibi
 0001:0002F7C0       __ZN16StatusBarChanger12removeWidgetEP7QWidget
 0001:0002E870       __ZN16StatusBarChanger13updateVisibleEv
 0001:0004EE50       __ZN16StatusBarChanger13widgetRemovedEP7QWidget
 0001:0004EDF0       __ZN16StatusBarChanger14widgetInsertedEP7QWidgetS1_ibi
 0001:0002E9A0       __ZN16StatusBarChanger15onChangeVisibleEv
 0002:00018D10       __ZN16StatusBarChanger16staticMetaObjectE
 0001:0002F5B0       __ZN16StatusBarChanger17onWidgetDestroyedEP7QObject
 0001:0002E900       __ZN16StatusBarChanger19setManageVisibilityEb
 0001:0004EE90       __ZN16StatusBarChanger25statusBarChangerDestroyedEPS_
 0001:0002F8D0       __ZN16StatusBarChanger5clearEv
 0001:0002EB50       __ZN16StatusBarChangerC1EP10QStatusBar
 0001:0002EB50       __ZN16StatusBarChangerC2EP10QStatusBar
 0001:0002EAF0       __ZN16StatusBarChangerD0Ev
 0001:0002EA60       __ZN16StatusBarChangerD1Ev
 0001:0002EA60       __ZN16StatusBarChangerD2Ev
 0001:0001F0B0       __ZN16ToolButtonAction12createWidgetEP7QWidget$w$1bvUwWwpfD6jhKW62
 0001:0001F270       __ZN16ToolButtonActionD0Ev$w$1bvUwWwpfD6jhKW62
 0001:0001F1D0       __ZN16ToolButtonActionD1Ev$w$1bvUwWwpfD6jhKW62
 0000:00000000  Imp  __ZN17QDomCharacterData7setDataERK7QString (QtXml4.__ZN17QDomCharacterData7setDataERK7QString)
 0001:0007E450       __ZN17QxtGlobalShortcut10setEnabledEb
 0001:0007F280       __ZN17QxtGlobalShortcut11qt_metacallEN11QMetaObject4CallEiPPv
 0001:0007F1E0       __ZN17QxtGlobalShortcut11qt_metacastEPKc
 0001:0007E470       __ZN17QxtGlobalShortcut11setDisabledEb
 0001:0007F010       __ZN17QxtGlobalShortcut11setShortcutERK12QKeySequence
 0002:00019EA0       __ZN17QxtGlobalShortcut16staticMetaObjectE
 0001:0007F250       __ZN17QxtGlobalShortcut9activatedEv
 0001:0007E380       __ZN17QxtGlobalShortcutC1EP7QObject
 0001:0007F050       __ZN17QxtGlobalShortcutC1ERK12QKeySequenceP7QObject
 0001:0007E380       __ZN17QxtGlobalShortcutC2EP7QObject
 0001:0007F050       __ZN17QxtGlobalShortcutC2ERK12QKeySequenceP7QObject
 0001:0007EB10       __ZN17QxtGlobalShortcutD0Ev
 0001:0007EAA0       __ZN17QxtGlobalShortcutD1Ev
 0001:0007EAA0       __ZN17QxtGlobalShortcutD2Ev
 0000:00000000  Imp  __ZN18QCryptographicHash4hashERK10QByteArrayNS_9AlgorithmE (QtCore4.__ZN18QCryptographicHash4hashERK10QByteArrayNS_9AlgorithmE)
 0000:00000000  Imp  __ZN18QItemEditorFactory14defaultFactoryEv (QtGui4.__ZN18QItemEditorFactory14defaultFactoryEv)
 0001:000144B0       __ZN18QSharedDataPointerI10StanzaDataE13detach_helperEv$w$jSyFoewpfD6ZPOCx2
 0001:00014310       __ZN18QSharedDataPointerI10StanzaDataED1Ev$w$jSyFoewpfD6ZPOCx2
 0001:0001B4B0       __ZN18QSharedDataPointerI11MessageDataE13detach_helperEv$w$Nlg6JEwpfD61JVHa4
 0001:0001AA50       __ZN18QSharedDataPointerI11MessageDataED1Ev$w$Nlg6JEwpfD61JVHa4
 0001:000230E0       __ZN18QSharedDataPointerI12DateTimeDataE13detach_helperEv$w$XWSbO0xpfD6TKWN22
 0001:00022D70       __ZN18QSharedDataPointerI12DateTimeDataED1Ev$w$XWSbO0xpfD6TKWN22
 0001:00018A10       __ZN18QSharedDataPointerI13UnzipFileDataE13detach_helperEv$w$rYz77ywpfD6ajwMW2
 0001:000185C0       __ZN18QSharedDataPointerI13UnzipFileDataED1Ev$w$rYz77ywpfD6ajwMW2
 0001:00007CE0       __ZN18QSharedDataPointerI13XmppErrorDataE13detach_helperEv$w$f88ZN9wpfD61qkSl0
 0001:00006C50       __ZN18QSharedDataPointerI13XmppErrorDataED1Ev$w$f88ZN9wpfD61qkSl0
 0001:00002040       __ZN18QSharedDataPointerI7JidDataE13detach_helperEv$w$RbmQ7RvpfD690XI54
 0001:000012A0       __ZN18QSharedDataPointerI7JidDataED1Ev$w$RbmQ7RvpfD690XI54
 0001:000504B0       __ZN19AnimatedTextBrowser11qt_metacallEN11QMetaObject4CallEiPPv
 0001:00050300       __ZN19AnimatedTextBrowser11qt_metacastEPKc
 0001:00041C30       __ZN19AnimatedTextBrowser11setAnimatedEb
 0001:00040070       __ZN19AnimatedTextBrowser12addAnimationERK4QUrlRK8QVariant
 0001:00040710       __ZN19AnimatedTextBrowser12loadResourceEiRK4QUrl
 0001:00050430       __ZN19AnimatedTextBrowser14resourceLoadedERK4QUrl
 0001:00050470       __ZN19AnimatedTextBrowser15resourceUpdatedERK4QUrl
 0001:00041B50       __ZN19AnimatedTextBrowser16onMovieDestroyedEP7QObject
 0002:00019340       __ZN19AnimatedTextBrowser16staticMetaObjectE
 0001:00040C50       __ZN19AnimatedTextBrowser22onResourceLoadFinishedEv
 0001:00041960       __ZN19AnimatedTextBrowser23onAnimationFrameChangedEv
 0001:0003E7C0       __ZN19AnimatedTextBrowser23setNetworkAccessManagerEP21QNetworkAccessManager
 0001:0003FA00       __ZN19AnimatedTextBrowser25onDocumentContentsChangedEiii
 0001:00040F60       __ZN19AnimatedTextBrowser25onUpdateDocumentAnimationEv
 0001:0003E810       __ZN19AnimatedTextBrowser26onVerticalScrollBarChangedEv
 0001:00050400       __ZN19AnimatedTextBrowser30visiblePositionBoundaryChangedEv
 0001:0003E7D0       __ZN19AnimatedTextBrowser9showEventEP10QShowEvent
 0001:0003E9E0       __ZN19AnimatedTextBrowserC1EP7QWidget
 0001:0003E9E0       __ZN19AnimatedTextBrowserC2EP7QWidget
 0001:00050880       __ZN19AnimatedTextBrowserD0Ev$w$z2IZSJApfD6uTITD3
 0001:000506D0       __ZN19AnimatedTextBrowserD1Ev$w$z2IZSJApfD6uTITD3
 0000:00000000  Imp  __ZN19QAbstractScrollArea13viewportEventEP6QEvent (QtGui4.__ZN19QAbstractScrollArea13viewportEventEP6QEvent)
 0000:00000000  Imp  __ZN19QStyledItemDelegate11eventFilterEP7QObjectP6QEvent (QtGui4.__ZN19QStyledItemDelegate11eventFilterEP7QObjectP6QEvent)
 0000:00000000  Imp  __ZN19QStyledItemDelegate11qt_metacallEN11QMetaObject4CallEiPPv (QtGui4.__ZN19QStyledItemDelegate11qt_metacallEN11QMetaObject4CallEiPPv)
 0000:00000000  Imp  __ZN19QStyledItemDelegate11qt_metacastEPKc (QtGui4.__ZN19QStyledItemDelegate11qt_metacastEPKc)
 0000:00000000  Imp  __ZN19QStyledItemDelegate16staticMetaObjectE (QtGui4.__ZN19QStyledItemDelegate16staticMetaObjectE)
 0000:00000000  Imp  __ZN19QStyledItemDelegateC2EP7QObject (QtGui4.__ZN19QStyledItemDelegateC2EP7QObject)
 0000:00000000  Imp  __ZN19QStyledItemDelegateD2Ev (QtGui4.__ZN19QStyledItemDelegateD2Ev)
 0001:00044810       __ZN20AdvancedDelegateItem11getPositionEj
 0002:0001B154       __ZN20AdvancedDelegateItem12CheckStateIdE
 0002:0001B158       __ZN20AdvancedDelegateItem12DecorationIdE
 0001:000447F0       __ZN20AdvancedDelegateItem13makeStretchIdEhh
 0001:00048170       __ZN20AdvancedDelegateItem6detachEv
 0001:000447D0       __ZN20AdvancedDelegateItem6makeIdEhht
 0001:0004D570       __ZN20AdvancedDelegateItem6NullIdE
 0002:0001B150       __ZN20AdvancedDelegateItem8BranchIdE
 0001:00044820       __ZN20AdvancedDelegateItem8getFloorEj
 0001:00044830       __ZN20AdvancedDelegateItem8getOrderEj
 0002:0001B15C       __ZN20AdvancedDelegateItem9DisplayIdE
 0001:00047960       __ZN20AdvancedDelegateItemaSERKS_
 0001:00047670       __ZN20AdvancedDelegateItemC1Ej
 0001:00044760       __ZN20AdvancedDelegateItemC1ERKS_
 0001:00047670       __ZN20AdvancedDelegateItemC2Ej
 0001:00044760       __ZN20AdvancedDelegateItemC2ERKS_
 0001:00047A30       __ZN20AdvancedDelegateItemD1Ev
 0001:00047A30       __ZN20AdvancedDelegateItemD2Ev
 0001:0004C050       __ZN20AdvancedItemDelegate11editorEventEP6QEventP18QAbstractItemModelRK20QStyleOptionViewItemRK11QModelIndex
 0001:00051740       __ZN20AdvancedItemDelegate11qt_metacallEN11QMetaObject4CallEiPPv
 0001:000516A0       __ZN20AdvancedItemDelegate11qt_metacastEPKc
 0001:00044BE0       __ZN20AdvancedItemDelegate11setEditRoleEi
 0001:00046C50       __ZN20AdvancedItemDelegate12itemSizeHintERK20AdvancedDelegateItemRK22QStyleOptionViewItemV4
 0001:00044BC0       __ZN20AdvancedItemDelegate12setBlinkModeENS_9BlinkModeE
 0001:00044C20       __ZN20AdvancedItemDelegate12setEditProxyEP25AdvancedDelegateEditProxy
 0001:00044AC0       __ZN20AdvancedItemDelegate12setItemsRoleEi
 0001:00046B90       __ZN20AdvancedItemDelegate13isItemVisibleERK20AdvancedDelegateItemRK22QStyleOptionViewItemV4
 0001:00044C00       __ZN20AdvancedItemDelegate13setEditItemIdEj
 0002:00019740       __ZN20AdvancedItemDelegate16staticMetaObjectE
 0001:00051710       __ZN20AdvancedItemDelegate16updateBlinkItemsEv
 0001:00044AE0       __ZN20AdvancedItemDelegate17setVertialSpacingEi
 0001:00047410       __ZN20AdvancedItemDelegate19onBlinkTimerTimeoutEv
 0001:00044B80       __ZN20AdvancedItemDelegate19setContentsMargingsERK8QMargins
 0001:00044B20       __ZN20AdvancedItemDelegate19setFocusRectVisibleEb
 0001:00044B00       __ZN20AdvancedItemDelegate20setHorizontalSpacingEi
 0001:00044B40       __ZN20AdvancedItemDelegate27setDefaultBranchItemEnabledEb
 0001:00044930       __ZN20AdvancedItemDelegateC1EP7QObject
 0001:00044930       __ZN20AdvancedItemDelegateC2EP7QObject
 0001:00044A90       __ZN20AdvancedItemDelegateD0Ev
 0001:00044A50       __ZN20AdvancedItemDelegateD1Ev
 0001:00044A50       __ZN20AdvancedItemDelegateD2Ev
 0001:00044490       __ZN20QStyleOptionViewItemD2Ev$w$d32ndWypfD6CcIGO3
 0000:00000000  Imp  __ZN21QNetworkAccessManager3getERK15QNetworkRequest (QtNet4.__ZN21QNetworkAccessManager3getERK15QNetworkRequest)
 0000:00000000  Imp  __ZN21QStyleOptionFocusRectC1Ev (QtGui4.__ZN21QStyleOptionFocusRectC1Ev)
 0000:00000000  Imp  __ZN22QStyleOptionViewItemV3C2Ei (QtGui4.__ZN22QStyleOptionViewItemV3C2Ei)
 0000:00000000  Imp  __ZN22QStyleOptionViewItemV4C1ERK20QStyleOptionViewItem (QtGui4.__ZN22QStyleOptionViewItemV4C1ERK20QStyleOptionViewItem)
 0000:00000000  Imp  __ZN22QStyleOptionViewItemV4C1Ev (QtGui4.__ZN22QStyleOptionViewItemV4C1Ev)
 0001:00044840       __ZN22QStyleOptionViewItemV4D1Ev$w$d32ndWypfD6CcIGO3
 0000:00000000  Imp  __ZN24QAbstractEventDispatcher14setEventFilterEPFbPvE (QtCore4.__ZN24QAbstractEventDispatcher14setEventFilterEPFbPvE)
 0000:00000000  Imp  __ZN24QAbstractEventDispatcher8instanceEP7QThread (QtCore4.__ZN24QAbstractEventDispatcher8instanceEP7QThread)
 0001:0007F620       __ZN24QxtGlobalShortcutPrivate11eventFilterEPv
 0001:0007EB60       __ZN24QxtGlobalShortcutPrivate11setShortcutERK12QKeySequence
 0001:0007F670       __ZN24QxtGlobalShortcutPrivate13nativeKeycodeEN2Qt3KeyE
 0001:0007E720       __ZN24QxtGlobalShortcutPrivate13unsetShortcutEv
 0001:0007F630       __ZN24QxtGlobalShortcutPrivate15nativeModifiersE6QFlagsIN2Qt16KeyboardModifierEE
 0002:0001B268       __ZN24QxtGlobalShortcutPrivate15prevEventFilterE
 0001:0007E510       __ZN24QxtGlobalShortcutPrivate16activateShortcutEjj
 0001:0007F990       __ZN24QxtGlobalShortcutPrivate16registerShortcutEjj
 0001:0007F9A0       __ZN24QxtGlobalShortcutPrivate18unregisterShortcutEjj
 0002:0001B264       __ZN24QxtGlobalShortcutPrivate3refE
 0002:0001B260       __ZN24QxtGlobalShortcutPrivate5errorE
 0002:0001B26C       __ZN24QxtGlobalShortcutPrivate9shortcutsE
 0001:0007E300       __ZN24QxtGlobalShortcutPrivateC1Ev
 0001:0007E300       __ZN24QxtGlobalShortcutPrivateC2Ev
 0001:0007E0F0       __ZN24QxtGlobalShortcutPrivateD0Ev
 0001:0007E070       __ZN24QxtGlobalShortcutPrivateD1Ev
 0001:0007E070       __ZN24QxtGlobalShortcutPrivateD2Ev
 0001:00044240       __ZN25AdvancedDelegateEditProxy12createEditorEPK20AdvancedItemDelegateP7QWidgetRK20QStyleOptionViewItemRK11QModelIndex
 0001:00044260       __ZN25AdvancedDelegateEditProxy12setModelDataEPK20AdvancedItemDelegateP7QWidgetP18QAbstractItemModelRK11QModelIndex
 0001:00044250       __ZN25AdvancedDelegateEditProxy13setEditorDataEPK20AdvancedItemDelegateP7QWidgetRK11QModelIndex
 0001:00044140       __ZN26AdvancedDelegateLayoutItem10invalidateEv$w$d32ndWypfD6CcIGO3
 0001:00044280       __ZN26AdvancedDelegateLayoutItem11setGeometryERK5QRect$w$d32ndWypfD6CcIGO3
 0001:00047CC0       __ZN26AdvancedDelegateLayoutItemD0Ev$w$d32ndWypfD6CcIGO3
 0001:00047AE0       __ZN26AdvancedDelegateLayoutItemD1Ev$w$d32ndWypfD6CcIGO3
 0001:00001010       __ZN3Jid11nodePrepareERK7QString
 0001:00003860       __ZN3Jid11setResourceERK7QString
 0001:00001040       __ZN3Jid13domainPrepareERK7QString
 0001:000042B0       __ZN3Jid13fromUserInputERK7QString
 0001:00002100       __ZN3Jid15parseFromStringERK7QString
 0001:00001070       __ZN3Jid15resourcePrepareERK7QString
 0002:0001AFCC       __ZN3Jid4nullE
 0001:00000D10       __ZN3Jid6decodeERK7QString
 0001:00000A90       __ZN3Jid6encodeERK7QString
 0001:00001930       __ZN3Jid6escapeERK7QString
 0001:00003DA0       __ZN3Jid7setNodeERK7QString
 0001:00001470       __ZN3Jid8unescapeERK7QString
 0001:00003B00       __ZN3Jid9setDomainERK7QString
 0001:000037C0       __ZN3JidaSERK7QString
 0001:00004FE0       __ZN3JidC1EPKc
 0001:00004270       __ZN3JidC1ERK7QString
 0001:00004040       __ZN3JidC1ERK7QStringS2_S2_
 0001:00004FE0       __ZN3JidC2EPKc
 0001:00004270       __ZN3JidC2ERK7QString
 0001:00004040       __ZN3JidC2ERK7QStringS2_S2_
 0001:00000700       __ZN3JidD1Ev
 0001:00000700       __ZN3JidD2Ev
 0001:0007FFD0       __ZN4Idle11qt_metacallEN11QMetaObject4CallEiPPv
 0001:0007FF20       __ZN4Idle11qt_metacastEPKc
 0001:0007FF90       __ZN4Idle11secondsIdleEi
 0002:0001A260       __ZN4Idle16staticMetaObjectE
 0001:0007FD00       __ZN4Idle4stopEv
 0001:0007FC50       __ZN4Idle5startEv
 0001:0007FD20       __ZN4Idle7doCheckEv
 0001:0007F9D0       __ZN4IdleC1Ev
 0001:0007F9D0       __ZN4IdleC2Ev
 0001:0007FC10       __ZN4IdleD0Ev
 0001:0007FB40       __ZN4IdleD1Ev
 0001:0007FB40       __ZN4IdleD2Ev
 0001:0004DB90       __ZN4Menu11qt_metacallEN11QMetaObject4CallEiPPv
 0001:0004D9D0       __ZN4Menu11qt_metacastEPKc
 0001:00017310       __ZN4Menu12removeActionEP6Action
 0001:0004DA90       __ZN4Menu13actionRemovedEP6Action
 0001:0004DB50       __ZN4Menu13menuDestroyedEPS_
 0001:0004DA40       __ZN4Menu14actionInsertedEP7QActionP6Actionib
 0001:00017D00       __ZN4Menu14addMenuActionsEPKS_ib
 0001:00017EC0       __ZN4Menu16copyStandardMenuEPS_P5QMenui
 0001:0004DB10       __ZN4Menu16separatorRemovedEP7QAction
 0002:000188B0       __ZN4Menu16staticMetaObjectE
 0001:00017530       __ZN4Menu17onActionDestroyedEP6Action
 0001:0004DAD0       __ZN4Menu17separatorInsertedEP6ActionP7QAction
 0001:00017540       __ZN4Menu5clearEv
 0001:00015AA0       __ZN4Menu7setIconERK5QIcon
 0001:000159C0       __ZN4Menu7setIconERK7QStringS2_i
 0001:00015B70       __ZN4Menu8setTitleERK7QString
 0001:00017630       __ZN4Menu9addActionEP6Actionib
 0001:00015D50       __ZN4MenuC1EP7QWidget
 0001:00015D50       __ZN4MenuC2EP7QWidget
 0001:00015D20       __ZN4MenuD0Ev
 0001:00015C30       __ZN4MenuD1Ev
 0001:00015C30       __ZN4MenuD2Ev
 0000:00000000  Imp  __ZN4QDir2cdERK7QString (QtCore4.__ZN4QDir2cdERK7QString)
 0000:00000000  Imp  __ZN4QDir4cdUpEv     (QtCore4.__ZN4QDir4cdUpEv)
 0000:00000000  Imp  __ZN4QDir9cleanPathERK7QString (QtCore4.__ZN4QDir9cleanPathERK7QString)
 0000:00000000  Imp  __ZN4QDirC1ERK7QString (QtCore4.__ZN4QDirC1ERK7QString)
 0000:00000000  Imp  __ZN4QDirD1Ev        (QtCore4.__ZN4QDirD1Ev)
 0001:00007AC0       __ZN4QMapI7QStringS0_E13detach_helperEv$w$f88ZN9wpfD61qkSl0
 0001:00007BA0       __ZN4QMapI7QStringS0_E6removeERKS0_$w$f88ZN9wpfD61qkSl0
 0001:00006C20       __ZN4QMapI7QStringS0_ED1Ev$w$f88ZN9wpfD61qkSl0
 0001:00008190       __ZN4QMapI7QStringS_IS0_S0_EE11node_createEP8QMapDataPPNS3_4NodeERKS0_RKS1_$w$f88ZN9wpfD61qkSl0
 0001:000094D0       __ZN4QMapI7QStringS_IS0_S0_EE13detach_helperEv$w$f88ZN9wpfD61qkSl0
 0001:00007100       __ZN4QMapI7QStringS_IS0_S0_EED1Ev$w$f88ZN9wpfD61qkSl0
 0001:00009640       __ZN4QMapI7QStringS_IS0_S_IS0_S0_EEE11node_createEP8QMapDataPPNS4_4NodeERKS0_RKS2_$w$f88ZN9wpfD61qkSl0
 0001:00009730       __ZN4QMapI7QStringS_IS0_S_IS0_S0_EEE13detach_helperEv$w$f88ZN9wpfD61qkSl0
 0001:00048050       __ZN4QMapIi8QVariantE13detach_helperEv$w$d32ndWypfD6CcIGO3
 0001:00047930       __ZN4QMapIi8QVariantED1Ev$w$d32ndWypfD6CcIGO3
 0001:0004A3E0       __ZN4QMapIi9QMultiMapIiP26AdvancedDelegateLayoutItemEE13detach_helperEv$w$d32ndWypfD6CcIGO3
 0001:00048510       __ZN4QMapIi9QMultiMapIiP26AdvancedDelegateLayoutItemEED1Ev$w$d32ndWypfD6CcIGO3
 0001:0004A0E0       __ZN4QMapIiP10QBoxLayoutE13detach_helperEv$w$d32ndWypfD6CcIGO3
 0001:00047E70       __ZN4QMapIiP10QBoxLayoutED1Ev$w$d32ndWypfD6CcIGO3
 0001:0004A310       __ZN4QMapIiP26AdvancedDelegateLayoutItemE13detach_helperEv$w$d32ndWypfD6CcIGO3
 0001:00047E40       __ZN4QMapIiP26AdvancedDelegateLayoutItemED1Ev$w$d32ndWypfD6CcIGO3
 0001:00047E10       __ZN4QMapIiP26AdvancedDelegateLayoutItemED2Ev$w$d32ndWypfD6CcIGO3
 0001:0002E160       __ZN4QMapIiP4MenuE13detach_helperEv$w$NJUslsxpfD6s41Bc4
 0001:0002E240       __ZN4QMapIiP4MenuE5eraseENS2_8iteratorE$w$NJUslsxpfD6s41Bc4
 0001:0002DC00       __ZN4QMapIiP4MenuED2Ev$w$NJUslsxpfD6s41Bc4
 0001:00016C50       __ZN4QMapIiP6ActionE13detach_helperEv$w$xxeCqtwpfD6zMw8g2
 0001:00017000       __ZN4QMapIiP6ActionE5eraseENS2_8iteratorE$w$xxeCqtwpfD6zMw8g2
 0001:00015BF0       __ZN4QMapIiP6ActionED2Ev$w$xxeCqtwpfD6zMw8g2
 0001:00020A80       __ZN4QMapIiP7QActionE13detach_helperEv$w$1bvUwWwpfD6jhKW62
 0001:000170F0       __ZN4QMapIiP7QActionE13detach_helperEv$w$xxeCqtwpfD6zMw8g2
 0001:00021370       __ZN4QMapIiP7QActionE4takeERKi$w$1bvUwWwpfD6jhKW62
 0001:000171D0       __ZN4QMapIiP7QActionE6removeERKi$w$xxeCqtwpfD6zMw8g2
 0001:0001F610       __ZN4QMapIiP7QActionED1Ev$w$1bvUwWwpfD6jhKW62
 0001:00015BB0       __ZN4QMapIiP7QActionED1Ev$w$xxeCqtwpfD6zMw8g2
 0001:00020570       __ZN4QMapIiP7QWidgetE13detach_helperEv$w$1bvUwWwpfD6jhKW62
 0001:0002F110       __ZN4QMapIiP7QWidgetE13detach_helperEv$w$xHJjEyxpfD6DCJYr2
 0001:00020650       __ZN4QMapIiP7QWidgetE5eraseENS2_8iteratorE$w$1bvUwWwpfD6jhKW62
 0001:0002F4C0       __ZN4QMapIiP7QWidgetE5eraseENS2_8iteratorE$w$xHJjEyxpfD6DCJYr2
 0001:0001F690       __ZN4QMapIiP7QWidgetED2Ev$w$1bvUwWwpfD6jhKW62
 0001:0002EA20       __ZN4QMapIiP7QWidgetED2Ev$w$xHJjEyxpfD6DCJYr2
 0001:0004A530       __ZN4QMapIiS_Ii9QMultiMapIiP26AdvancedDelegateLayoutItemEEE13detach_helperEv$w$d32ndWypfD6CcIGO3
 0001:0004A1C0       __ZN4QMapIiS_IiP10QBoxLayoutEE13detach_helperEv$w$d32ndWypfD6CcIGO3
 0001:00048A70       __ZN4QMapIj20AdvancedDelegateItemE13detach_helperEv$w$d32ndWypfD6CcIGO3
 0001:00047DE0       __ZN4QMapIj20AdvancedDelegateItemED1Ev$w$d32ndWypfD6CcIGO3
 0001:000105D0       __ZN4QMapIN15XmppStanzaError14ErrorConditionE7QStringE13detach_helperEv$w$f88ZN9wpfD61qkSl0
 0001:00010500       __ZN4QMapIN15XmppStanzaError14ErrorConditionENS0_9ErrorTypeEE13detach_helperEv$w$f88ZN9wpfD61qkSl0
 0001:00010430       __ZN4QMapIN15XmppStanzaError9ErrorTypeE7QStringE13detach_helperEv$w$f88ZN9wpfD61qkSl0
 0001:0000EE20       __ZN4QMapIN15XmppStreamError14ErrorConditionE7QStringE13detach_helperEv$w$f88ZN9wpfD61qkSl0
 0001:0003BFF0       __ZN4QMapIP17QxtGlobalShortcut7QStringE13detach_helperEv$w$vu3Ll5ypfD6l2vO20
 0001:0003C0C0       __ZN4QMapIP17QxtGlobalShortcut7QStringE6removeERKS1_$w$vu3Ll5ypfD6l2vO20
 0001:000208B0       __ZN4QMapIP6ActionP11QToolButtonE13detach_helperEv$w$1bvUwWwpfD6jhKW62
 0001:00020990       __ZN4QMapIP6ActionP11QToolButtonE5eraseENS4_8iteratorE$w$1bvUwWwpfD6jhKW62
 0001:0001F6D0       __ZN4QMapIP6ActionP11QToolButtonED1Ev$w$1bvUwWwpfD6jhKW62
 0001:0003B4A0       __ZN4QMapIP7QObject7QStringE13detach_helperEv$w$vu3Ll5ypfD6l2vO20
 0001:0003B570       __ZN4QMapIP7QObject7QStringE6removeERKS1_$w$vu3Ll5ypfD6l2vO20
 0001:00020740       __ZN4QMapIP7QWidgetP7QActionE13detach_helperEv$w$1bvUwWwpfD6jhKW62
 0001:00020820       __ZN4QMapIP7QWidgetP7QActionE4takeERKS1_$w$1bvUwWwpfD6jhKW62
 0001:0001F650       __ZN4QMapIP7QWidgetP7QActionED1Ev$w$1bvUwWwpfD6jhKW62
 0001:0003BB10       __ZN4QMapIP9QShortcut7QStringE13detach_helperEv$w$vu3Ll5ypfD6l2vO20
 0001:0003BBE0       __ZN4QMapIP9QShortcut7QStringE4takeERKS1_$w$vu3Ll5ypfD6l2vO20
 0001:0003BD00       __ZN4QMapIP9QShortcut7QStringE6removeERKS1_$w$vu3Ll5ypfD6l2vO20
 0001:0003BE10       __ZN4QMapIP9QShortcutP7QWidgetE13detach_helperEv$w$vu3Ll5ypfD6l2vO20
 0001:0003BEF0       __ZN4QMapIP9QShortcutP7QWidgetE6removeERKS1_$w$vu3Ll5ypfD6l2vO20
 0000:00000000  Imp  __ZN4QPenC1ERK6QColor (QtGui4.__ZN4QPenC1ERK6QColor)
 0000:00000000  Imp  __ZN4QPenD1Ev        (QtGui4.__ZN4QPenD1Ev)
 0000:00000000  Imp  __ZN4QUrlaSERKS_     (QtCore4.__ZN4QUrlaSERKS_)
 0000:00000000  Imp  __ZN4QUrlC1ERK7QString (QtCore4.__ZN4QUrlC1ERK7QString)
 0000:00000000  Imp  __ZN4QUrlC1ERKS_     (QtCore4.__ZN4QUrlC1ERKS_)
 0000:00000000  Imp  __ZN4QUrlC1Ev        (QtCore4.__ZN4QUrlC1Ev)
 0000:00000000  Imp  __ZN4QUrlD1Ev        (QtCore4.__ZN4QUrlD1Ev)
 0000:00000000  Imp  __ZN5QCharC1Ec       (QtCore4.__ZN5QCharC1Ec)
 0000:00000000  Imp  __ZN5QFile10encodeNameERK7QString (QtCore4.__ZN5QFile10encodeNameERK7QString)
 0000:00000000  Imp  __ZN5QFile4openE6QFlagsIN9QIODevice12OpenModeFlagEE (QtCore4.__ZN5QFile4openE6QFlagsIN9QIODevice12OpenModeFlagEE)
 0000:00000000  Imp  __ZN5QFile5closeEv   (QtCore4.__ZN5QFile5closeEv)
 0000:00000000  Imp  __ZN5QFile6existsERK7QString (QtCore4.__ZN5QFile6existsERK7QString)
 0000:00000000  Imp  __ZN5QFile6removeERK7QString (QtCore4.__ZN5QFile6removeERK7QString)
 0000:00000000  Imp  __ZN5QFileC1ERK7QString (QtCore4.__ZN5QFileC1ERK7QString)
 0000:00000000  Imp  __ZN5QFileD1Ev       (QtCore4.__ZN5QFileD1Ev)
 0000:00000000  Imp  __ZN5QFont12setPointSizeEi (QtGui4.__ZN5QFont12setPointSizeEi)
 0000:00000000  Imp  __ZN5QFont12setStyleHintENS_9StyleHintENS_13StyleStrategyE (QtGui4.__ZN5QFont12setStyleHintENS_9StyleHintENS_13StyleStrategyE)
 0000:00000000  Imp  __ZN5QFont12setUnderlineEb (QtGui4.__ZN5QFont12setUnderlineEb)
 0000:00000000  Imp  __ZN5QFont8setStyleENS_5StyleE (QtGui4.__ZN5QFont8setStyleENS_5StyleE)
 0000:00000000  Imp  __ZN5QFont9setWeightEi (QtGui4.__ZN5QFont9setWeightEi)
 0000:00000000  Imp  __ZN5QFontaSERKS_    (QtGui4.__ZN5QFontaSERKS_)
 0000:00000000  Imp  __ZN5QFontC1ERKS_    (QtGui4.__ZN5QFontC1ERKS_)
 0000:00000000  Imp  __ZN5QFontC1Ev       (QtGui4.__ZN5QFontC1Ev)
 0000:00000000  Imp  __ZN5QFontD1Ev       (QtGui4.__ZN5QFontD1Ev)
 0001:0003E3D0       __ZN5QHashI4QUrlP6QMovieE11deleteNode2EPN9QHashData4NodeE$w$LuTRgoypfD6srdWB2
 0001:000502F0       __ZN5QHashI4QUrlP6QMovieE11deleteNode2EPN9QHashData4NodeE$w$z2IZSJApfD6uTITD3
 0001:0003F6C0       __ZN5QHashI4QUrlP6QMovieE13detach_helperEv$w$LuTRgoypfD6srdWB2
 0001:0003E410       __ZN5QHashI4QUrlP6QMovieE13duplicateNodeEPN9QHashData4NodeEPv$w$LuTRgoypfD6srdWB2
 0001:0003F730       __ZN5QHashI4QUrlP6QMovieE6removeERKS0_$w$LuTRgoypfD6srdWB2
 0001:0003E890       __ZN5QHashI4QUrlP6QMovieED1Ev$w$LuTRgoypfD6srdWB2
 0001:00050670       __ZN5QHashI4QUrlP6QMovieED1Ev$w$z2IZSJApfD6uTITD3
 0001:0007E000       __ZN5QHashI5QPairIjjEP17QxtGlobalShortcutE11deleteNode2EPN9QHashData4NodeE$w$xvL7aFupfD6iFA5P0
 0001:0007E570       __ZN5QHashI5QPairIjjEP17QxtGlobalShortcutE13detach_helperEv$w$xvL7aFupfD6iFA5P0
 0001:0007E010       __ZN5QHashI5QPairIjjEP17QxtGlobalShortcutE13duplicateNodeEPN9QHashData4NodeEPv$w$xvL7aFupfD6iFA5P0
 0001:0007E5E0       __ZN5QHashI5QPairIjjEP17QxtGlobalShortcutE6removeERKS1_$w$xvL7aFupfD6iFA5P0
 0001:00031510       __ZN5QHashI7QString10OptionItemE11deleteNode2EPN9QHashData4NodeE$w$ZjIoOUxpfD62Qc4R2
 0001:00038980       __ZN5QHashI7QString10OptionItemE13detach_helperEv$w$ZjIoOUxpfD62Qc4R2
 0001:00031570       __ZN5QHashI7QString10OptionItemE13duplicateNodeEPN9QHashData4NodeEPv$w$ZjIoOUxpfD62Qc4R2
 0001:00023350       __ZN5QHashI7QString15QHashDummyValueE11deleteNode2EPN9QHashData4NodeE$w$9jvlvcxpfD6zc01C1
 0001:000277F0       __ZN5QHashI7QString15QHashDummyValueE13detach_helperEv$w$9jvlvcxpfD6zc01C1
 0001:00023290       __ZN5QHashI7QString15QHashDummyValueE13duplicateNodeEPN9QHashData4NodeEPv$w$9jvlvcxpfD6zc01C1
 0001:000286F0       __ZN5QHashI7QString15QHashDummyValueE6removeERKS0_$w$9jvlvcxpfD6zc01C1
 0001:00023880       __ZN5QHashI7QString15QHashDummyValueED1Ev$w$9jvlvcxpfD6zc01C1
 0001:000001B0       __ZN5QHashI7QString3JidE11deleteNode2EPN9QHashData4NodeE$w$RbmQ7RvpfD690XI54
 0001:00001BA0       __ZN5QHashI7QString3JidE13detach_helperEv$w$RbmQ7RvpfD690XI54
 0001:000000A0       __ZN5QHashI7QString3JidE13duplicateNodeEPN9QHashData4NodeEPv$w$RbmQ7RvpfD690XI54
 0001:00029B90       __ZN5QHashI7QString5QIconE11deleteNode2EPN9QHashData4NodeE$w$Pegk7mxpfD6IeT6r2
 0001:0002AC20       __ZN5QHashI7QString5QIconE13detach_helperEv$w$Pegk7mxpfD6IeT6r2
 0001:00029C60       __ZN5QHashI7QString5QIconE13duplicateNodeEPN9QHashData4NodeEPv$w$Pegk7mxpfD6IeT6r2
 0001:0002A200       __ZN5QHashI7QString5QIconED1Ev$w$Pegk7mxpfD6IeT6r2
 0001:00029D30       __ZN5QHashI7QString5QListIN11IconStorage16IconAnimateFrameEEE11deleteNode2EPN9QHashData4NodeE$w$Pegk7mxpfD6IeT6r2
 0001:0002C0F0       __ZN5QHashI7QString5QListIN11IconStorage16IconAnimateFrameEEE13detach_helperEv$w$Pegk7mxpfD6IeT6r2
 0001:0002BB20       __ZN5QHashI7QString5QListIN11IconStorage16IconAnimateFrameEEE13duplicateNodeEPN9QHashData4NodeEPv$w$Pegk7mxpfD6IeT6r2
 0001:0002A410       __ZN5QHashI7QString5QListIN11IconStorage16IconAnimateFrameEEED1Ev$w$Pegk7mxpfD6IeT6r2
 0001:00038E10       __ZN5QHashI7QString5QPairIS0_iEE11deleteNode2EPN9QHashData4NodeE$w$vu3Ll5ypfD6l2vO20
 0001:0003A9A0       __ZN5QHashI7QString5QPairIS0_iEE13detach_helperEv$w$vu3Ll5ypfD6l2vO20
 0001:00038BE0       __ZN5QHashI7QString5QPairIS0_iEE13duplicateNodeEPN9QHashData4NodeEPv$w$vu3Ll5ypfD6l2vO20
 0001:0003E610       __ZN5QHashI7QString8QVariantE11deleteNode2EPN9QHashData4NodeE$w$LuTRgoypfD6srdWB2
 0001:000503A0       __ZN5QHashI7QString8QVariantE11deleteNode2EPN9QHashData4NodeE$w$z2IZSJApfD6uTITD3
 0001:00040680       __ZN5QHashI7QString8QVariantE13detach_helperEv$w$LuTRgoypfD6srdWB2
 0001:0003E670       __ZN5QHashI7QString8QVariantE13duplicateNodeEPN9QHashData4NodeEPv$w$LuTRgoypfD6srdWB2
 0001:0003E8F0       __ZN5QHashI7QString8QVariantED1Ev$w$LuTRgoypfD6srdWB2
 0001:00023380       __ZN5QHashI7QStringjE11deleteNode2EPN9QHashData4NodeE$w$9jvlvcxpfD6zc01C1
 0001:000252C0       __ZN5QHashI7QStringjE13detach_helperEv$w$9jvlvcxpfD6zc01C1
 0001:00023260       __ZN5QHashI7QStringjE13duplicateNodeEPN9QHashData4NodeEPv$w$9jvlvcxpfD6zc01C1
 0001:00023550       __ZN5QHashI7QStringjED1Ev$w$9jvlvcxpfD6zc01C1
 0001:00038E80       __ZN5QHashI7QStringN9Shortcuts10DescriptorEE11deleteNode2EPN9QHashData4NodeE$w$vu3Ll5ypfD6l2vO20
 0001:0003ABA0       __ZN5QHashI7QStringN9Shortcuts10DescriptorEE13detach_helperEv$w$vu3Ll5ypfD6l2vO20
 0001:00038F20       __ZN5QHashI7QStringN9Shortcuts10DescriptorEE13duplicateNodeEPN9QHashData4NodeEPv$w$vu3Ll5ypfD6l2vO20
 0001:000233B0       __ZN5QHashI7QStringP11FileStorageE11deleteNode2EPN9QHashData4NodeE$w$9jvlvcxpfD6zc01C1
 0001:000251E0       __ZN5QHashI7QStringP11FileStorageE13detach_helperEv$w$9jvlvcxpfD6zc01C1
 0001:00023200       __ZN5QHashI7QStringP11FileStorageE13duplicateNodeEPN9QHashData4NodeEPv$w$9jvlvcxpfD6zc01C1
 0001:00029A90       __ZN5QHashI7QStringP11IconStorageE11deleteNode2EPN9QHashData4NodeE$w$Pegk7mxpfD6IeT6r2
 0001:0001CB70       __ZN5QHashI7QStringP11IconStorageE11deleteNode2EPN9QHashData4NodeE$w$TsYjLNwpfD6WUzhB0
 0001:0002B4F0       __ZN5QHashI7QStringP11IconStorageE13detach_helperEv$w$Pegk7mxpfD6IeT6r2
 0001:0001D1E0       __ZN5QHashI7QStringP11IconStorageE13detach_helperEv$w$TsYjLNwpfD6WUzhB0
 0001:000296E0       __ZN5QHashI7QStringP11IconStorageE13duplicateNodeEPN9QHashData4NodeEPv$w$Pegk7mxpfD6IeT6r2
 0001:0001C820       __ZN5QHashI7QStringP11IconStorageE13duplicateNodeEPN9QHashData4NodeEPv$w$TsYjLNwpfD6WUzhB0
 0001:0001CCE0       __ZN5QHashI7QStringP11IconStorageED1Ev$w$TsYjLNwpfD6WUzhB0
 0001:00018160       __ZN5QHashI7QStringPN13UnzipFileData10ZippedFileEE11deleteNode2EPN9QHashData4NodeE$w$rYz77ywpfD6ajwMW2
 0001:000182C0       __ZN5QHashI7QStringPN13UnzipFileData10ZippedFileEE13detach_helperEv$w$rYz77ywpfD6ajwMW2
 0001:000180D0       __ZN5QHashI7QStringPN13UnzipFileData10ZippedFileEE13duplicateNodeEPN9QHashData4NodeEPv$w$rYz77ywpfD6ajwMW2
 0001:00018260       __ZN5QHashI7QStringPN13UnzipFileData10ZippedFileEED1Ev$w$rYz77ywpfD6ajwMW2
 0001:00023440       __ZN5QHashI7QStringS0_E11deleteNode2EPN9QHashData4NodeE$w$9jvlvcxpfD6zc01C1
 0001:00025250       __ZN5QHashI7QStringS0_E13detach_helperEv$w$9jvlvcxpfD6zc01C1
 0001:00023230       __ZN5QHashI7QStringS0_E13duplicateNodeEPN9QHashData4NodeEPv$w$9jvlvcxpfD6zc01C1
 0001:00023580       __ZN5QHashI7QStringS0_ED1Ev$w$9jvlvcxpfD6zc01C1
 0001:00029B20       __ZN5QHashI7QStringS_IS0_5QIconEE11deleteNode2EPN9QHashData4NodeE$w$Pegk7mxpfD6IeT6r2
 0001:0002ABB0       __ZN5QHashI7QStringS_IS0_5QIconEE13detach_helperEv$w$Pegk7mxpfD6IeT6r2
 0001:0002AC90       __ZN5QHashI7QStringS_IS0_5QIconEE13duplicateNodeEPN9QHashData4NodeEPv$w$Pegk7mxpfD6IeT6r2
 0001:0002A2B0       __ZN5QHashI7QStringS_IS0_5QIconEED1Ev$w$Pegk7mxpfD6IeT6r2
 0001:00029BF0       __ZN5QHashI7QStringS_IS0_5QListIN11IconStorage16IconAnimateFrameEEEE11deleteNode2EPN9QHashData4NodeE$w$Pegk7mxpfD6IeT6r2
 0001:0002B320       __ZN5QHashI7QStringS_IS0_5QListIN11IconStorage16IconAnimateFrameEEEE13detach_helperEv$w$Pegk7mxpfD6IeT6r2
 0001:0002CAB0       __ZN5QHashI7QStringS_IS0_5QListIN11IconStorage16IconAnimateFrameEEEE13duplicateNodeEPN9QHashData4NodeEPv$w$Pegk7mxpfD6IeT6r2
 0001:0002A2E0       __ZN5QHashI7QStringS_IS0_5QListIN11IconStorage16IconAnimateFrameEEEED1Ev$w$Pegk7mxpfD6IeT6r2
 0001:0001CBD0       __ZN5QHashI7QStringS_IS0_P11IconStorageEE11deleteNode2EPN9QHashData4NodeE$w$TsYjLNwpfD6WUzhB0
 0001:0001D170       __ZN5QHashI7QStringS_IS0_P11IconStorageEE13detach_helperEv$w$TsYjLNwpfD6WUzhB0
 0001:0001D250       __ZN5QHashI7QStringS_IS0_P11IconStorageEE13duplicateNodeEPN9QHashData4NodeEPv$w$TsYjLNwpfD6WUzhB0
 0001:0001CCB0       __ZN5QHashI7QStringS_IS0_P11IconStorageEED1Ev$w$TsYjLNwpfD6WUzhB0
 0001:000193B0       __ZN5QHashIi8QVariantE11deleteNode2EPN9QHashData4NodeE$w$Nlg6JEwpfD61JVHa4
 0001:00014AF0       __ZN5QHashIi8QVariantE11deleteNode2EPN9QHashData4NodeE$w$v8Ij8kwpfD6ooPV82
 0001:0001B230       __ZN5QHashIi8QVariantE13detach_helperEv$w$Nlg6JEwpfD61JVHa4
 0001:00015420       __ZN5QHashIi8QVariantE13detach_helperEv$w$v8Ij8kwpfD6ooPV82
 0001:000193C0       __ZN5QHashIi8QVariantE13duplicateNodeEPN9QHashData4NodeEPv$w$Nlg6JEwpfD61JVHa4
 0001:00014B00       __ZN5QHashIi8QVariantE13duplicateNodeEPN9QHashData4NodeEPv$w$v8Ij8kwpfD6ooPV82
 0001:0001B2A0       __ZN5QHashIi8QVariantE6removeERKi$w$Nlg6JEwpfD61JVHa4
 0001:00015490       __ZN5QHashIi8QVariantE6removeERKi$w$v8Ij8kwpfD6ooPV82
 0001:0001A890       __ZN5QHashIi8QVariantED1Ev$w$Nlg6JEwpfD61JVHa4
 0001:00015300       __ZN5QHashIi8QVariantED1Ev$w$v8Ij8kwpfD6ooPV82
 0001:0003E390       __ZN5QHashIP6QMovie15QHashDummyValueE11deleteNode2EPN9QHashData4NodeE$w$LuTRgoypfD6srdWB2
 0001:000502D0       __ZN5QHashIP6QMovie15QHashDummyValueE11deleteNode2EPN9QHashData4NodeE$w$z2IZSJApfD6uTITD3
 0001:00040EF0       __ZN5QHashIP6QMovie15QHashDummyValueE13detach_helperEv$w$LuTRgoypfD6srdWB2
 0001:0003E3A0       __ZN5QHashIP6QMovie15QHashDummyValueE13duplicateNodeEPN9QHashData4NodeEPv$w$LuTRgoypfD6srdWB2
 0001:00041A50       __ZN5QHashIP6QMovie15QHashDummyValueE6removeERKS1_$w$LuTRgoypfD6srdWB2
 0001:0003E830       __ZN5QHashIP6QMovie15QHashDummyValueED1Ev$w$LuTRgoypfD6srdWB2
 0001:00050610       __ZN5QHashIP6QMovie15QHashDummyValueED1Ev$w$z2IZSJApfD6uTITD3
 0001:0003E3C0       __ZN5QHashIP6QMovie4QUrlE11deleteNode2EPN9QHashData4NodeE$w$LuTRgoypfD6srdWB2
 0001:000502E0       __ZN5QHashIP6QMovie4QUrlE11deleteNode2EPN9QHashData4NodeE$w$z2IZSJApfD6uTITD3
 0001:0003F520       __ZN5QHashIP6QMovie4QUrlE13detach_helperEv$w$LuTRgoypfD6srdWB2
 0001:0003E3E0       __ZN5QHashIP6QMovie4QUrlE13duplicateNodeEPN9QHashData4NodeEPv$w$LuTRgoypfD6srdWB2
 0001:0003F590       __ZN5QHashIP6QMovie4QUrlE4takeERKS1_$w$LuTRgoypfD6srdWB2
 0001:0003E860       __ZN5QHashIP6QMovie4QUrlED1Ev$w$LuTRgoypfD6srdWB2
 0001:00050640       __ZN5QHashIP6QMovie4QUrlED1Ev$w$z2IZSJApfD6uTITD3
 0001:0003EC20       __ZN5QHashIP6QMovie5QListIiEE11deleteNode2EPN9QHashData4NodeE$w$LuTRgoypfD6srdWB2
 0001:00050A70       __ZN5QHashIP6QMovie5QListIiEE11deleteNode2EPN9QHashData4NodeE$w$z2IZSJApfD6uTITD3
 0001:0003F870       __ZN5QHashIP6QMovie5QListIiEE13detach_helperEv$w$LuTRgoypfD6srdWB2
 0001:0003F4E0       __ZN5QHashIP6QMovie5QListIiEE13duplicateNodeEPN9QHashData4NodeEPv$w$LuTRgoypfD6srdWB2
 0001:0003F8E0       __ZN5QHashIP6QMovie5QListIiEE6removeERKS1_$w$LuTRgoypfD6srdWB2
 0001:0003E8C0       __ZN5QHashIP6QMovie5QListIiEED1Ev$w$LuTRgoypfD6srdWB2
 0001:000506A0       __ZN5QHashIP6QMovie5QListIiEED1Ev$w$z2IZSJApfD6uTITD3
 0001:000296B0       __ZN5QHashIP6QTimerP7QObjectE11deleteNode2EPN9QHashData4NodeE$w$Pegk7mxpfD6IeT6r2
 0001:0002BB90       __ZN5QHashIP6QTimerP7QObjectE13detach_helperEv$w$Pegk7mxpfD6IeT6r2
 0001:00029750       __ZN5QHashIP6QTimerP7QObjectE13duplicateNodeEPN9QHashData4NodeEPv$w$Pegk7mxpfD6IeT6r2
 0001:0002BC00       __ZN5QHashIP6QTimerP7QObjectE6removeERKS1_$w$Pegk7mxpfD6IeT6r2
 0001:00029D90       __ZN5QHashIP6QTimerP7QObjectED1Ev$w$Pegk7mxpfD6IeT6r2
 0001:000296D0       __ZN5QHashIP7QObjectP11IconStorageE11deleteNode2EPN9QHashData4NodeE$w$Pegk7mxpfD6IeT6r2
 0001:0002B720       __ZN5QHashIP7QObjectP11IconStorageE13detach_helperEv$w$Pegk7mxpfD6IeT6r2
 0001:00029710       __ZN5QHashIP7QObjectP11IconStorageE13duplicateNodeEPN9QHashData4NodeEPv$w$Pegk7mxpfD6IeT6r2
 0001:0002B790       __ZN5QHashIP7QObjectP11IconStorageE6removeERKS1_$w$Pegk7mxpfD6IeT6r2
 0001:000296C0       __ZN5QHashIP7QObjectPN11IconStorage16IconUpdateParamsEE11deleteNode2EPN9QHashData4NodeE$w$Pegk7mxpfD6IeT6r2
 0001:0002B890       __ZN5QHashIP7QObjectPN11IconStorage16IconUpdateParamsEE13detach_helperEv$w$Pegk7mxpfD6IeT6r2
 0001:00029730       __ZN5QHashIP7QObjectPN11IconStorage16IconUpdateParamsEE13duplicateNodeEPN9QHashData4NodeEPv$w$Pegk7mxpfD6IeT6r2
 0001:0002B900       __ZN5QHashIP7QObjectPN11IconStorage16IconUpdateParamsEE4takeERKS1_$w$Pegk7mxpfD6IeT6r2
 0001:00029DC0       __ZN5QHashIP7QObjectPN11IconStorage16IconUpdateParamsEED1Ev$w$Pegk7mxpfD6IeT6r2
 0000:00000000  Imp  __ZN5QIcon7addFileERK7QStringRK5QSizeNS_4ModeENS_5StateE (QtGui4.__ZN5QIcon7addFileERK7QStringRK5QSizeNS_4ModeENS_5StateE)
 0000:00000000  Imp  __ZN5QIcon9addPixmapERK7QPixmapNS_4ModeENS_5StateE (QtGui4.__ZN5QIcon9addPixmapERK7QPixmapNS_4ModeENS_5StateE)
 0000:00000000  Imp  __ZN5QIcon9fromThemeERK7QStringRKS_ (QtGui4.__ZN5QIcon9fromThemeERK7QStringRKS_)
 0000:00000000  Imp  __ZN5QIconaSERKS_    (QtGui4.__ZN5QIconaSERKS_)
 0000:00000000  Imp  __ZN5QIconC1ERKS_    (QtGui4.__ZN5QIconC1ERKS_)
 0000:00000000  Imp  __ZN5QIconC1Ev       (QtGui4.__ZN5QIconC1Ev)
 0000:00000000  Imp  __ZN5QIconD1Ev       (QtGui4.__ZN5QIconD1Ev)
 0001:0002FF60       __ZN5QListI10QByteArrayE13detach_helperEi$w$NzJLsCxpfD66RP621
 0001:0002FFE0       __ZN5QListI10QByteArrayE13detach_helperEv$w$NzJLsCxpfD66RP621
 0001:0002FDD0       __ZN5QListI10QByteArrayE18detach_helper_growEii$w$NzJLsCxpfD66RP621
 0001:00030130       __ZN5QListI10QByteArrayE5clearEv$w$NzJLsCxpfD66RP621
 0001:0002FEC0       __ZN5QListI10QByteArrayE6appendERKS0_$w$NzJLsCxpfD66RP621
 0001:0002FDA0       __ZN5QListI10QByteArrayED1Ev$w$NzJLsCxpfD66RP621
 0001:00035050       __ZN5QListI10QByteArrayED1Ev$w$ZjIoOUxpfD62Qc4R2
 0001:00001D70       __ZN5QListI5QCharE13detach_helperEi$w$RbmQ7RvpfD690XI54
 0001:00001DF0       __ZN5QListI5QCharE13detach_helperEv$w$RbmQ7RvpfD690XI54
 0001:00001C10       __ZN5QListI5QCharE18detach_helper_growEii$w$RbmQ7RvpfD690XI54
 0001:00001CF0       __ZN5QListI5QCharE6appendERKS0_$w$RbmQ7RvpfD690XI54
 0001:00001240       __ZN5QListI5QCharED1Ev$w$RbmQ7RvpfD690XI54
 0001:00029F50       __ZN5QListI5QSizeED1Ev$w$Pegk7mxpfD6IeT6r2
 0001:00024050       __ZN5QListI7QStringE13detach_helperEi$w$9jvlvcxpfD6zc01C1
 0001:00007770       __ZN5QListI7QStringE13detach_helperEi$w$f88ZN9wpfD61qkSl0
 0001:00005DF0       __ZN5QListI7QStringE13detach_helperEi$w$LkOn7VvpfD6X14P70
 0001:0002A810       __ZN5QListI7QStringE13detach_helperEi$w$Pegk7mxpfD6IeT6r2
 0001:00001FA0       __ZN5QListI7QStringE13detach_helperEi$w$RbmQ7RvpfD690XI54
 0001:00019080       __ZN5QListI7QStringE13detach_helperEi$w$rYz77ywpfD6ajwMW2
 0001:0001CFE0       __ZN5QListI7QStringE13detach_helperEi$w$TsYjLNwpfD6WUzhB0
 0001:0003A670       __ZN5QListI7QStringE13detach_helperEi$w$vu3Ll5ypfD6l2vO20
 0001:00035C10       __ZN5QListI7QStringE13detach_helperEi$w$ZjIoOUxpfD62Qc4R2
 0001:000240D0       __ZN5QListI7QStringE13detach_helperEv$w$9jvlvcxpfD6zc01C1
 0001:000077F0       __ZN5QListI7QStringE13detach_helperEv$w$f88ZN9wpfD61qkSl0
 0001:00005E70       __ZN5QListI7QStringE13detach_helperEv$w$LkOn7VvpfD6X14P70
 0001:0002A890       __ZN5QListI7QStringE13detach_helperEv$w$Pegk7mxpfD6IeT6r2
 0001:00002020       __ZN5QListI7QStringE13detach_helperEv$w$RbmQ7RvpfD690XI54
 0001:0001D150       __ZN5QListI7QStringE13detach_helperEv$w$TsYjLNwpfD6WUzhB0
 0001:00035C90       __ZN5QListI7QStringE13detach_helperEv$w$ZjIoOUxpfD62Qc4R2
 0001:00023960       __ZN5QListI7QStringE18detach_helper_growEii$w$9jvlvcxpfD6zc01C1
 0001:00007850       __ZN5QListI7QStringE18detach_helper_growEii$w$f88ZN9wpfD61qkSl0
 0001:0001ACE0       __ZN5QListI7QStringE18detach_helper_growEii$w$Nlg6JEwpfD61JVHa4
 0001:00029FF0       __ZN5QListI7QStringE18detach_helper_growEii$w$Pegk7mxpfD6IeT6r2
 0001:00001E10       __ZN5QListI7QStringE18detach_helper_growEii$w$RbmQ7RvpfD690XI54
 0001:00019140       __ZN5QListI7QStringE18detach_helper_growEii$w$rYz77ywpfD6ajwMW2
 0001:0001CD10       __ZN5QListI7QStringE18detach_helper_growEii$w$TsYjLNwpfD6WUzhB0
 0001:00039570       __ZN5QListI7QStringE18detach_helper_growEii$w$vu3Ll5ypfD6l2vO20
 0001:00035130       __ZN5QListI7QStringE18detach_helper_growEii$w$ZjIoOUxpfD62Qc4R2
 0001:000242C0       __ZN5QListI7QStringE5clearEv$w$9jvlvcxpfD6zc01C1
 0001:00023A50       __ZN5QListI7QStringE6appendERKS0_$w$9jvlvcxpfD6zc01C1
 0001:00007940       __ZN5QListI7QStringE6appendERKS0_$w$f88ZN9wpfD61qkSl0
 0001:0001ADD0       __ZN5QListI7QStringE6appendERKS0_$w$Nlg6JEwpfD61JVHa4
 0001:0002A0E0       __ZN5QListI7QStringE6appendERKS0_$w$Pegk7mxpfD6IeT6r2
 0001:00001F00       __ZN5QListI7QStringE6appendERKS0_$w$RbmQ7RvpfD690XI54
 0001:00019230       __ZN5QListI7QStringE6appendERKS0_$w$rYz77ywpfD6ajwMW2
 0001:0001CE00       __ZN5QListI7QStringE6appendERKS0_$w$TsYjLNwpfD6WUzhB0
 0001:00039660       __ZN5QListI7QStringE6appendERKS0_$w$vu3Ll5ypfD6l2vO20
 0001:00035220       __ZN5QListI7QStringE6appendERKS0_$w$ZjIoOUxpfD62Qc4R2
 0001:00007810       __ZN5QListI7QStringE7reserveEi$w$f88ZN9wpfD61qkSl0
 0001:00019100       __ZN5QListI7QStringE7reserveEi$w$rYz77ywpfD6ajwMW2
 0001:0001D060       __ZN5QListI7QStringE7reserveEi$w$TsYjLNwpfD6WUzhB0
 0001:0003A6F0       __ZN5QListI7QStringE7reserveEi$w$vu3Ll5ypfD6l2vO20
 0001:000241D0       __ZN5QListI7QStringE9removeAllERKS0_$w$9jvlvcxpfD6zc01C1
 0001:00023520       __ZN5QListI7QStringED1Ev$w$9jvlvcxpfD6zc01C1
 0001:000070D0       __ZN5QListI7QStringED1Ev$w$f88ZN9wpfD61qkSl0
 0001:00029CB0       __ZN5QListI7QStringED1Ev$w$Pegk7mxpfD6IeT6r2
 0001:00001270       __ZN5QListI7QStringED1Ev$w$RbmQ7RvpfD690XI54
 0001:00018290       __ZN5QListI7QStringED1Ev$w$rYz77ywpfD6ajwMW2
 0001:0001CC80       __ZN5QListI7QStringED1Ev$w$TsYjLNwpfD6WUzhB0
 0001:00039400       __ZN5QListI7QStringED1Ev$w$vu3Ll5ypfD6l2vO20
 0001:00034FD0       __ZN5QListI7QStringED1Ev$w$ZjIoOUxpfD62Qc4R2
 0001:000234F0       __ZN5QListI7QStringED2Ev$w$9jvlvcxpfD6zc01C1
 0001:00005DC0       __ZN5QListI7QStringED2Ev$w$LkOn7VvpfD6X14P70
 0001:0001A860       __ZN5QListI7QStringED2Ev$w$Nlg6JEwpfD61JVHa4
 0001:00034450       __ZN5QListI7QStringED2Ev$w$ZjIoOUxpfD62Qc4R2
 0001:000240F0       __ZN5QListI7QStringEpLERKS1_$w$9jvlvcxpfD6zc01C1
 0001:00016880       __ZN5QListI8QVariantE18detach_helper_growEii$w$xxeCqtwpfD6zMw8g2
 0001:00016AC0       __ZN5QListI8QVariantE6appendERKS0_$w$xxeCqtwpfD6zMw8g2
 0001:00015E80       __ZN5QListI8QVariantED1Ev$w$xxeCqtwpfD6zMw8g2
 0001:00021400       __ZN5QListIiE13detach_helperEi$w$1bvUwWwpfD6jhKW62
 0001:00025630       __ZN5QListIiE13detach_helperEi$w$9jvlvcxpfD6zc01C1
 0001:0003F430       __ZN5QListIiE13detach_helperEi$w$LuTRgoypfD6srdWB2
 0001:00016580       __ZN5QListIiE13detach_helperEi$w$xxeCqtwpfD6zMw8g2
 0001:000216B0       __ZN5QListIiE13detach_helperEv$w$1bvUwWwpfD6jhKW62
 0001:000256C0       __ZN5QListIiE13detach_helperEv$w$9jvlvcxpfD6zc01C1
 0001:0003F4C0       __ZN5QListIiE13detach_helperEv$w$LuTRgoypfD6srdWB2
 0001:00016650       __ZN5QListIiE13detach_helperEv$w$xxeCqtwpfD6zMw8g2
 0001:000214D0       __ZN5QListIiE18detach_helper_growEii$w$1bvUwWwpfD6jhKW62
 0001:00023EF0       __ZN5QListIiE18detach_helper_growEii$w$9jvlvcxpfD6zc01C1
 0001:0003EC30       __ZN5QListIiE18detach_helper_growEii$w$LuTRgoypfD6srdWB2
 0001:00016670       __ZN5QListIiE18detach_helper_growEii$w$xxeCqtwpfD6zMw8g2
 0001:000215C0       __ZN5QListIiE6appendERKi$w$1bvUwWwpfD6jhKW62
 0001:00023FE0       __ZN5QListIiE6appendERKi$w$9jvlvcxpfD6zc01C1
 0001:0003ED20       __ZN5QListIiE6appendERKi$w$LuTRgoypfD6srdWB2
 0001:00016760       __ZN5QListIiE6appendERKi$w$xxeCqtwpfD6zMw8g2
 0001:00021490       __ZN5QListIiE7reserveEi$w$1bvUwWwpfD6jhKW62
 0001:00016610       __ZN5QListIiE7reserveEi$w$xxeCqtwpfD6zMw8g2
 0001:0001F8E0       __ZN5QListIiED1Ev$w$1bvUwWwpfD6jhKW62
 0001:000235B0       __ZN5QListIiED1Ev$w$9jvlvcxpfD6zc01C1
 0001:0003EBF0       __ZN5QListIiED1Ev$w$LuTRgoypfD6srdWB2
 0001:00015E50       __ZN5QListIiED1Ev$w$xxeCqtwpfD6zMw8g2
 0001:00050A40       __ZN5QListIiED1Ev$w$z2IZSJApfD6uTITD3
 0001:000279E0       __ZN5QListIN11FileStorage13StorageObjectEE13detach_helperEi$w$9jvlvcxpfD6zc01C1
 0001:00027BB0       __ZN5QListIN11FileStorage13StorageObjectEE13detach_helperEv$w$9jvlvcxpfD6zc01C1
 0001:00025EF0       __ZN5QListIN11FileStorage13StorageObjectEE18detach_helper_growEii$w$9jvlvcxpfD6zc01C1
 0001:00027BD0       __ZN5QListIN11FileStorage13StorageObjectEE5clearEv$w$9jvlvcxpfD6zc01C1
 0001:000262E0       __ZN5QListIN11FileStorage13StorageObjectEE6appendERKS1_$w$9jvlvcxpfD6zc01C1
 0001:00023710       __ZN5QListIN11FileStorage13StorageObjectEED1Ev$w$9jvlvcxpfD6zc01C1
 0001:0002B9E0       __ZN5QListIN11IconStorage16IconAnimateFrameEE13detach_helperEi$w$Pegk7mxpfD6IeT6r2
 0001:0002BB00       __ZN5QListIN11IconStorage16IconAnimateFrameEE13detach_helperEv$w$Pegk7mxpfD6IeT6r2
 0001:0002A4C0       __ZN5QListIN11IconStorage16IconAnimateFrameEE18detach_helper_growEii$w$Pegk7mxpfD6IeT6r2
 0001:0002A710       __ZN5QListIN11IconStorage16IconAnimateFrameEE6appendERKS1_$w$Pegk7mxpfD6IeT6r2
 0001:00029D00       __ZN5QListIN11IconStorage16IconAnimateFrameEED1Ev$w$Pegk7mxpfD6IeT6r2
 0001:00025330       __ZN5QListIP11FileStorageE13detach_helperEi$w$9jvlvcxpfD6zc01C1
 0001:000253C0       __ZN5QListIP11FileStorageE13detach_helperEv$w$9jvlvcxpfD6zc01C1
 0001:00023AF0       __ZN5QListIP11FileStorageE18detach_helper_growEii$w$9jvlvcxpfD6zc01C1
 0001:00023BE0       __ZN5QListIP11FileStorageE6appendERKS1_$w$9jvlvcxpfD6zc01C1
 0001:000253E0       __ZN5QListIP11FileStorageE9removeAllERKS1_$w$9jvlvcxpfD6zc01C1
 0001:00023850       __ZN5QListIP11FileStorageED1Ev$w$9jvlvcxpfD6zc01C1
 0001:0003CF10       __ZN5QListIP17QxtGlobalShortcutE13detach_helperEi$w$vu3Ll5ypfD6l2vO20
 0001:0003CFA0       __ZN5QListIP17QxtGlobalShortcutE13detach_helperEv$w$vu3Ll5ypfD6l2vO20
 0001:0003B2B0       __ZN5QListIP17QxtGlobalShortcutE18detach_helper_growEii$w$vu3Ll5ypfD6l2vO20
 0001:0003B3A0       __ZN5QListIP17QxtGlobalShortcutE6appendERKS1_$w$vu3Ll5ypfD6l2vO20
 0001:00039490       __ZN5QListIP17QxtGlobalShortcutED1Ev$w$vu3Ll5ypfD6l2vO20
 0001:0002DD90       __ZN5QListIP4MenuE13detach_helperEi$w$NJUslsxpfD6s41Bc4
 0001:0002DE60       __ZN5QListIP4MenuE13detach_helperEv$w$NJUslsxpfD6s41Bc4
 0001:0002DE80       __ZN5QListIP4MenuE18detach_helper_growEii$w$NJUslsxpfD6s41Bc4
 0001:0002DF70       __ZN5QListIP4MenuE6appendERKS1_$w$NJUslsxpfD6s41Bc4
 0001:0002DE20       __ZN5QListIP4MenuE7reserveEi$w$NJUslsxpfD6s41Bc4
 0001:0002DCF0       __ZN5QListIP4MenuED1Ev$w$NJUslsxpfD6s41Bc4
 0001:000162D0       __ZN5QListIP6ActionE13detach_helperEi$w$xxeCqtwpfD6zMw8g2
 0001:00016470       __ZN5QListIP6ActionE13detach_helperEv$w$xxeCqtwpfD6zMw8g2
 0001:00016050       __ZN5QListIP6ActionE18detach_helper_growEii$w$xxeCqtwpfD6zMw8g2
 0001:00016140       __ZN5QListIP6ActionE6appendERKS1_$w$xxeCqtwpfD6zMw8g2
 0001:00016360       __ZN5QListIP6ActionE7reserveEi$w$xxeCqtwpfD6zMw8g2
 0001:00015E20       __ZN5QListIP6ActionED1Ev$w$xxeCqtwpfD6zMw8g2
 0001:00016490       __ZN5QListIP6ActionEpLERKS2_$w$xxeCqtwpfD6zMw8g2
 0001:0003F290       __ZN5QListIP6QMovieE13detach_helperEi$w$LuTRgoypfD6srdWB2
 0001:0003F410       __ZN5QListIP6QMovieE13detach_helperEv$w$LuTRgoypfD6srdWB2
 0001:0003F130       __ZN5QListIP6QMovieE18detach_helper_growEii$w$LuTRgoypfD6srdWB2
 0001:0003F220       __ZN5QListIP6QMovieE6appendERKS1_$w$LuTRgoypfD6srdWB2
 0001:0003F320       __ZN5QListIP6QMovieE7reserveEi$w$LuTRgoypfD6srdWB2
 0001:0003EBC0       __ZN5QListIP6QMovieED1Ev$w$LuTRgoypfD6srdWB2
 0001:0001FC90       __ZN5QListIP7QActionE13detach_helperEi$w$1bvUwWwpfD6jhKW62
 0001:00017E10       __ZN5QListIP7QActionE13detach_helperEi$w$xxeCqtwpfD6zMw8g2
 0001:0001FF40       __ZN5QListIP7QActionE13detach_helperEv$w$1bvUwWwpfD6jhKW62
 0001:00017EA0       __ZN5QListIP7QActionE13detach_helperEv$w$xxeCqtwpfD6zMw8g2
 0001:0001F910       __ZN5QListIP7QActionE18detach_helper_growEii$w$1bvUwWwpfD6jhKW62
 0001:0001FA00       __ZN5QListIP7QActionE6appendERKS1_$w$1bvUwWwpfD6jhKW62
 0001:0001FD20       __ZN5QListIP7QActionE7reserveEi$w$1bvUwWwpfD6jhKW62
 0001:0001F880       __ZN5QListIP7QActionED1Ev$w$1bvUwWwpfD6jhKW62
 0001:00039540       __ZN5QListIP7QActionED1Ev$w$vu3Ll5ypfD6l2vO20
 0001:00015F00       __ZN5QListIP7QActionED1Ev$w$xxeCqtwpfD6zMw8g2
 0001:0002A8B0       __ZN5QListIP7QObjectE13detach_helperEi$w$Pegk7mxpfD6IeT6r2
 0001:0003C3C0       __ZN5QListIP7QObjectE13detach_helperEi$w$vu3Ll5ypfD6l2vO20
 0001:0002A980       __ZN5QListIP7QObjectE13detach_helperEv$w$Pegk7mxpfD6IeT6r2
 0001:0003C450       __ZN5QListIP7QObjectE13detach_helperEv$w$vu3Ll5ypfD6l2vO20
 0001:0002A9A0       __ZN5QListIP7QObjectE18detach_helper_growEii$w$Pegk7mxpfD6IeT6r2
 0001:0003AE50       __ZN5QListIP7QObjectE18detach_helper_growEii$w$vu3Ll5ypfD6l2vO20
 0001:0002AA90       __ZN5QListIP7QObjectE6appendERKS1_$w$Pegk7mxpfD6IeT6r2
 0001:0003AF40       __ZN5QListIP7QObjectE6appendERKS1_$w$vu3Ll5ypfD6l2vO20
 0001:0002A940       __ZN5QListIP7QObjectE7reserveEi$w$Pegk7mxpfD6IeT6r2
 0001:00029ED0       __ZN5QListIP7QObjectED1Ev$w$Pegk7mxpfD6IeT6r2
 0001:00039430       __ZN5QListIP7QObjectED1Ev$w$vu3Ll5ypfD6l2vO20
 0001:00020270       __ZN5QListIP7QWidgetE13detach_helperEi$w$1bvUwWwpfD6jhKW62
 0001:0003B840       __ZN5QListIP7QWidgetE13detach_helperEi$w$vu3Ll5ypfD6l2vO20
 0001:0002ED40       __ZN5QListIP7QWidgetE13detach_helperEi$w$xHJjEyxpfD6DCJYr2
 0001:000203C0       __ZN5QListIP7QWidgetE13detach_helperEv$w$1bvUwWwpfD6jhKW62
 0001:0003BAF0       __ZN5QListIP7QWidgetE13detach_helperEv$w$vu3Ll5ypfD6l2vO20
 0001:0002EE10       __ZN5QListIP7QWidgetE13detach_helperEv$w$xHJjEyxpfD6DCJYr2
 0001:00020060       __ZN5QListIP7QWidgetE18detach_helper_growEii$w$1bvUwWwpfD6jhKW62
 0001:0003B910       __ZN5QListIP7QWidgetE18detach_helper_growEii$w$vu3Ll5ypfD6l2vO20
 0001:0002EE30       __ZN5QListIP7QWidgetE18detach_helper_growEii$w$xHJjEyxpfD6DCJYr2
 0001:00020150       __ZN5QListIP7QWidgetE6appendERKS1_$w$1bvUwWwpfD6jhKW62
 0001:0003BA00       __ZN5QListIP7QWidgetE6appendERKS1_$w$vu3Ll5ypfD6l2vO20
 0001:0002EF20       __ZN5QListIP7QWidgetE6appendERKS1_$w$xHJjEyxpfD6DCJYr2
 0001:00020300       __ZN5QListIP7QWidgetE7reserveEi$w$1bvUwWwpfD6jhKW62
 0001:0003B8D0       __ZN5QListIP7QWidgetE7reserveEi$w$vu3Ll5ypfD6l2vO20
 0001:0002EDD0       __ZN5QListIP7QWidgetE7reserveEi$w$xHJjEyxpfD6DCJYr2
 0001:0001F8B0       __ZN5QListIP7QWidgetED1Ev$w$1bvUwWwpfD6jhKW62
 0001:00039510       __ZN5QListIP7QWidgetED1Ev$w$vu3Ll5ypfD6l2vO20
 0001:0002EC10       __ZN5QListIP7QWidgetED1Ev$w$xHJjEyxpfD6DCJYr2
 0001:0003C470       __ZN5QListIP9QShortcutE13detach_helperEi$w$vu3Ll5ypfD6l2vO20
 0001:0003C500       __ZN5QListIP9QShortcutE13detach_helperEv$w$vu3Ll5ypfD6l2vO20
 0001:0003B040       __ZN5QListIP9QShortcutE18detach_helper_growEii$w$vu3Ll5ypfD6l2vO20
 0001:0003B130       __ZN5QListIP9QShortcutE6appendERKS1_$w$vu3Ll5ypfD6l2vO20
 0001:00039460       __ZN5QListIP9QShortcutED1Ev$w$vu3Ll5ypfD6l2vO20
 0000:00000000  Imp  __ZN5QMenu10enterEventEP6QEvent (QtGui4.__ZN5QMenu10enterEventEP6QEvent)
 0000:00000000  Imp  __ZN5QMenu10leaveEventEP6QEvent (QtGui4.__ZN5QMenu10leaveEventEP6QEvent)
 0000:00000000  Imp  __ZN5QMenu10paintEventEP11QPaintEvent (QtGui4.__ZN5QMenu10paintEventEP11QPaintEvent)
 0000:00000000  Imp  __ZN5QMenu10timerEventEP11QTimerEvent (QtGui4.__ZN5QMenu10timerEventEP11QTimerEvent)
 0000:00000000  Imp  __ZN5QMenu10wheelEventEP11QWheelEvent (QtGui4.__ZN5QMenu10wheelEventEP11QWheelEvent)
 0000:00000000  Imp  __ZN5QMenu11actionEventEP12QActionEvent (QtGui4.__ZN5QMenu11actionEventEP12QActionEvent)
 0000:00000000  Imp  __ZN5QMenu11changeEventEP6QEvent (QtGui4.__ZN5QMenu11changeEventEP6QEvent)
 0000:00000000  Imp  __ZN5QMenu11qt_metacallEN11QMetaObject4CallEiPPv (QtGui4.__ZN5QMenu11qt_metacallEN11QMetaObject4CallEiPPv)
 0000:00000000  Imp  __ZN5QMenu11qt_metacastEPKc (QtGui4.__ZN5QMenu11qt_metacastEPKc)
 0000:00000000  Imp  __ZN5QMenu13keyPressEventEP9QKeyEvent (QtGui4.__ZN5QMenu13keyPressEventEP9QKeyEvent)
 0000:00000000  Imp  __ZN5QMenu14mouseMoveEventEP11QMouseEvent (QtGui4.__ZN5QMenu14mouseMoveEventEP11QMouseEvent)
 0000:00000000  Imp  __ZN5QMenu15insertSeparatorEP7QAction (QtGui4.__ZN5QMenu15insertSeparatorEP7QAction)
 0000:00000000  Imp  __ZN5QMenu15mousePressEventEP11QMouseEvent (QtGui4.__ZN5QMenu15mousePressEventEP11QMouseEvent)
 0000:00000000  Imp  __ZN5QMenu16staticMetaObjectE (QtGui4.__ZN5QMenu16staticMetaObjectE)
 0000:00000000  Imp  __ZN5QMenu17mouseReleaseEventEP11QMouseEvent (QtGui4.__ZN5QMenu17mouseReleaseEventEP11QMouseEvent)
 0000:00000000  Imp  __ZN5QMenu17setTearOffEnabledEb (QtGui4.__ZN5QMenu17setTearOffEnabledEb)
 0000:00000000  Imp  __ZN5QMenu18focusNextPrevChildEb (QtGui4.__ZN5QMenu18focusNextPrevChildEb)
 0000:00000000  Imp  __ZN5QMenu24setSeparatorsCollapsibleEb (QtGui4.__ZN5QMenu24setSeparatorsCollapsibleEb)
 0000:00000000  Imp  __ZN5QMenu5clearEv   (QtGui4.__ZN5QMenu5clearEv)
 0000:00000000  Imp  __ZN5QMenu5eventEP6QEvent (QtGui4.__ZN5QMenu5eventEP6QEvent)
 0000:00000000  Imp  __ZN5QMenu7setIconERK5QIcon (QtGui4.__ZN5QMenu7setIconERK5QIcon)
 0000:00000000  Imp  __ZN5QMenu8setTitleERK7QString (QtGui4.__ZN5QMenu8setTitleERK7QString)
 0000:00000000  Imp  __ZN5QMenu9hideEventEP10QHideEvent (QtGui4.__ZN5QMenu9hideEventEP10QHideEvent)
 0000:00000000  Imp  __ZN5QMenuC2EP7QWidget (QtGui4.__ZN5QMenuC2EP7QWidget)
 0000:00000000  Imp  __ZN5QMenuD2Ev       (QtGui4.__ZN5QMenuD2Ev)
 0000:00000000  Imp  __ZN5QRect10moveCenterERK6QPoint (QtCore4.__ZN5QRect10moveCenterERK6QPoint)
 0000:00000000  Imp  __ZN5QTime10fromStringERK7QStringS2_ (QtCore4.__ZN5QTime10fromStringERK7QStringS2_)
 0000:00000000  Imp  __ZN5QTimeC1Eiiii    (QtCore4.__ZN5QTimeC1Eiiii)
 0001:0004D7E0       __ZN6Action11qt_metacallEN11QMetaObject4CallEiPPv
 0001:0004D730       __ZN6Action11qt_metacastEPKc
 0001:00014F30       __ZN6Action13setShortcutIdERK7QString
 0001:0004D7A0       __ZN6Action15actionDestroyedEPS_
 0001:000152E0       __ZN6Action15onMenuDestroyedEP4Menu
 0002:00018810       __ZN6Action16staticMetaObjectE
 0001:00014FA0       __ZN6Action18copyStandardActionEPS_P7QAction
 0001:000155B0       __ZN6Action7setDataEiRK8QVariant
 0001:000156C0       __ZN6Action7setDataERK5QHashIi8QVariantE
 0001:00014DD0       __ZN6Action7setIconERK5QIcon
 0001:00014CF0       __ZN6Action7setIconERK7QStringS2_i
 0001:00014C60       __ZN6Action7setMenuEP4Menu
 0001:00014BC0       __ZN6ActionC1EP7QObject
 0001:00014BC0       __ZN6ActionC2EP7QObject
 0001:00015400       __ZN6ActionD0Ev
 0001:00015330       __ZN6ActionD1Ev
 0001:00015330       __ZN6ActionD2Ev
 0000:00000000  Imp  __ZN6QBrushaSERKS_   (QtGui4.__ZN6QBrushaSERKS_)
 0000:00000000  Imp  __ZN6QBrushC1EN2Qt11GlobalColorENS0_10BrushStyleE (QtGui4.__ZN6QBrushC1EN2Qt11GlobalColorENS0_10BrushStyleE)
 0000:00000000  Imp  __ZN6QBrushC1ERKS_   (QtGui4.__ZN6QBrushC1ERKS_)
 0000:00000000  Imp  __ZN6QBrushC1Ev      (QtGui4.__ZN6QBrushC1Ev)
 0000:00000000  Imp  __ZN6QBrushD1Ev      (QtGui4.__ZN6QBrushD1Ev)
 0000:00000000  Imp  __ZN6QColor10invalidateEv (QtGui4.__ZN6QColor10invalidateEv)
 0000:00000000  Imp  __ZN6QColor6setRgbEiiii (QtGui4.__ZN6QColor6setRgbEiiii)
 0000:00000000  Imp  __ZN6QColor7fromRgbEiiii (QtGui4.__ZN6QColor7fromRgbEiiii)
 0000:00000000  Imp  __ZN6QColoraSERKS_   (QtGui4.__ZN6QColoraSERKS_)
 0000:00000000  Imp  __ZN6QColorC1EN2Qt11GlobalColorE (QtGui4.__ZN6QColorC1EN2Qt11GlobalColorE)
 0001:0007E1C0       __ZN6QDebugD1Ev$w$xvL7aFupfD6iFA5P0
 0000:00000000  Imp  __ZN6QEvent17registerEventTypeEi (QtCore4.__ZN6QEvent17registerEventTypeEi)
 0000:00000000  Imp  __ZN6QEventC1ENS_4TypeE (QtCore4.__ZN6QEventC1ENS_4TypeE)
 0000:00000000  Imp  __ZN6QImage15setAlphaChannelERKS_ (QtGui4.__ZN6QImage15setAlphaChannelERKS_)
 0000:00000000  Imp  __ZN6QImage4bitsEv   (QtGui4.__ZN6QImage4bitsEv)
 0000:00000000  Imp  __ZN6QImage4fillEj   (QtGui4.__ZN6QImage4fillEj)
 0000:00000000  Imp  __ZN6QImageC1EiiNS_6FormatE (QtGui4.__ZN6QImageC1EiiNS_6FormatE)
 0000:00000000  Imp  __ZN6QImageC1ERK5QSizeNS_6FormatE (QtGui4.__ZN6QImageC1ERK5QSizeNS_6FormatE)
 0000:00000000  Imp  __ZN6QImageC1ERKS_   (QtGui4.__ZN6QImageC1ERKS_)
 0000:00000000  Imp  __ZN6QImageC1Ev      (QtGui4.__ZN6QImageC1Ev)
 0000:00000000  Imp  __ZN6QImageD1Ev      (QtGui4.__ZN6QImageD1Ev)
 0000:00000000  Imp  __ZN6QMovie11jumpToFrameEi (QtGui4.__ZN6QMovie11jumpToFrameEi)
 0000:00000000  Imp  __ZN6QMovie16staticMetaObjectE (QtGui4.__ZN6QMovie16staticMetaObjectE)
 0000:00000000  Imp  __ZN6QMovie5startEv  (QtGui4.__ZN6QMovie5startEv)
 0000:00000000  Imp  __ZN6QMovie9setPausedEb (QtGui4.__ZN6QMovie9setPausedEb)
 0000:00000000  Imp  __ZN6QMovieC1EP9QIODeviceRK10QByteArrayP7QObject (QtGui4.__ZN6QMovieC1EP9QIODeviceRK10QByteArrayP7QObject)
 0000:00000000  Imp  __ZN6QMovieC1ERK7QStringRK10QByteArrayP7QObject (QtGui4.__ZN6QMovieC1ERK7QStringRK10QByteArrayP7QObject)
 0000:00000000  Imp  __ZN6QStyle11alignedRectEN2Qt15LayoutDirectionE6QFlagsINS0_13AlignmentFlagEERK5QSizeRK5QRect (QtGui4.__ZN6QStyle11alignedRectEN2Qt15LayoutDirectionE6QFlagsINS0_13AlignmentFlagEERK5QSizeRK5QRect)
 0000:00000000  Imp  __ZN6QTimer10singleShotEiP7QObjectPKc (QtCore4.__ZN6QTimer10singleShotEiP7QObjectPKc)
 0000:00000000  Imp  __ZN6QTimer11setIntervalEi (QtCore4.__ZN6QTimer11setIntervalEi)
 0000:00000000  Imp  __ZN6QTimer16staticMetaObjectE (QtCore4.__ZN6QTimer16staticMetaObjectE)
 0000:00000000  Imp  __ZN6QTimer4stopEv   (QtCore4.__ZN6QTimer4stopEv)
 0000:00000000  Imp  __ZN6QTimer5startEi  (QtCore4.__ZN6QTimer5startEi)
 0000:00000000  Imp  __ZN6QTimer5startEv  (QtCore4.__ZN6QTimer5startEv)
 0000:00000000  Imp  __ZN6QTimerC1EP7QObject (QtCore4.__ZN6QTimerC1EP7QObject)
 0000:00000000  Imp  __ZN6QTimerD1Ev      (QtCore4.__ZN6QTimerD1Ev)
 0001:000146C0       __ZN6Stanza10addElementERK7QStringS2_
 0001:00014580       __ZN6Stanza10setTagNameERK7QString
 0001:00013F00       __ZN6Stanza11findElementERK11QDomElementRK7QStringS5_
 0001:000147A0       __ZN6Stanza12setAttributeERK7QStringS2_
 0001:00014620       __ZN6Stanza13createElementERK7QStringS2_
 0001:00014530       __ZN6Stanza14createTextNodeERK7QString
 0001:000149F0       __ZN6Stanza5setIdERK7QString
 0001:00014970       __ZN6Stanza5setToERK7QString
 0001:000145F0       __ZN6Stanza6detachEv
 0001:000148F0       __ZN6Stanza7setFromERK7QString
 0001:00014870       __ZN6Stanza7setLangERK7QString
 0001:00014A70       __ZN6Stanza7setTypeERK7QString
 0001:00014350       __ZN6StanzaC1ERK11QDomElement
 0001:00014400       __ZN6StanzaC1ERK7QString
 0001:00014350       __ZN6StanzaC2ERK11QDomElement
 0001:00014400       __ZN6StanzaC2ERK7QString
 0001:00013760       __ZN6StanzaD1Ev
 0001:00013760       __ZN6StanzaD2Ev
 0001:00000520       __ZN7JidDataC1ERKS_
 0001:00000430       __ZN7JidDataC1Ev
 0001:00000520       __ZN7JidDataC2ERKS_
 0001:00000430       __ZN7JidDataC2Ev
 0001:0001B600       __ZN7Message10setDefLangERK7QString
 0001:0001C000       __ZN7Message10setSubjectERK7QStringS2_
 0001:0001C100       __ZN7Message11setDateTimeERK9QDateTimeb
 0001:0001B980       __ZN7Message11setThreadIdERK7QString
 0001:0001BC60       __ZN7Message14addChildByLangERK11QDomElementRK7QStringS5_S5_
 0001:0001B6C0       __ZN7Message5setIdERK7QString
 0001:0001B640       __ZN7Message5setToERK7QString
 0001:0001B730       __ZN7Message6detachEv
 0001:0001B700       __ZN7Message6stanzaEv
 0001:0001BF00       __ZN7Message7setBodyERK7QStringS2_
 0001:0001B790       __ZN7Message7setDataEiRK8QVariant
 0001:0001B910       __ZN7Message7setDataERK5QHashIi8QVariantE
 0001:0001B680       __ZN7Message7setFromERK7QString
 0001:0001C570       __ZN7Message7setTypeENS_11MessageTypeE
 0001:0001B580       __ZN7Message9setStanzaERK6Stanza
 0001:0001AAF0       __ZN7MessageC1ERK6Stanza
 0001:0001ABF0       __ZN7MessageC1Ev
 0001:0001AAF0       __ZN7MessageC2ERK6Stanza
 0001:0001ABF0       __ZN7MessageC2Ev
 0001:000198A0       __ZN7MessageD1Ev
 0001:000198A0       __ZN7MessageD2Ev
 0001:00037770       __ZN7Options10exportNodeERK7QStringR11QDomElement
 0001:00038680       __ZN7Options10importNodeERK7QStringRK11QDomElement
 0001:00034390       __ZN7Options10setOptionsE12QDomDocumentRK7QStringRK10QByteArray
 0001:0004F4B0       __ZN7Options11qt_metacallEN11QMetaObject4CallEiPPv
 0001:0004F2E0       __ZN7Options11qt_metacastEPKc
 0001:00033E00       __ZN7Options12cleanNSpacesERK7QString
 0001:000359A0       __ZN7Options12defaultValueERK7QString
 0001:00034200       __ZN7Options12setFileValueERK8QVariantRK7QStringS5_
 0001:0004F380       __ZN7Options13optionsClosedEv
 0001:0004F350       __ZN7Options13optionsOpenedEv
 0001:0004F3F0       __ZN7Options14optionsChangedERK11OptionsNode
 0001:0004F3B0       __ZN7Options14optionsCreatedERK11OptionsNode
 0001:0004F430       __ZN7Options14optionsRemovedERK11OptionsNode
 0001:000389F0       __ZN7Options15setDefaultValueERK7QStringRK8QVariant
 0002:00018E10       __ZN7Options16staticMetaObjectE
 0001:0004F470       __ZN7Options19defaultValueChangedERK7QStringRK8QVariant
 0002:0001B0B4       __ZN7Options1dE
 0001:00033F80       __ZN7Options4nodeERK7QStringS2_
 0001:00033DA0       __ZN7Options6isNullEv
 0001:00037C00       __ZN7Options7decryptERK10QByteArrayS2_
 0001:00034B70       __ZN7Options7encryptERK8QVariantRK10QByteArray
 0001:00033EF0       __ZN7Options7hasNodeERK7QStringS2_
 0001:00033DE0       __ZN7Options8cryptKeyEv
 0001:00033150       __ZN7Options8instanceEv
 0001:00033DC0       __ZN7Options9filesPathEv
 0001:00035A90       __ZN7Options9fileValueERK7QStringS2_
 0001:0004F2B0       __ZN7OptionsD0Ev$w$JVFn6hApfD6I6SsG1
 0001:0004F290       __ZN7OptionsD1Ev$w$JVFn6hApfD6I6SsG1
 0000:00000000  Imp  __ZN7QAction10setCheckedEb (QtGui4.__ZN7QAction10setCheckedEb)
 0000:00000000  Imp  __ZN7QAction10setEnabledEb (QtGui4.__ZN7QAction10setEnabledEb)
 0000:00000000  Imp  __ZN7QAction10setToolTipERK7QString (QtGui4.__ZN7QAction10setToolTipERK7QString)
 0000:00000000  Imp  __ZN7QAction10setVisibleEb (QtGui4.__ZN7QAction10setVisibleEb)
 0000:00000000  Imp  __ZN7QAction11qt_metacallEN11QMetaObject4CallEiPPv (QtGui4.__ZN7QAction11qt_metacallEN11QMetaObject4CallEiPPv)
 0000:00000000  Imp  __ZN7QAction11qt_metacastEPKc (QtGui4.__ZN7QAction11qt_metacastEPKc)
 0000:00000000  Imp  __ZN7QAction11setIconTextERK7QString (QtGui4.__ZN7QAction11setIconTextERK7QString)
 0000:00000000  Imp  __ZN7QAction11setMenuRoleENS_8MenuRoleE (QtGui4.__ZN7QAction11setMenuRoleENS_8MenuRoleE)
 0000:00000000  Imp  __ZN7QAction11setPriorityENS_8PriorityE (QtGui4.__ZN7QAction11setPriorityENS_8PriorityE)
 0000:00000000  Imp  __ZN7QAction11setShortcutERK12QKeySequence (QtGui4.__ZN7QAction11setShortcutERK12QKeySequence)
 0000:00000000  Imp  __ZN7QAction12setCheckableEb (QtGui4.__ZN7QAction12setCheckableEb)
 0000:00000000  Imp  __ZN7QAction12setStatusTipERK7QString (QtGui4.__ZN7QAction12setStatusTipERK7QString)
 0000:00000000  Imp  __ZN7QAction12setWhatsThisERK7QString (QtGui4.__ZN7QAction12setWhatsThisERK7QString)
 0000:00000000  Imp  __ZN7QAction13setAutoRepeatEb (QtGui4.__ZN7QAction13setAutoRepeatEb)
 0000:00000000  Imp  __ZN7QAction14setActionGroupEP12QActionGroup (QtGui4.__ZN7QAction14setActionGroupEP12QActionGroup)
 0000:00000000  Imp  __ZN7QAction16staticMetaObjectE (QtGui4.__ZN7QAction16staticMetaObjectE)
 0000:00000000  Imp  __ZN7QAction18setShortcutContextEN2Qt15ShortcutContextE (QtGui4.__ZN7QAction18setShortcutContextEN2Qt15ShortcutContextE)
 0000:00000000  Imp  __ZN7QAction20setIconVisibleInMenuEb (QtGui4.__ZN7QAction20setIconVisibleInMenuEb)
 0000:00000000  Imp  __ZN7QAction5eventEP6QEvent (QtGui4.__ZN7QAction5eventEP6QEvent)
 0000:00000000  Imp  __ZN7QAction7setFontERK5QFont (QtGui4.__ZN7QAction7setFontERK5QFont)
 0000:00000000  Imp  __ZN7QAction7setIconERK5QIcon (QtGui4.__ZN7QAction7setIconERK5QIcon)
 0000:00000000  Imp  __ZN7QAction7setMenuEP5QMenu (QtGui4.__ZN7QAction7setMenuEP5QMenu)
 0000:00000000  Imp  __ZN7QAction7setTextERK7QString (QtGui4.__ZN7QAction7setTextERK7QString)
 0000:00000000  Imp  __ZN7QActionC2EP7QObject (QtGui4.__ZN7QActionC2EP7QObject)
 0000:00000000  Imp  __ZN7QActionD2Ev     (QtGui4.__ZN7QActionD2Ev)
 0000:00000000  Imp  __ZN7QBuffer7setDataERK10QByteArray (QtCore4.__ZN7QBuffer7setDataERK10QByteArray)
 0000:00000000  Imp  __ZN7QBufferC1EP7QObject (QtCore4.__ZN7QBufferC1EP7QObject)
 0000:00000000  Imp  __ZN7QCursor3posEv   (QtGui4.__ZN7QCursor3posEv)
 0000:00000000  Imp  __ZN7QCursorC1EN2Qt11CursorShapeE (QtGui4.__ZN7QCursorC1EN2Qt11CursorShapeE)
 0000:00000000  Imp  __ZN7QCursorD1Ev     (QtGui4.__ZN7QCursorD1Ev)
 0000:00000000  Imp  __ZN7QLayout18setContentsMarginsEiiii (QtGui4.__ZN7QLayout18setContentsMarginsEiiii)
 0000:00000000  Imp  __ZN7QLocaleaSERKS_  (QtCore4.__ZN7QLocaleaSERKS_)
 0000:00000000  Imp  __ZN7QObject10childEventEP11QChildEvent (QtCore4.__ZN7QObject10childEventEP11QChildEvent)
 0000:00000000  Imp  __ZN7QObject10disconnectEPKS_PKcS1_S3_ (QtCore4.__ZN7QObject10disconnectEPKS_PKcS1_S3_)
 0000:00000000  Imp  __ZN7QObject10timerEventEP11QTimerEvent (QtCore4.__ZN7QObject10timerEventEP11QTimerEvent)
 0000:00000000  Imp  __ZN7QObject11customEventEP6QEvent (QtCore4.__ZN7QObject11customEventEP6QEvent)
 0000:00000000  Imp  __ZN7QObject11deleteLaterEv (QtCore4.__ZN7QObject11deleteLaterEv)
 0000:00000000  Imp  __ZN7QObject11eventFilterEPS_P6QEvent (QtCore4.__ZN7QObject11eventFilterEPS_P6QEvent)
 0000:00000000  Imp  __ZN7QObject11qt_metacallEN11QMetaObject4CallEiPPv (QtCore4.__ZN7QObject11qt_metacallEN11QMetaObject4CallEiPPv)
 0000:00000000  Imp  __ZN7QObject11qt_metacastEPKc (QtCore4.__ZN7QObject11qt_metacastEPKc)
 0000:00000000  Imp  __ZN7QObject11setPropertyEPKcRK8QVariant (QtCore4.__ZN7QObject11setPropertyEPKcRK8QVariant)
 0000:00000000  Imp  __ZN7QObject12blockSignalsEb (QtCore4.__ZN7QObject12blockSignalsEb)
 0000:00000000  Imp  __ZN7QObject13connectNotifyEPKc (QtCore4.__ZN7QObject13connectNotifyEPKc)
 0000:00000000  Imp  __ZN7QObject16disconnectNotifyEPKc (QtCore4.__ZN7QObject16disconnectNotifyEPKc)
 0000:00000000  Imp  __ZN7QObject16staticMetaObjectE (QtCore4.__ZN7QObject16staticMetaObjectE)
 0000:00000000  Imp  __ZN7QObject17removeEventFilterEPS_ (QtCore4.__ZN7QObject17removeEventFilterEPS_)
 0000:00000000  Imp  __ZN7QObject18installEventFilterEPS_ (QtCore4.__ZN7QObject18installEventFilterEPS_)
 0000:00000000  Imp  __ZN7QObject5eventEP6QEvent (QtCore4.__ZN7QObject5eventEP6QEvent)
 0000:00000000  Imp  __ZN7QObject7connectEPKS_PKcS1_S3_N2Qt14ConnectionTypeE (QtCore4.__ZN7QObject7connectEPKS_PKcS1_S3_N2Qt14ConnectionTypeE)
 0000:00000000  Imp  __ZN7QObject9setParentEPS_ (QtCore4.__ZN7QObject9setParentEPS_)
 0000:00000000  Imp  __ZN7QObjectC2EPS_   (QtCore4.__ZN7QObjectC2EPS_)
 0000:00000000  Imp  __ZN7QObjectD2Ev     (QtCore4.__ZN7QObjectD2Ev)
 0000:00000000  Imp  __ZN7QPixmap9fromImageERK6QImage6QFlagsIN2Qt19ImageConversionFlagEE (QtGui4.__ZN7QPixmap9fromImageERK6QImage6QFlagsIN2Qt19ImageConversionFlagEE)
 0000:00000000  Imp  __ZN7QPixmapC1ERKS_  (QtGui4.__ZN7QPixmapC1ERKS_)
 0000:00000000  Imp  __ZN7QPixmapC1Ev     (QtGui4.__ZN7QPixmapC1Ev)
 0000:00000000  Imp  __ZN7QPixmapD1Ev     (QtGui4.__ZN7QPixmapD1Ev)
 0000:00000000  Imp  __ZN7QRegExp10setMinimalEb (QtCore4.__ZN7QRegExp10setMinimalEb)
 0000:00000000  Imp  __ZN7QRegExp3capEi   (QtCore4.__ZN7QRegExp3capEi)
 0000:00000000  Imp  __ZN7QRegExpC1ERK7QStringN2Qt15CaseSensitivityENS_13PatternSyntaxE (QtCore4.__ZN7QRegExpC1ERK7QStringN2Qt15CaseSensitivityENS_13PatternSyntaxE)
 0000:00000000  Imp  __ZN7QRegExpD1Ev     (QtCore4.__ZN7QRegExpD1Ev)
 0000:00000000  Imp  __ZN7QString11shared_nullE (QtCore4.__ZN7QString11shared_nullE)
 0000:00000000  Imp  __ZN7QString14compare_helperEPK5QChariS2_iN2Qt15CaseSensitivityE (QtCore4.__ZN7QString14compare_helperEPK5QChariS2_iN2Qt15CaseSensitivityE)
 0000:00000000  Imp  __ZN7QString16codecForCStringsE (QtCore4.__ZN7QString16codecForCStringsE)
 0000:00000000  Imp  __ZN7QString16fromAscii_helperEPKci (QtCore4.__ZN7QString16fromAscii_helperEPKci)
 0000:00000000  Imp  __ZN7QString4freeEPNS_4DataE (QtCore4.__ZN7QString4freeEPNS_4DataE)
 0000:00000000  Imp  __ZN7QString4growEi  (QtCore4.__ZN7QString4growEi)
 0000:00000000  Imp  __ZN7QString6appendE5QChar (QtCore4.__ZN7QString6appendE5QChar)
 0000:00000000  Imp  __ZN7QString6appendERKS_ (QtCore4.__ZN7QString6appendERKS_)
 0000:00000000  Imp  __ZN7QString6insertEiPK5QChari (QtCore4.__ZN7QString6insertEiPK5QChari)
 0000:00000000  Imp  __ZN7QString6removeE5QCharN2Qt15CaseSensitivityE (QtCore4.__ZN7QString6removeE5QCharN2Qt15CaseSensitivityE)
 0000:00000000  Imp  __ZN7QString6removeEii (QtCore4.__ZN7QString6removeEii)
 0000:00000000  Imp  __ZN7QString7reallocEi (QtCore4.__ZN7QString7reallocEi)
 0000:00000000  Imp  __ZN7QString7reallocEv (QtCore4.__ZN7QString7reallocEv)
 0000:00000000  Imp  __ZN7QString7replaceEiiRKS_ (QtCore4.__ZN7QString7replaceEiiRKS_)
 0000:00000000  Imp  __ZN7QString7sprintfEPKcz (QtCore4.__ZN7QString7sprintfEPKcz)
 0000:00000000  Imp  __ZN7QString8fromUtf8EPKci (QtCore4.__ZN7QString8fromUtf8EPKci)
 0000:00000000  Imp  __ZN7QString9fromAsciiEPKci (QtCore4.__ZN7QString9fromAsciiEPKci)
 0000:00000000  Imp  __ZN7QStringaSERKS_  (QtCore4.__ZN7QStringaSERKS_)
 0000:00000000  Imp  __ZN7QStringD1Ev     (QtCore4.__ZN7QStringD1Ev)
 0001:00023410       __ZN7QStringD1Ev$w$9jvlvcxpfD6zc01C1
 0001:00044460       __ZN7QStringD1Ev$w$d32ndWypfD6CcIGO3
 0001:00006340       __ZN7QStringD1Ev$w$f88ZN9wpfD61qkSl0
 0001:00013550       __ZN7QStringD1Ev$w$jSyFoewpfD6ZPOCx2
 0001:00005100       __ZN7QStringD1Ev$w$LkOn7VvpfD6X14P70
 0001:0003E5E0       __ZN7QStringD1Ev$w$LuTRgoypfD6srdWB2
 0001:000194B0       __ZN7QStringD1Ev$w$Nlg6JEwpfD61JVHa4
 0001:00029AF0       __ZN7QStringD1Ev$w$Pegk7mxpfD6IeT6r2
 0001:00042440       __ZN7QStringD1Ev$w$ptQ9EAypfD6I5mzj0
 0001:00000180       __ZN7QStringD1Ev$w$RbmQ7RvpfD690XI54
 0001:000181C0       __ZN7QStringD1Ev$w$rYz77ywpfD6ajwMW2
 0001:0001CBA0       __ZN7QStringD1Ev$w$TsYjLNwpfD6WUzhB0
 0001:00014B90       __ZN7QStringD1Ev$w$v8Ij8kwpfD6ooPV82
 0001:00038DE0       __ZN7QStringD1Ev$w$vu3Ll5ypfD6l2vO20
 0001:0003D6F0       __ZN7QStringD1Ev$w$vujxWdypfD6GmsqJ0
 0001:0007E190       __ZN7QStringD1Ev$w$xvL7aFupfD6iFA5P0
 0001:00021CE0       __ZN7QStringD1Ev$w$XWSbO0xpfD6TKWN22
 0001:00015910       __ZN7QStringD1Ev$w$xxeCqtwpfD6zMw8g2
 0001:00050370       __ZN7QStringD1Ev$w$z2IZSJApfD6uTITD3
 0001:000314E0       __ZN7QStringD1Ev$w$ZjIoOUxpfD62Qc4R2
 0000:00000000  Imp  __ZN7QWidget10closeEventEP11QCloseEvent (QtGui4.__ZN7QWidget10closeEventEP11QCloseEvent)
 0000:00000000  Imp  __ZN7QWidget10enterEventEP6QEvent (QtGui4.__ZN7QWidget10enterEventEP6QEvent)
 0000:00000000  Imp  __ZN7QWidget10fontChangeERK5QFont (QtGui4.__ZN7QWidget10fontChangeERK5QFont)
 0000:00000000  Imp  __ZN7QWidget10leaveEventEP6QEvent (QtGui4.__ZN7QWidget10leaveEventEP6QEvent)
 0000:00000000  Imp  __ZN7QWidget10setToolTipERK7QString (QtGui4.__ZN7QWidget10setToolTipERK7QString)
 0000:00000000  Imp  __ZN7QWidget10setVisibleEb (QtGui4.__ZN7QWidget10setVisibleEb)
 0000:00000000  Imp  __ZN7QWidget10showNormalEv (QtGui4.__ZN7QWidget10showNormalEv)
 0000:00000000  Imp  __ZN7QWidget10wheelEventEP11QWheelEvent (QtGui4.__ZN7QWidget10wheelEventEP11QWheelEvent)
 0000:00000000  Imp  __ZN7QWidget11actionEventEP12QActionEvent (QtGui4.__ZN7QWidget11actionEventEP12QActionEvent)
 0000:00000000  Imp  __ZN7QWidget11resizeEventEP12QResizeEvent (QtGui4.__ZN7QWidget11resizeEventEP12QResizeEvent)
 0000:00000000  Imp  __ZN7QWidget11setGeometryERK5QRect (QtGui4.__ZN7QWidget11setGeometryERK5QRect)
 0000:00000000  Imp  __ZN7QWidget11styleChangeER6QStyle (QtGui4.__ZN7QWidget11styleChangeER6QStyle)
 0000:00000000  Imp  __ZN7QWidget11tabletEventEP12QTabletEvent (QtGui4.__ZN7QWidget11tabletEventEP12QTabletEvent)
 0000:00000000  Imp  __ZN7QWidget12focusInEventEP11QFocusEvent (QtGui4.__ZN7QWidget12focusInEventEP11QFocusEvent)
 0000:00000000  Imp  __ZN7QWidget12insertActionEP7QActionS1_ (QtGui4.__ZN7QWidget12insertActionEP7QActionS1_)
 0000:00000000  Imp  __ZN7QWidget12removeActionEP7QAction (QtGui4.__ZN7QWidget12removeActionEP7QAction)
 0000:00000000  Imp  __ZN7QWidget13dragMoveEventEP14QDragMoveEvent (QtGui4.__ZN7QWidget13dragMoveEventEP14QDragMoveEvent)
 0000:00000000  Imp  __ZN7QWidget13enabledChangeEb (QtGui4.__ZN7QWidget13enabledChangeEb)
 0000:00000000  Imp  __ZN7QWidget13focusOutEventEP11QFocusEvent (QtGui4.__ZN7QWidget13focusOutEventEP11QFocusEvent)
 0000:00000000  Imp  __ZN7QWidget13paletteChangeERK8QPalette (QtGui4.__ZN7QWidget13paletteChangeERK8QPalette)
 0000:00000000  Imp  __ZN7QWidget13setSizePolicyE11QSizePolicy (QtGui4.__ZN7QWidget13setSizePolicyE11QSizePolicy)
 0000:00000000  Imp  __ZN7QWidget13showMaximizedEv (QtGui4.__ZN7QWidget13showMaximizedEv)
 0000:00000000  Imp  __ZN7QWidget14activateWindowEv (QtGui4.__ZN7QWidget14activateWindowEv)
 0000:00000000  Imp  __ZN7QWidget14dragEnterEventEP15QDragEnterEvent (QtGui4.__ZN7QWidget14dragEnterEventEP15QDragEnterEvent)
 0000:00000000  Imp  __ZN7QWidget14dragLeaveEventEP15QDragLeaveEvent (QtGui4.__ZN7QWidget14dragLeaveEventEP15QDragLeaveEvent)
 0000:00000000  Imp  __ZN7QWidget14languageChangeEv (QtGui4.__ZN7QWidget14languageChangeEv)
 0000:00000000  Imp  __ZN7QWidget14setFocusPolicyEN2Qt11FocusPolicyE (QtGui4.__ZN7QWidget14setFocusPolicyEN2Qt11FocusPolicyE)
 0000:00000000  Imp  __ZN7QWidget15keyReleaseEventEP9QKeyEvent (QtGui4.__ZN7QWidget15keyReleaseEventEP9QKeyEvent)
 0000:00000000  Imp  __ZN7QWidget15setMaximumWidthEi (QtGui4.__ZN7QWidget15setMaximumWidthEi)
 0000:00000000  Imp  __ZN7QWidget16contextMenuEventEP17QContextMenuEvent (QtGui4.__ZN7QWidget16contextMenuEventEP17QContextMenuEvent)
 0000:00000000  Imp  __ZN7QWidget16inputMethodEventEP17QInputMethodEvent (QtGui4.__ZN7QWidget16inputMethodEventEP17QInputMethodEvent)
 0000:00000000  Imp  __ZN7QWidget16setMaximumHeightEi (QtGui4.__ZN7QWidget16setMaximumHeightEi)
 0000:00000000  Imp  __ZN7QWidget18focusNextPrevChildEb (QtGui4.__ZN7QWidget18focusNextPrevChildEb)
 0000:00000000  Imp  __ZN7QWidget21mouseDoubleClickEventEP11QMouseEvent (QtGui4.__ZN7QWidget21mouseDoubleClickEventEP11QMouseEvent)
 0000:00000000  Imp  __ZN7QWidget22windowActivationChangeEb (QtGui4.__ZN7QWidget22windowActivationChangeEb)
 0000:00000000  Imp  __ZN7QWidget4moveERK6QPoint (QtGui4.__ZN7QWidget4moveERK6QPoint)
 0000:00000000  Imp  __ZN7QWidget5raiseEv (QtGui4.__ZN7QWidget5raiseEv)
 0000:00000000  Imp  __ZN7QWidget6resizeERK5QSize (QtGui4.__ZN7QWidget6resizeERK5QSize)
 0000:00000000  Imp  __ZN7QWidget6updateEv (QtGui4.__ZN7QWidget6updateEv)
 0000:00000000  Imp  __ZN7QWidget7pmEventEP5_QMSGPPv (QtGui4.__ZN7QWidget7pmEventEP5_QMSGPPv)
 0000:00000000  Imp  __ZN7QWidget9addActionEP7QAction (QtGui4.__ZN7QWidget9addActionEP7QAction)
 0000:00000000  Imp  __ZN7QWidget9dropEventEP10QDropEvent (QtGui4.__ZN7QWidget9dropEventEP10QDropEvent)
 0000:00000000  Imp  __ZN7QWidget9hideEventEP10QHideEvent (QtGui4.__ZN7QWidget9hideEventEP10QHideEvent)
 0000:00000000  Imp  __ZN7QWidget9moveEventEP10QMoveEvent (QtGui4.__ZN7QWidget9moveEventEP10QMoveEvent)
 0000:00000000  Imp  __ZN7QWidget9setCursorERK7QCursor (QtGui4.__ZN7QWidget9setCursorERK7QCursor)
 0000:00000000  Imp  __ZN7QWidget9showEventEP10QShowEvent (QtGui4.__ZN7QWidget9showEventEP10QShowEvent)
 0000:00000000  Imp  __ZN7QWidgetC1EPS_6QFlagsIN2Qt10WindowTypeEE (QtGui4.__ZN7QWidgetC1EPS_6QFlagsIN2Qt10WindowTypeEE)
 0001:00022660       __ZN8DateTime10tzdFromX85ERK7QString
 0001:00023190       __ZN8DateTime11setDateTimeERK9QDateTime
 0001:00023160       __ZN8DateTime11setTimeZoneEi
 0001:000228E0       __ZN8DateTime9dtFromX85ERK7QString
 0001:00022F30       __ZN8DateTimeC1ERK7QString
 0001:00022DB0       __ZN8DateTimeC1ERK9QDateTime
 0001:00022F30       __ZN8DateTimeC2ERK7QString
 0001:00022DB0       __ZN8DateTimeC2ERK9QDateTime
 0001:00021DE0       __ZN8DateTimeD1Ev
 0001:00021DE0       __ZN8DateTimeD2Ev
 0000:00000000  Imp  __ZN8QDomNode11appendChildERKS_ (QtXml4.__ZN8QDomNode11appendChildERKS_)
 0000:00000000  Imp  __ZN8QDomNode11removeChildERKS_ (QtXml4.__ZN8QDomNode11removeChildERKS_)
 0000:00000000  Imp  __ZN8QDomNodeaSERKS_ (QtXml4.__ZN8QDomNodeaSERKS_)
 0000:00000000  Imp  __ZN8QDomNodeD1Ev    (QtXml4.__ZN8QDomNodeD1Ev)
 0000:00000000  Imp  __ZN8QDomNodeD2Ev    (QtXml4.__ZN8QDomNodeD2Ev)
 0000:00000000  Imp  __ZN8QDomTextC1Ev    (QtXml4.__ZN8QDomTextC1Ev)
 0000:00000000  Imp  __ZN8QMapData10createDataEi (QtCore4.__ZN8QMapData10createDataEi)
 0000:00000000  Imp  __ZN8QMapData11node_createEPPNS_4NodeEii (QtCore4.__ZN8QMapData11node_createEPPNS_4NodeEii)
 0000:00000000  Imp  __ZN8QMapData11node_deleteEPPNS_4NodeEiS1_ (QtCore4.__ZN8QMapData11node_deleteEPPNS_4NodeEiS1_)
 0000:00000000  Imp  __ZN8QMapData11shared_nullE (QtCore4.__ZN8QMapData11shared_nullE)
 0000:00000000  Imp  __ZN8QMapData16continueFreeDataEi (QtCore4.__ZN8QMapData16continueFreeDataEi)
 0000:00000000  Imp  __ZN8QMenuBar5clearEv (QtGui4.__ZN8QMenuBar5clearEv)
 0000:00000000  Imp  __ZN8QPainter10drawPixmapERK6QRectFRK7QPixmapS2_ (QtGui4.__ZN8QPainter10drawPixmapERK6QRectFRK7QPixmapS2_)
 0000:00000000  Imp  __ZN8QPainter10drawPixmapERK7QPointFRK7QPixmap (QtGui4.__ZN8QPainter10drawPixmapERK7QPointFRK7QPixmap)
 0000:00000000  Imp  __ZN8QPainter10setOpacityEd (QtGui4.__ZN8QPainter10setOpacityEd)
 0000:00000000  Imp  __ZN8QPainter11setClippingEb (QtGui4.__ZN8QPainter11setClippingEb)
 0000:00000000  Imp  __ZN8QPainter11setClipRectERK5QRectN2Qt13ClipOperationE (QtGui4.__ZN8QPainter11setClipRectERK5QRectN2Qt13ClipOperationE)
 0000:00000000  Imp  __ZN8QPainter13setRenderHintENS_10RenderHintEb (QtGui4.__ZN8QPainter13setRenderHintENS_10RenderHintEb)
 0000:00000000  Imp  __ZN8QPainter15drawRoundedRectERK6QRectFddN2Qt8SizeModeE (QtGui4.__ZN8QPainter15drawRoundedRectERK6QRectFddN2Qt8SizeModeE)
 0000:00000000  Imp  __ZN8QPainter18setCompositionModeENS_15CompositionModeE (QtGui4.__ZN8QPainter18setCompositionModeENS_15CompositionModeE)
 0000:00000000  Imp  __ZN8QPainter3endEv  (QtGui4.__ZN8QPainter3endEv)
 0000:00000000  Imp  __ZN8QPainter4saveEv (QtGui4.__ZN8QPainter4saveEv)
 0000:00000000  Imp  __ZN8QPainter6rotateEd (QtGui4.__ZN8QPainter6rotateEd)
 0000:00000000  Imp  __ZN8QPainter6setPenERK4QPen (QtGui4.__ZN8QPainter6setPenERK4QPen)
 0000:00000000  Imp  __ZN8QPainter6setPenERK6QColor (QtGui4.__ZN8QPainter6setPenERK6QColor)
 0000:00000000  Imp  __ZN8QPainter7restoreEv (QtGui4.__ZN8QPainter7restoreEv)
 0000:00000000  Imp  __ZN8QPainter7setFontERK5QFont (QtGui4.__ZN8QPainter7setFontERK5QFont)
 0000:00000000  Imp  __ZN8QPainter8drawTextERK5QRectiRK7QStringPS0_ (QtGui4.__ZN8QPainter8drawTextERK5QRectiRK7QStringPS0_)
 0000:00000000  Imp  __ZN8QPainter8fillRectERK5QRectRK6QBrush (QtGui4.__ZN8QPainter8fillRectERK5QRectRK6QBrush)
 0000:00000000  Imp  __ZN8QPainter8fillRectERK5QRectRK6QColor (QtGui4.__ZN8QPainter8fillRectERK5QRectRK6QColor)
 0000:00000000  Imp  __ZN8QPainter8setBrushERK6QBrush (QtGui4.__ZN8QPainter8setBrushERK6QBrush)
 0000:00000000  Imp  __ZN8QPainter9drawImageERK7QPointFRK6QImage (QtGui4.__ZN8QPainter9drawImageERK7QPointFRK6QImage)
 0000:00000000  Imp  __ZN8QPainter9translateERK7QPointF (QtGui4.__ZN8QPainter9translateERK7QPointF)
 0000:00000000  Imp  __ZN8QPainterC1EP12QPaintDevice (QtGui4.__ZN8QPainterC1EP12QPaintDevice)
 0000:00000000  Imp  __ZN8QPainterD1Ev    (QtGui4.__ZN8QPainterD1Ev)
 0000:00000000  Imp  __ZN8QPalette8setBrushENS_10ColorGroupENS_9ColorRoleERK6QBrush (QtGui4.__ZN8QPalette8setBrushENS_10ColorGroupENS_9ColorRoleERK6QBrush)
 0000:00000000  Imp  __ZN8QToolBar12insertWidgetEP7QActionP7QWidget (QtGui4.__ZN8QToolBar12insertWidgetEP7QActionP7QWidget)
 0000:00000000  Imp  __ZN8QToolBar15insertSeparatorEP7QAction (QtGui4.__ZN8QToolBar15insertSeparatorEP7QAction)
 0000:00000000  Imp  __ZN8QToolBar16staticMetaObjectE (QtGui4.__ZN8QToolBar16staticMetaObjectE)
 0000:00000000  Imp  __ZN8QToolBar5clearEv (QtGui4.__ZN8QToolBar5clearEv)
 0000:00000000  Imp  __ZN8QToolBar9addWidgetEP7QWidget (QtGui4.__ZN8QToolBar9addWidgetEP7QWidget)
 0000:00000000  Imp  __ZN8QVariant7convertENS_4TypeE (QtCore4.__ZN8QVariant7convertENS_4TypeE)
 0000:00000000  Imp  __ZN8QVariant7handlerE (QtCore4.__ZN8QVariant7handlerE)
 0000:00000000  Imp  __ZN8QVariantaSERKS_ (QtCore4.__ZN8QVariantaSERKS_)
 0000:00000000  Imp  __ZN8QVariantC1Ei    (QtCore4.__ZN8QVariantC1Ei)
 0000:00000000  Imp  __ZN8QVariantC1ERK10QByteArray (QtCore4.__ZN8QVariantC1ERK10QByteArray)
 0000:00000000  Imp  __ZN8QVariantC1ERK11QStringList (QtCore4.__ZN8QVariantC1ERK11QStringList)
 0000:00000000  Imp  __ZN8QVariantC1ERK5QRect (QtCore4.__ZN8QVariantC1ERK5QRect)
 0000:00000000  Imp  __ZN8QVariantC1ERK5QSize (QtCore4.__ZN8QVariantC1ERK5QSize)
 0000:00000000  Imp  __ZN8QVariantC1ERK6QPoint (QtCore4.__ZN8QVariantC1ERK6QPoint)
 0000:00000000  Imp  __ZN8QVariantC1ERK7QString (QtCore4.__ZN8QVariantC1ERK7QString)
 0000:00000000  Imp  __ZN8QVariantC1ERKS_ (QtCore4.__ZN8QVariantC1ERKS_)
 0000:00000000  Imp  __ZN8QVariantD1Ev    (QtCore4.__ZN8QVariantD1Ev)
 0000:00000000  Imp  __ZN9QDateTime10fromStringERK7QStringN2Qt10DateFormatE (QtCore4.__ZN9QDateTime10fromStringERK7QStringN2Qt10DateFormatE)
 0000:00000000  Imp  __ZN9QDateTime10fromStringERK7QStringS2_ (QtCore4.__ZN9QDateTime10fromStringERK7QStringS2_)
 0000:00000000  Imp  __ZN9QDateTime11setTimeSpecEN2Qt8TimeSpecE (QtCore4.__ZN9QDateTime11setTimeSpecEN2Qt8TimeSpecE)
 0000:00000000  Imp  __ZN9QDateTime15currentDateTimeEv (QtCore4.__ZN9QDateTime15currentDateTimeEv)
 0000:00000000  Imp  __ZN9QDateTime22currentMSecsSinceEpochEv (QtCore4.__ZN9QDateTime22currentMSecsSinceEpochEv)
 0000:00000000  Imp  __ZN9QDateTimeaSERKS_ (QtCore4.__ZN9QDateTimeaSERKS_)
 0000:00000000  Imp  __ZN9QDateTimeC1ERKS_ (QtCore4.__ZN9QDateTimeC1ERKS_)
 0000:00000000  Imp  __ZN9QDateTimeC1Ev   (QtCore4.__ZN9QDateTimeC1Ev)
 0000:00000000  Imp  __ZN9QDateTimeD1Ev   (QtCore4.__ZN9QDateTimeD1Ev)
 0000:00000000  Imp  __ZN9QHashData11free_helperEPFvPNS_4NodeEE (QtCore4.__ZN9QHashData11free_helperEPFvPNS_4NodeEE)
 0000:00000000  Imp  __ZN9QHashData11shared_nullE (QtCore4.__ZN9QHashData11shared_nullE)
 0000:00000000  Imp  __ZN9QHashData12allocateNodeEi (QtCore4.__ZN9QHashData12allocateNodeEi)
 0000:00000000  Imp  __ZN9QHashData12previousNodeEPNS_4NodeE (QtCore4.__ZN9QHashData12previousNodeEPNS_4NodeE)
 0000:00000000  Imp  __ZN9QHashData14detach_helper2EPFvPNS_4NodeEPvEPFvS1_Eii (QtCore4.__ZN9QHashData14detach_helper2EPFvPNS_4NodeEPvEPFvS1_Eii)
 0000:00000000  Imp  __ZN9QHashData6rehashEi (QtCore4.__ZN9QHashData6rehashEi)
 0000:00000000  Imp  __ZN9QHashData8freeNodeEPv (QtCore4.__ZN9QHashData8freeNodeEPv)
 0000:00000000  Imp  __ZN9QHashData8nextNodeEPNS_4NodeE (QtCore4.__ZN9QHashData8nextNodeEPNS_4NodeE)
 0000:00000000  Imp  __ZN9QIODevice7readAllEv (QtCore4.__ZN9QIODevice7readAllEv)
 0000:00000000  Imp  __ZN9QLineEdit10paintEventEP11QPaintEvent (QtGui4.__ZN9QLineEdit10paintEventEP11QPaintEvent)
 0000:00000000  Imp  __ZN9QLineEdit11changeEventEP6QEvent (QtGui4.__ZN9QLineEdit11changeEventEP6QEvent)
 0000:00000000  Imp  __ZN9QLineEdit11qt_metacallEN11QMetaObject4CallEiPPv (QtGui4.__ZN9QLineEdit11qt_metacallEN11QMetaObject4CallEiPPv)
 0000:00000000  Imp  __ZN9QLineEdit11qt_metacastEPKc (QtGui4.__ZN9QLineEdit11qt_metacastEPKc)
 0000:00000000  Imp  __ZN9QLineEdit12focusInEventEP11QFocusEvent (QtGui4.__ZN9QLineEdit12focusInEventEP11QFocusEvent)
 0000:00000000  Imp  __ZN9QLineEdit13dragMoveEventEP14QDragMoveEvent (QtGui4.__ZN9QLineEdit13dragMoveEventEP14QDragMoveEvent)
 0000:00000000  Imp  __ZN9QLineEdit13focusOutEventEP11QFocusEvent (QtGui4.__ZN9QLineEdit13focusOutEventEP11QFocusEvent)
 0000:00000000  Imp  __ZN9QLineEdit13keyPressEventEP9QKeyEvent (QtGui4.__ZN9QLineEdit13keyPressEventEP9QKeyEvent)
 0000:00000000  Imp  __ZN9QLineEdit14dragEnterEventEP15QDragEnterEvent (QtGui4.__ZN9QLineEdit14dragEnterEventEP15QDragEnterEvent)
 0000:00000000  Imp  __ZN9QLineEdit14dragLeaveEventEP15QDragLeaveEvent (QtGui4.__ZN9QLineEdit14dragLeaveEventEP15QDragLeaveEvent)
 0000:00000000  Imp  __ZN9QLineEdit14mouseMoveEventEP11QMouseEvent (QtGui4.__ZN9QLineEdit14mouseMoveEventEP11QMouseEvent)
 0000:00000000  Imp  __ZN9QLineEdit14setTextMarginsEiiii (QtGui4.__ZN9QLineEdit14setTextMarginsEiiii)
 0000:00000000  Imp  __ZN9QLineEdit15mousePressEventEP11QMouseEvent (QtGui4.__ZN9QLineEdit15mousePressEventEP11QMouseEvent)
 0000:00000000  Imp  __ZN9QLineEdit16contextMenuEventEP17QContextMenuEvent (QtGui4.__ZN9QLineEdit16contextMenuEventEP17QContextMenuEvent)
 0000:00000000  Imp  __ZN9QLineEdit16inputMethodEventEP17QInputMethodEvent (QtGui4.__ZN9QLineEdit16inputMethodEventEP17QInputMethodEvent)
 0000:00000000  Imp  __ZN9QLineEdit16staticMetaObjectE (QtGui4.__ZN9QLineEdit16staticMetaObjectE)
 0000:00000000  Imp  __ZN9QLineEdit17mouseReleaseEventEP11QMouseEvent (QtGui4.__ZN9QLineEdit17mouseReleaseEventEP11QMouseEvent)
 0000:00000000  Imp  __ZN9QLineEdit21mouseDoubleClickEventEP11QMouseEvent (QtGui4.__ZN9QLineEdit21mouseDoubleClickEventEP11QMouseEvent)
 0000:00000000  Imp  __ZN9QLineEdit5clearEv (QtGui4.__ZN9QLineEdit5clearEv)
 0000:00000000  Imp  __ZN9QLineEdit5eventEP6QEvent (QtGui4.__ZN9QLineEdit5eventEP6QEvent)
 0000:00000000  Imp  __ZN9QLineEdit9dropEventEP10QDropEvent (QtGui4.__ZN9QLineEdit9dropEventEP10QDropEvent)
 0000:00000000  Imp  __ZN9QLineEditC2EP7QWidget (QtGui4.__ZN9QLineEditC2EP7QWidget)
 0000:00000000  Imp  __ZN9QLineEditD2Ev   (QtGui4.__ZN9QLineEditD2Ev)
 0000:00000000  Imp  __ZN9QListData11detach_growEPii (QtCore4.__ZN9QListData11detach_growEPii)
 0000:00000000  Imp  __ZN9QListData11shared_nullE (QtCore4.__ZN9QListData11shared_nullE)
 0000:00000000  Imp  __ZN9QListData5eraseEPPv (QtCore4.__ZN9QListData5eraseEPPv)
 0000:00000000  Imp  __ZN9QListData6appendEv (QtCore4.__ZN9QListData6appendEv)
 0000:00000000  Imp  __ZN9QListData6detachEi (QtCore4.__ZN9QListData6detachEi)
 0000:00000000  Imp  __ZN9QListData6removeEi (QtCore4.__ZN9QListData6removeEi)
 0000:00000000  Imp  __ZN9QListData7append2ERKS_ (QtCore4.__ZN9QListData7append2ERKS_)
 0000:00000000  Imp  __ZN9QListData7prependEv (QtCore4.__ZN9QListData7prependEv)
 0000:00000000  Imp  __ZN9QListData7reallocEi (QtCore4.__ZN9QListData7reallocEi)
 0000:00000000  Imp  __ZN9QMetaType12registerTypeEPKcPFvPvEPFS2_PKvE (QtCore4.__ZN9QMetaType12registerTypeEPKcPFvPvEPFS2_PKvE)
 0000:00000000  Imp  __ZN9QMetaType15registerTypedefEPKci (QtCore4.__ZN9QMetaType15registerTypedefEPKci)
 0000:00000000  Imp  __ZN9QMetaType23registerStreamOperatorsEPKcPFvR11QDataStreamPKvEPFvS3_PvE (QtCore4.__ZN9QMetaType23registerStreamOperatorsEPKcPFvR11QDataStreamPKvEPFvS3_PvE)
 0000:00000000  Imp  __ZN9QShortcut10setContextEN2Qt15ShortcutContextE (QtGui4.__ZN9QShortcut10setContextEN2Qt15ShortcutContextE)
 0000:00000000  Imp  __ZN9QShortcut16staticMetaObjectE (QtGui4.__ZN9QShortcut16staticMetaObjectE)
 0000:00000000  Imp  __ZN9QShortcut6setKeyERK12QKeySequence (QtGui4.__ZN9QShortcut6setKeyERK12QKeySequence)
 0000:00000000  Imp  __ZN9QShortcutC1EP7QWidget (QtGui4.__ZN9QShortcutC1EP7QWidget)
 0000:00000000  Imp  __ZN9QTextEdit10timerEventEP11QTimerEvent (QtGui4.__ZN9QTextEdit10timerEventEP11QTimerEvent)
 0000:00000000  Imp  __ZN9QTextEdit10wheelEventEP11QWheelEvent (QtGui4.__ZN9QTextEdit10wheelEventEP11QWheelEvent)
 0000:00000000  Imp  __ZN9QTextEdit11changeEventEP6QEvent (QtGui4.__ZN9QTextEdit11changeEventEP6QEvent)
 0000:00000000  Imp  __ZN9QTextEdit11resizeEventEP12QResizeEvent (QtGui4.__ZN9QTextEdit11resizeEventEP12QResizeEvent)
 0000:00000000  Imp  __ZN9QTextEdit12focusInEventEP11QFocusEvent (QtGui4.__ZN9QTextEdit12focusInEventEP11QFocusEvent)
 0000:00000000  Imp  __ZN9QTextEdit13dragMoveEventEP14QDragMoveEvent (QtGui4.__ZN9QTextEdit13dragMoveEventEP14QDragMoveEvent)
 0000:00000000  Imp  __ZN9QTextEdit14dragEnterEventEP15QDragEnterEvent (QtGui4.__ZN9QTextEdit14dragEnterEventEP15QDragEnterEvent)
 0000:00000000  Imp  __ZN9QTextEdit14dragLeaveEventEP15QDragLeaveEvent (QtGui4.__ZN9QTextEdit14dragLeaveEventEP15QDragLeaveEvent)
 0000:00000000  Imp  __ZN9QTextEdit15keyReleaseEventEP9QKeyEvent (QtGui4.__ZN9QTextEdit15keyReleaseEventEP9QKeyEvent)
 0000:00000000  Imp  __ZN9QTextEdit16contextMenuEventEP17QContextMenuEvent (QtGui4.__ZN9QTextEdit16contextMenuEventEP17QContextMenuEvent)
 0000:00000000  Imp  __ZN9QTextEdit16inputMethodEventEP17QInputMethodEvent (QtGui4.__ZN9QTextEdit16inputMethodEventEP17QInputMethodEvent)
 0000:00000000  Imp  __ZN9QTextEdit16scrollContentsByEii (QtGui4.__ZN9QTextEdit16scrollContentsByEii)
 0000:00000000  Imp  __ZN9QTextEdit18insertFromMimeDataEPK9QMimeData (QtGui4.__ZN9QTextEdit18insertFromMimeDataEPK9QMimeData)
 0000:00000000  Imp  __ZN9QTextEdit21mouseDoubleClickEventEP11QMouseEvent (QtGui4.__ZN9QTextEdit21mouseDoubleClickEventEP11QMouseEvent)
 0000:00000000  Imp  __ZN9QTextEdit24setLineWrapColumnOrWidthEi (QtGui4.__ZN9QTextEdit24setLineWrapColumnOrWidthEi)
 0000:00000000  Imp  __ZN9QTextEdit9dropEventEP10QDropEvent (QtGui4.__ZN9QTextEdit9dropEventEP10QDropEvent)
 0000:00000000  Imp  __ZN9QTextEdit9showEventEP10QShowEvent (QtGui4.__ZN9QTextEdit9showEventEP10QShowEvent)
 0000:00000000  Imp  __ZN9QtPrivate16QStringList_joinEPK11QStringListRK7QString (QtCore4.__ZN9QtPrivate16QStringList_joinEPK11QStringListRK7QString)
 0000:00000000  Imp  __ZN9QtPrivate20QStringList_containsEPK11QStringListRK7QStringN2Qt15CaseSensitivityE (QtCore4.__ZN9QtPrivate20QStringList_containsEPK11QStringListRK7QStringN2Qt15CaseSensitivityE)
 0001:00039060       __ZN9Shortcuts10DescriptorD1Ev$w$vu3Ll5ypfD6l2vO20
 0001:00039780       __ZN9Shortcuts10groupOrderERK7QString
 0001:0004FA90       __ZN9Shortcuts11qt_metacallEN11QMetaObject4CallEiPPv
 0001:0004F810       __ZN9Shortcuts11qt_metacastEPKc
 0001:0003AA10       __ZN9Shortcuts12declareGroupERK7QStringS2_i
 0001:00039ED0       __ZN9Shortcuts12updateGlobalEP17QxtGlobalShortcut
 0001:00039910       __ZN9Shortcuts12updateObjectEP7QObject
 0001:0003A190       __ZN9Shortcuts12updateWidgetEP9QShortcut
 0001:0004F880       __ZN9Shortcuts13groupDeclaredERK7QString
 0001:00039190       __ZN9Shortcuts14convertContextENS_7ContextE
 0001:000390D0       __ZN9Shortcuts14objectShortcutEP7QObject
 0001:0004F940       __ZN9Shortcuts14shortcutBindedERK7QStringP7QObject
 0001:0003CFC0       __ZN9Shortcuts14updateShortcutERK7QStringRK12QKeySequence
 0001:0003AC10       __ZN9Shortcuts15declareShortcutERK7QStringS2_RK12QKeySequenceNS_7ContextE
 0001:0003A970       __ZN9Shortcuts15globalShortcutsEv
 0001:0004FA00       __ZN9Shortcuts15shortcutEnabledERK7QStringb
 0001:0004F9C0       __ZN9Shortcuts15shortcutRemovedERK7QStringP7QWidget
 0001:0004F900       __ZN9Shortcuts15shortcutUpdatedERK7QString
 0001:0003C770       __ZN9Shortcuts15widgetShortcutsEP7QWidget
 0001:00039160       __ZN9Shortcuts16activateShortcutERK7QStringP7QWidget
 0001:000397F0       __ZN9Shortcuts16groupDescriptionERK7QString
 0001:0004F8C0       __ZN9Shortcuts16shortcutDeclaredERK7QString
 0001:0004F980       __ZN9Shortcuts16shortcutInsertedERK7QStringP7QWidget
 0002:00018FD0       __ZN9Shortcuts16staticMetaObjectE
 0001:0003B680       __ZN9Shortcuts17onObjectDestroyedEP7QObject
 0001:0003C520       __ZN9Shortcuts17onWidgetDestroyedEP7QObject
 0001:0003C200       __ZN9Shortcuts17setGlobalShortcutERK7QStringb
 0001:0004FA50       __ZN9Shortcuts17shortcutActivatedERK7QStringP7QWidget
 0001:0003B6E0       __ZN9Shortcuts18bindObjectShortcutERK7QStringP7QObject
 0001:00039E00       __ZN9Shortcuts18shortcutDescriptorERK7QString
 0001:000391B0       __ZN9Shortcuts19onShortcutActivatedEv
 0002:0001B0D0       __ZN9Shortcuts1dE
 0001:0003C970       __ZN9Shortcuts20insertWidgetShortcutERK7QStringP7QWidget
 0001:0003CC20       __ZN9Shortcuts20removeWidgetShortcutERK7QStringP7QWidget
 0001:0003A5C0       __ZN9Shortcuts22isGlobalShortcutActiveERK7QString
 0001:00039300       __ZN9Shortcuts25onGlobalShortcutActivatedEv
 0001:0003A7E0       __ZN9Shortcuts6groupsEv
 0001:00038FE0       __ZN9Shortcuts8instanceEv
 0001:0003A8C0       __ZN9Shortcuts9shortcutsEv
 0001:0004F7E0       __ZN9ShortcutsD0Ev$w$JJnjFqApfD6BT1000
 0001:0004F7C0       __ZN9ShortcutsD1Ev$w$JJnjFqApfD6BT1000
 0001:00018A90       __ZN9UnzipFile19loadZippedFilesInfoEb
 0001:00018E40       __ZN9UnzipFile8openFileERK7QStringb
 0001:00018FC0       __ZN9UnzipFileC1ERK7QStringb
 0001:00018640       __ZN9UnzipFileC1Ev
 0001:00018FC0       __ZN9UnzipFileC2ERK7QStringb
 0001:00018640       __ZN9UnzipFileC2Ev
 0001:00018600       __ZN9UnzipFileD1Ev
 0001:00018600       __ZN9UnzipFileD2Ev
 0001:00012A90       __ZN9XmppError10initializeEv
 0001:00008150       __ZN9XmppError10setErrorNsERK7QString
 0001:00008050       __ZN9XmppError12setConditionERK7QString
 0001:000083A0       __ZN9XmppError12setErrorTextERK7QStringS2_
 0001:000098A0       __ZN9XmppError13registerErrorERK7QStringS2_S2_S2_
 0001:0000E690       __ZN9XmppError14getErrorStringERK7QStringS2_S2_
 0001:0000E660       __ZN9XmppError14registerErrorsEv
 0001:00006910       __ZN9XmppError15getErrorMessageERK7QStringS2_
 0001:00008280       __ZN9XmppError15setAppConditionERK7QStringS2_
 0001:00008010       __ZN9XmppError16setConditionTextERK7QString
 0002:0001B024       __ZN9XmppError4nullE
 0002:0001B010       __ZN9XmppError7FErrorsE
 0001:000089A0       __ZN9XmppErrorC1E11QDomElementRK7QString
 0001:00006EB0       __ZN9XmppErrorC1ERK18QSharedDataPointerI13XmppErrorDataE
 0001:000084C0       __ZN9XmppErrorC1ERK7QStringS2_S2_
 0001:00012AC0       __ZN9XmppErrorC1Ev
 0001:000089A0       __ZN9XmppErrorC2E11QDomElementRK7QString
 0001:00006EB0       __ZN9XmppErrorC2ERK18QSharedDataPointerI13XmppErrorDataE
 0001:000084C0       __ZN9XmppErrorC2ERK7QStringS2_S2_
 0001:00012AC0       __ZN9XmppErrorC2Ev
 0001:00080D30       __Znaj
 0000:00000000  Imp  __ZNK10QByteArray5splitEc (QtCore4.__ZNK10QByteArray5splitEc)
 0000:00000000  Imp  __ZNK10QByteArray5toHexEv (QtCore4.__ZNK10QByteArray5toHexEv)
 0000:00000000  Imp  __ZNK10QByteArray5toIntEPbi (QtCore4.__ZNK10QByteArray5toIntEPbi)
 0000:00000000  Imp  __ZNK10QByteArray8toBase64Ev (QtCore4.__ZNK10QByteArray8toBase64Ev)
 0000:00000000  Imp  __ZNK10QStatusBar14currentMessageEv (QtGui4.__ZNK10QStatusBar14currentMessageEv)
 0000:00000000  Imp  __ZNK10QStringRef8toStringEv (QtCore4.__ZNK10QStringRef8toStringEv)
 0000:00000000  Imp  __ZNK10QTextBlock11blockNumberEv (QtGui4.__ZNK10QTextBlock11blockNumberEv)
 0000:00000000  Imp  __ZNK10QTextBlock4nextEv (QtGui4.__ZNK10QTextBlock4nextEv)
 0000:00000000  Imp  __ZNK10QTextBlock5beginEv (QtGui4.__ZNK10QTextBlock5beginEv)
 0000:00000000  Imp  __ZNK10QTextBlock8iterator8fragmentEv (QtGui4.__ZNK10QTextBlock8iterator8fragmentEv)
 0001:0002FB50       __ZNK10RingBuffer11canReadLineEv
 0001:0002FA80       __ZNK10RingBuffer11maximumSizeEv
 0001:0002FBB0       __ZNK10RingBuffer11readPointerEv
 0001:0002FB80       __ZNK10RingBuffer17nextDataBlockSizeEv
 0001:0002FBD0       __ZNK10RingBuffer4peekEi
 0001:0002FA70       __ZNK10RingBuffer4sizeEv
 0001:0002FA90       __ZNK10RingBuffer7indexOfEc
 0001:0002FA50       __ZNK10RingBuffer7isEmptyEv
 0001:00080FBE       __ZNK10__cxxabiv117__class_type_info10__do_catchEPKSt9type_infoPPvj
 0001:000816A6       __ZNK10__cxxabiv117__class_type_info11__do_upcastEPKS0_PKvRNS0_15__upcast_resultE
 0001:00080FFE       __ZNK10__cxxabiv117__class_type_info11__do_upcastEPKS0_PPv
 0001:00081178       __ZNK10__cxxabiv117__class_type_info12__do_dyncastEiNS0_10__sub_kindEPKS0_PKvS3_S5_RNS0_16__dyncast_resultE
 0001:0008105C       __ZNK10__cxxabiv117__class_type_info20__do_find_public_srcEiPKvPKS0_S2_
 0001:000816E4       __ZNK10__cxxabiv120__si_class_type_info11__do_upcastEPKNS_17__class_type_infoEPKvRNS1_15__upcast_resultE
 0001:000811CE       __ZNK10__cxxabiv120__si_class_type_info12__do_dyncastEiNS_17__class_type_info10__sub_kindEPKS1_PKvS4_S6_RNS1_16__dyncast_resultE
 0001:00081074       __ZNK10__cxxabiv120__si_class_type_info20__do_find_public_srcEiPKvPKNS_17__class_type_infoES2_
 0001:0008172E       __ZNK10__cxxabiv121__vmi_class_type_info11__do_upcastEPKNS_17__class_type_infoEPKvRNS1_15__upcast_resultE
 0001:00081274       __ZNK10__cxxabiv121__vmi_class_type_info12__do_dyncastEiNS_17__class_type_info10__sub_kindEPKS1_PKvS4_S6_RNS1_16__dyncast_resultE
 0001:000810C2       __ZNK10__cxxabiv121__vmi_class_type_info20__do_find_public_srcEiPKvPKNS_17__class_type_infoES2_
 0001:00050EF0       __ZNK11CloseButton10metaObjectEv
 0001:00041EB0       __ZNK11CloseButton8sizeHintEv
 0001:00025820       __ZNK11FileStorage10fileOptionERK7QStringS2_
 0001:00025E20       __ZNK11FileStorage10filesCountERK7QString
 0001:0004E490       __ZNK11FileStorage10metaObjectEv
 0001:000234D0       __ZNK11FileStorage10subStorageEv
 0001:00025B40       __ZNK11FileStorage12fileCacheKeyERK7QStringi
 0001:00025CA0       __ZNK11FileStorage12fileFullNameERK7QStringi
 0001:00024820       __ZNK11FileStorage13fileFirstKeysEv
 0001:00023CD0       __ZNK11FileStorage6optionERK7QString
 0001:000234B0       __ZNK11FileStorage7storageEv
 0001:00024340       __ZNK11FileStorage8fileKeysEv
 0001:00025960       __ZNK11FileStorage8fileMimeERK7QStringi
 0001:00025A50       __ZNK11FileStorage8fileNameERK7QStringi
 0001:0004E6B0       __ZNK11IconStorage10metaObjectEv
 0001:0002AD10       __ZNK11IconStorage7getIconERK7QStringi
 0001:00035480       __ZNK11OptionsNode10childNamesEv
 0001:00032630       __ZNK11OptionsNode11isChildNodeERKS_
 0001:000352C0       __ZNK11OptionsNode12childNSpacesERK7QString
 0001:00035680       __ZNK11OptionsNode13parentNSpacesEv
 0001:000324B0       __ZNK11OptionsNode4nameEv
 0001:00033440       __ZNK11OptionsNode4nodeERK7QStringS2_
 0001:000340B0       __ZNK11OptionsNode4pathEv
 0001:000363A0       __ZNK11OptionsNode5valueERK7QStringS2_
 0001:00032490       __ZNK11OptionsNode6isNullEv
 0001:000324E0       __ZNK11OptionsNode6nspaceEv
 0001:000325A0       __ZNK11OptionsNode6parentEv
 0001:00032E40       __ZNK11OptionsNode7hasNodeERK7QStringS2_
 0001:00033770       __ZNK11OptionsNode8hasValueERK7QStringS2_
 0001:00032710       __ZNK11OptionsNode9childPathERKS_
 0001:00033010       __ZNK11OptionsNodeeqERKS_
 0001:00033040       __ZNK11OptionsNodeneERKS_
 0000:00000000  Imp  __ZNK11QDataStream6statusEv (QtCore4.__ZNK11QDataStream6statusEv)
 0000:00000000  Imp  __ZNK11QDomElement10attributesEv (QtXml4.__ZNK11QDomElement10attributesEv)
 0000:00000000  Imp  __ZNK11QDomElement12hasAttributeERK7QString (QtXml4.__ZNK11QDomElement12hasAttributeERK7QString)
 0000:00000000  Imp  __ZNK11QDomElement4textEv (QtXml4.__ZNK11QDomElement4textEv)
 0000:00000000  Imp  __ZNK11QDomElement7tagNameEv (QtXml4.__ZNK11QDomElement7tagNameEv)
 0000:00000000  Imp  __ZNK11QDomElement9attributeERK7QStringS2_ (QtXml4.__ZNK11QDomElement9attributeERK7QStringS2_)
 0000:00000000  Imp  __ZNK11QLayoutItem14heightForWidthEi (QtGui4.__ZNK11QLayoutItem14heightForWidthEi)
 0000:00000000  Imp  __ZNK11QLayoutItem17hasHeightForWidthEv (QtGui4.__ZNK11QLayoutItem17hasHeightForWidthEv)
 0000:00000000  Imp  __ZNK11QLayoutItem21minimumHeightForWidthEi (QtGui4.__ZNK11QLayoutItem21minimumHeightForWidthEi)
 0000:00000000  Imp  __ZNK11QMetaObject2trEPKcS1_ (QtCore4.__ZNK11QMetaObject2trEPKcS1_)
 0000:00000000  Imp  __ZNK11QMetaObject4castEP7QObject (QtCore4.__ZNK11QMetaObject4castEP7QObject)
 0000:00000000  Imp  __ZNK11QTextCursor10charFormatEv (QtGui4.__ZNK11QTextCursor10charFormatEv)
 0000:00000000  Imp  __ZNK11QTextCursor12atBlockStartEv (QtGui4.__ZNK11QTextCursor12atBlockStartEv)
 0000:00000000  Imp  __ZNK11QTextCursor12selectedTextEv (QtGui4.__ZNK11QTextCursor12selectedTextEv)
 0000:00000000  Imp  __ZNK11QTextCursor9selectionEv (QtGui4.__ZNK11QTextCursor9selectionEv)
 0000:00000000  Imp  __ZNK11QTextFormat11intPropertyEi (QtGui4.__ZNK11QTextFormat11intPropertyEi)
 0000:00000000  Imp  __ZNK11QTextFormat12boolPropertyEi (QtGui4.__ZNK11QTextFormat12boolPropertyEi)
 0000:00000000  Imp  __ZNK11QTextFormat13toImageFormatEv (QtGui4.__ZNK11QTextFormat13toImageFormatEv)
 0000:00000000  Imp  __ZNK11QTextFormat14stringPropertyEi (QtGui4.__ZNK11QTextFormat14stringPropertyEi)
 0000:00000000  Imp  __ZNK11QTextFormat4typeEv (QtGui4.__ZNK11QTextFormat4typeEv)
 0000:00000000  Imp  __ZNK11QToolButton13defaultActionEv (QtGui4.__ZNK11QToolButton13defaultActionEv)
 0000:00000000  Imp  __ZNK11QToolButton15toolButtonStyleEv (QtGui4.__ZNK11QToolButton15toolButtonStyleEv)
 0000:00000000  Imp  __ZNK11QToolButton9arrowTypeEv (QtGui4.__ZNK11QToolButton9arrowTypeEv)
 0000:00000000  Imp  __ZNK11QToolButton9autoRaiseEv (QtGui4.__ZNK11QToolButton9autoRaiseEv)
 0000:00000000  Imp  __ZNK11QToolButton9popupModeEv (QtGui4.__ZNK11QToolButton9popupModeEv)
 0000:00000000  Imp  __ZNK12QDomDocument15documentElementEv (QtXml4.__ZNK12QDomDocument15documentElementEv)
 0000:00000000  Imp  __ZNK12QFontMetrics10elidedTextERK7QStringN2Qt13TextElideModeEii (QtGui4.__ZNK12QFontMetrics10elidedTextERK7QStringN2Qt13TextElideModeEii)
 0000:00000000  Imp  __ZNK12QFontMetrics4sizeEiRK7QStringiPi (QtGui4.__ZNK12QFontMetrics4sizeEiRK7QStringiPi)
 0000:00000000  Imp  __ZNK12QImageReader14nextImageDelayEv (QtGui4.__ZNK12QImageReader14nextImageDelayEv)
 0000:00000000  Imp  __ZNK12QImageReader7canReadEv (QtGui4.__ZNK12QImageReader7canReadEv)
 0000:00000000  Imp  __ZNK12QKeySequence7isEmptyEv (QtGui4.__ZNK12QKeySequence7isEmptyEv)
 0000:00000000  Imp  __ZNK12QKeySequence8toStringENS_14SequenceFormatE (QtGui4.__ZNK12QKeySequence8toStringENS_14SequenceFormatE)
 0000:00000000  Imp  __ZNK12QKeySequencecv8QVariantEv (QtGui4.__ZNK12QKeySequencecv8QVariantEv)
 0000:00000000  Imp  __ZNK12QKeySequenceixEj (QtGui4.__ZNK12QKeySequenceixEj)
 0000:00000000  Imp  __ZNK13QItemDelegate10metaObjectEv (QtGui4.__ZNK13QItemDelegate10metaObjectEv)
 0000:00000000  Imp  __ZNK13QItemDelegate11drawDisplayEP8QPainterRK20QStyleOptionViewItemRK5QRectRK7QString (QtGui4.__ZNK13QItemDelegate11drawDisplayEP8QPainterRK20QStyleOptionViewItemRK5QRectRK7QString)
 0000:00000000  Imp  __ZNK13QItemDelegate11hasClippingEv (QtGui4.__ZNK13QItemDelegate11hasClippingEv)
 0000:00000000  Imp  __ZNK13QItemDelegate12createEditorEP7QWidgetRK20QStyleOptionViewItemRK11QModelIndex (QtGui4.__ZNK13QItemDelegate12createEditorEP7QWidgetRK20QStyleOptionViewItemRK11QModelIndex)
 0000:00000000  Imp  __ZNK13QItemDelegate12setModelDataEP7QWidgetP18QAbstractItemModelRK11QModelIndex (QtGui4.__ZNK13QItemDelegate12setModelDataEP7QWidgetP18QAbstractItemModelRK11QModelIndex)
 0000:00000000  Imp  __ZNK13QItemDelegate13setEditorDataEP7QWidgetRK11QModelIndex (QtGui4.__ZNK13QItemDelegate13setEditorDataEP7QWidgetRK11QModelIndex)
 0000:00000000  Imp  __ZNK13QItemDelegate14drawDecorationEP8QPainterRK20QStyleOptionViewItemRK5QRectRK7QPixmap (QtGui4.__ZNK13QItemDelegate14drawDecorationEP8QPainterRK20QStyleOptionViewItemRK5QRectRK7QPixmap)
 0000:00000000  Imp  __ZNK13QItemDelegate20updateEditorGeometryEP7QWidgetRK20QStyleOptionViewItemRK11QModelIndex (QtGui4.__ZNK13QItemDelegate20updateEditorGeometryEP7QWidgetRK20QStyleOptionViewItemRK11QModelIndex)
 0000:00000000  Imp  __ZNK13QItemDelegate5checkERK20QStyleOptionViewItemRK5QRectRK8QVariant (QtGui4.__ZNK13QItemDelegate5checkERK20QStyleOptionViewItemRK5QRectRK8QVariant)
 0000:00000000  Imp  __ZNK13QItemDelegate5paintEP8QPainterRK20QStyleOptionViewItemRK11QModelIndex (QtGui4.__ZNK13QItemDelegate5paintEP8QPainterRK20QStyleOptionViewItemRK11QModelIndex)
 0000:00000000  Imp  __ZNK13QItemDelegate8sizeHintERK20QStyleOptionViewItemRK11QModelIndex (QtGui4.__ZNK13QItemDelegate8sizeHintERK20QStyleOptionViewItemRK11QModelIndex)
 0000:00000000  Imp  __ZNK13QItemDelegate9drawCheckEP8QPainterRK20QStyleOptionViewItemRK5QRectN2Qt10CheckStateE (QtGui4.__ZNK13QItemDelegate9drawCheckEP8QPainterRK20QStyleOptionViewItemRK5QRectN2Qt10CheckStateE)
 0000:00000000  Imp  __ZNK13QItemDelegate9drawFocusEP8QPainterRK20QStyleOptionViewItemRK5QRect (QtGui4.__ZNK13QItemDelegate9drawFocusEP8QPainterRK20QStyleOptionViewItemRK5QRect)
 0000:00000000  Imp  __ZNK13QNetworkReply3urlEv (QtNet4.__ZNK13QNetworkReply3urlEv)
 0000:00000000  Imp  __ZNK13QNetworkReply5errorEv (QtNet4.__ZNK13QNetworkReply5errorEv)
 0000:00000000  Imp  __ZNK13QTextDocument10firstBlockEv (QtGui4.__ZNK13QTextDocument10firstBlockEv)
 0000:00000000  Imp  __ZNK13QTextDocument14documentLayoutEv (QtGui4.__ZNK13QTextDocument14documentLayoutEv)
 0000:00000000  Imp  __ZNK13QTextDocument6toHtmlERK10QByteArray (QtGui4.__ZNK13QTextDocument6toHtmlERK10QByteArray)
 0000:00000000  Imp  __ZNK13QTextDocument9findBlockEi (QtGui4.__ZNK13QTextDocument9findBlockEi)
 0000:00000000  Imp  __ZNK13QTextFragment10charFormatEv (QtGui4.__ZNK13QTextFragment10charFormatEv)
 0000:00000000  Imp  __ZNK13QTextFragment8positionEv (QtGui4.__ZNK13QTextFragment8positionEv)
 0000:00000000  Imp  __ZNK13QWidgetAction10metaObjectEv (QtGui4.__ZNK13QWidgetAction10metaObjectEv)
 0001:0004FFC0       __ZNK13SystemManager10metaObjectEv
 0001:000051A0       __ZNK13VersionParser11buildNumberEv
 0001:00005170       __ZNK13VersionParser12majorVersionEv
 0001:00005180       __ZNK13VersionParser12minorVersionEv
 0001:00005190       __ZNK13VersionParser13releaseNumberEv
 0001:000051B0       __ZNK13VersionParser13versionNumberEv
 0001:00005230       __ZNK13VersionParser8toStringENS_4PartE
 0001:000057A0       __ZNK13VersionParsereqERKS_
 0001:00005CA0       __ZNK13VersionParsergeERKS_
 0001:00005B80       __ZNK13VersionParsergtERKS_
 0001:00005A60       __ZNK13VersionParserleERKS_
 0001:00005940       __ZNK13VersionParserltERKS_
 0001:00005870       __ZNK13VersionParserneERKS_
 0001:0002E110       __ZNK14MenuBarChanger10groupMenusEi
 0001:0004E960       __ZNK14MenuBarChanger10metaObjectEv
 0001:0002DB80       __ZNK14MenuBarChanger7isEmptyEv
 0001:0002DBA0       __ZNK14MenuBarChanger7menuBarEv
 0001:0002DBB0       __ZNK14MenuBarChanger9menuGroupEP4Menu
 0000:00000000  Imp  __ZNK14QDesktopWidget17availableGeometryEi (QtGui4.__ZNK14QDesktopWidget17availableGeometryEi)
 0000:00000000  Imp  __ZNK14QDesktopWidget17availableGeometryEPK7QWidget (QtGui4.__ZNK14QDesktopWidget17availableGeometryEPK7QWidget)
 0001:000511B0       __ZNK14SearchLineEdit10metaObjectEv
 0001:00042500       __ZNK14SearchLineEdit10searchMenuEv
 0001:00042510       __ZNK14SearchLineEdit11clearButtonEv
 0001:00042520       __ZNK14SearchLineEdit16isStartingSearchEv
 0001:00042560       __ZNK14SearchLineEdit18startSearchTimeoutEv
 0001:00042580       __ZNK14SearchLineEdit19isSearchMenuVisibleEv
 0001:000425A0       __ZNK14SearchLineEdit26isSelectTextOnFocusEnabledEv
 0001:000203E0       __ZNK14ToolBarChanger10groupItemsEi
 0001:0004E020       __ZNK14ToolBarChanger10metaObjectEv
 0001:0001F430       __ZNK14ToolBarChanger12actionHandleEP6Action
 0001:0001F500       __ZNK14ToolBarChanger12handleActionEP7QAction
 0001:0001F3F0       __ZNK14ToolBarChanger12handleWidgetEP7QAction
 0001:0001F380       __ZNK14ToolBarChanger12widgetHandleEP7QWidget
 0001:0001F2E0       __ZNK14ToolBarChanger17separatorsVisibleEv
 0001:0001FC30       __ZNK14ToolBarChanger18findGroupSeparatorEi
 0001:0001F2F0       __ZNK14ToolBarChanger20autoHideEmptyToolbarEv
 0001:0001F2C0       __ZNK14ToolBarChanger7isEmptyEv
 0001:0001F300       __ZNK14ToolBarChanger7toolBarEv
 0001:0001F310       __ZNK14ToolBarChanger9itemGroupEP7QAction
 0001:0001C850       __ZNK15IconsetDelegate14drawBackgroundEP8QPainterRK20QStyleOptionViewItemRK11QModelIndex
 0001:0001D610       __ZNK15IconsetDelegate5paintEP8QPainterRK20QStyleOptionViewItemRK11QModelIndex
 0001:0001E4A0       __ZNK15IconsetDelegate8sizeHintERK20QStyleOptionViewItemRK11QModelIndex
 0000:00000000  Imp  __ZNK15QAbstractButton4iconEv (QtGui4.__ZNK15QAbstractButton4iconEv)
 0000:00000000  Imp  __ZNK15QAbstractButton6isDownEv (QtGui4.__ZNK15QAbstractButton6isDownEv)
 0000:00000000  Imp  __ZNK15QAbstractButton8iconSizeEv (QtGui4.__ZNK15QAbstractButton8iconSizeEv)
 0000:00000000  Imp  __ZNK15QAbstractButton9hitButtonERK6QPoint (QtGui4.__ZNK15QAbstractButton9hitButtonERK6QPoint)
 0000:00000000  Imp  __ZNK15QAbstractButton9isCheckedEv (QtGui4.__ZNK15QAbstractButton9isCheckedEv)
 0000:00000000  Imp  __ZNK15QAbstractSlider5valueEv (QtGui4.__ZNK15QAbstractSlider5valueEv)
 0001:000073A0       __ZNK15XmppStanzaError13conditionCodeEv
 0001:000072B0       __ZNK15XmppStanzaError13errorTypeCodeEv
 0001:00006A50       __ZNK15XmppStanzaError7errorByEv
 0001:00006A70       __ZNK15XmppStanzaError9errorTypeEv
 0001:000071C0       __ZNK15XmppStreamError13conditionCodeEv
 0000:00000000  Imp  __ZNK16QDomNamedNodeMap6lengthEv (QtXml4.__ZNK16QDomNamedNodeMap6lengthEv)
 0001:0004ED60       __ZNK16StatusBarChanger10metaObjectEv
 0001:0002E810       __ZNK16StatusBarChanger11widgetGroupEP7QWidget
 0001:0002F0C0       __ZNK16StatusBarChanger12groupWidgetsEi
 0001:0002E7F0       __ZNK16StatusBarChanger16manageVisibitilyEv
 0001:0002E7D0       __ZNK16StatusBarChanger7isEmptyEv
 0001:0002E800       __ZNK16StatusBarChanger9statusBarEv
 0000:00000000  Imp  __ZNK17QDomCharacterData4dataEv (QtXml4.__ZNK17QDomCharacterData4dataEv)
 0001:0007F1C0       __ZNK17QxtGlobalShortcut10metaObjectEv
 0001:0007E3F0       __ZNK17QxtGlobalShortcut8shortcutEv
 0001:0007E440       __ZNK17QxtGlobalShortcut9isEnabledEv
 0001:0003E6C0       __ZNK19AnimatedTextBrowser10isAnimatedEv
 0001:000502B0       __ZNK19AnimatedTextBrowser10metaObjectEv
 0001:0003ED90       __ZNK19AnimatedTextBrowser16findUrlPositionsERK4QUrl
 0001:0003E7B0       __ZNK19AnimatedTextBrowser20networkAccessManagerEv
 0001:0003E6D0       __ZNK19AnimatedTextBrowser23visiblePositionBoundaryEv
 0000:00000000  Imp  __ZNK19QAbstractScrollArea15minimumSizeHintEv (QtGui4.__ZNK19QAbstractScrollArea15minimumSizeHintEv)
 0000:00000000  Imp  __ZNK19QAbstractScrollArea17verticalScrollBarEv (QtGui4.__ZNK19QAbstractScrollArea17verticalScrollBarEv)
 0000:00000000  Imp  __ZNK19QAbstractScrollArea8sizeHintEv (QtGui4.__ZNK19QAbstractScrollArea8sizeHintEv)
 0000:00000000  Imp  __ZNK19QAbstractScrollArea8viewportEv (QtGui4.__ZNK19QAbstractScrollArea8viewportEv)
 0000:00000000  Imp  __ZNK19QStyledItemDelegate11displayTextERK8QVariantRK7QLocale (QtGui4.__ZNK19QStyledItemDelegate11displayTextERK8QVariantRK7QLocale)
 0000:00000000  Imp  __ZNK19QStyledItemDelegate15initStyleOptionEP20QStyleOptionViewItemRK11QModelIndex (QtGui4.__ZNK19QStyledItemDelegate15initStyleOptionEP20QStyleOptionViewItemRK11QModelIndex)
 0000:00000000  Imp  __ZNK19QStyledItemDelegate17itemEditorFactoryEv (QtGui4.__ZNK19QStyledItemDelegate17itemEditorFactoryEv)
 0001:00044BF0       __ZNK20AdvancedItemDelegate10editItemIdEv
 0001:00051680       __ZNK20AdvancedItemDelegate10metaObjectEv
 0001:00049D80       __ZNK20AdvancedItemDelegate12createEditorEP7QWidgetRK20QStyleOptionViewItemRK11QModelIndex
 0001:00044D70       __ZNK20AdvancedItemDelegate12setModelDataEP7QWidgetP18QAbstractItemModelRK11QModelIndex
 0001:000472D0       __ZNK20AdvancedItemDelegate13drawFocusRectEP8QPainterRK22QStyleOptionViewItemV4RK5QRect
 0001:00044C30       __ZNK20AdvancedItemDelegate13editorFactoryEv
 0001:00048F20       __ZNK20AdvancedItemDelegate13getIndexItemsERK11QModelIndexRK22QStyleOptionViewItemV4
 0001:00044C80       __ZNK20AdvancedItemDelegate13setEditorDataEP7QWidgetRK11QModelIndex
 0001:00047270       __ZNK20AdvancedItemDelegate14drawBackgroundEP8QPainterRK22QStyleOptionViewItemV4
 0001:00044B50       __ZNK20AdvancedItemDelegate15contentsMarginsEv
 0001:00045760       __ZNK20AdvancedItemDelegate15itemStyleOptionERK20AdvancedDelegateItemRK22QStyleOptionViewItemV4
 0001:00044AD0       __ZNK20AdvancedItemDelegate15verticalSpacingEv
 0001:00044B10       __ZNK20AdvancedItemDelegate16focusRectVisibleEv
 0001:00044EC0       __ZNK20AdvancedItemDelegate16indexStyleOptionERK20QStyleOptionViewItemRK11QModelIndexb
 0001:0004A680       __ZNK20AdvancedItemDelegate17createItemsLayoutERK4QMapIj20AdvancedDelegateItemERK22QStyleOptionViewItemV4
 0001:00044AF0       __ZNK20AdvancedItemDelegate17horizontalSpacingEv
 0001:00047EB0       __ZNK20AdvancedItemDelegate18destroyItemsLayoutEPNS_11ItemsLayoutE
 0001:0004C2A0       __ZNK20AdvancedItemDelegate20updateEditorGeometryEP7QWidgetRK20QStyleOptionViewItemRK11QModelIndex
 0001:00044B30       __ZNK20AdvancedItemDelegate24defaultBranchItemEnabledEv
 0001:0004C6F0       __ZNK20AdvancedItemDelegate5paintEP8QPainterRK20QStyleOptionViewItemRK11QModelIndex
 0001:00046A20       __ZNK20AdvancedItemDelegate6itemAtERK6QPointPKNS_11ItemsLayoutERK5QRect
 0001:0004BC10       __ZNK20AdvancedItemDelegate6itemAtERK6QPointRK20QStyleOptionViewItemRK11QModelIndex
 0001:00044BD0       __ZNK20AdvancedItemDelegate8editRoleEv
 0001:00046850       __ZNK20AdvancedItemDelegate8itemRectEjPKNS_11ItemsLayoutERK5QRect
 0001:0004BE10       __ZNK20AdvancedItemDelegate8itemRectEjRK20QStyleOptionViewItemRK11QModelIndex
 0001:0004C430       __ZNK20AdvancedItemDelegate8sizeHintERK20QStyleOptionViewItemRK11QModelIndex
 0001:00044BB0       __ZNK20AdvancedItemDelegate9blinkModeEv
 0001:00044C10       __ZNK20AdvancedItemDelegate9editProxyEv
 0001:00044AB0       __ZNK20AdvancedItemDelegate9itemsRoleEv
 0000:00000000  Imp  __ZNK21QTextDocumentFragment11toPlainTextEv (QtGui4.__ZNK21QTextDocumentFragment11toPlainTextEv)
 0000:00000000  Imp  __ZNK21QTextDocumentFragment6toHtmlEv (QtGui4.__ZNK21QTextDocumentFragment6toHtmlEv)
 0000:00000000  Imp  __ZNK21QTextDocumentFragment7isEmptyEv (QtGui4.__ZNK21QTextDocumentFragment7isEmptyEv)
 0001:00044270       __ZNK25AdvancedDelegateEditProxy20updateEditorGeometryEPK20AdvancedItemDelegateP7QWidgetRK20QStyleOptionViewItemRK11QModelIndex
 0001:000441D0       __ZNK26AdvancedDelegateLayoutItem11maximumSizeEv$w$d32ndWypfD6CcIGO3
 0001:00044190       __ZNK26AdvancedDelegateLayoutItem11minimumSizeEv$w$d32ndWypfD6CcIGO3
 0001:00044160       __ZNK26AdvancedDelegateLayoutItem19expandingDirectionsEv$w$d32ndWypfD6CcIGO3
 0001:00044130       __ZNK26AdvancedDelegateLayoutItem7isEmptyEv$w$d32ndWypfD6CcIGO3
 0001:00044210       __ZNK26AdvancedDelegateLayoutItem8geometryEv$w$d32ndWypfD6CcIGO3
 0001:00047170       __ZNK26AdvancedDelegateLayoutItem8sizeHintEv$w$d32ndWypfD6CcIGO3
 0001:00000910       __ZNK3Jid4bareEv
 0001:00000970       __ZNK3Jid4fullEv
 0001:000007F0       __ZNK3Jid4nodeEv
 0001:00000940       __ZNK3Jid5pBareEv
 0001:00000990       __ZNK3Jid5pFullEv
 0001:00000820       __ZNK3Jid5pNodeEv
 0001:00001620       __ZNK3Jid5uBareEv
 0001:000017D0       __ZNK3Jid5uFullEv
 0001:000018C0       __ZNK3Jid5uNodeEv
 0001:00000850       __ZNK3Jid6domainEv
 0001:000007C0       __ZNK3Jid7isEmptyEv
 0001:00000780       __ZNK3Jid7isValidEv
 0001:00000880       __ZNK3Jid7pDomainEv
 0001:000008B0       __ZNK3Jid8resourceEv
 0001:000008E0       __ZNK3Jid9pResourceEv
 0001:000045D0       __ZNK3JidaaERK7QString
 0001:00000A00       __ZNK3JidaaERKS_
 0001:000046B0       __ZNK3JideqERK7QString
 0001:000009B0       __ZNK3JideqERKS_
 0001:00000A60       __ZNK3JidgtERKS_
 0001:00000A30       __ZNK3JidltERKS_
 0001:00004790       __ZNK3JidneERK7QString
 0001:000009E0       __ZNK3JidneERKS_
 0001:0007FF00       __ZNK4Idle10metaObjectEv
 0001:0007FC40       __ZNK4Idle13usingPlatformEv
 0001:0007FC30       __ZNK4Idle8isActiveEv
 0001:00015960       __ZNK4Menu10menuActionEv
 0001:0004D9B0       __ZNK4Menu10metaObjectEv
 0001:00015970       __ZNK4Menu11actionGroupEPK6Action
 0001:00016D30       __ZNK4Menu11findActionsERK10QMultiHashIi8QVariantEb
 0001:00016420       __ZNK4Menu12groupActionsEi
 0001:00015FA0       __ZNK4Menu18nextGroupSeparatorEi
 0001:00015940       __ZNK4Menu7isEmptyEv
 0000:00000000  Imp  __ZNK4QDir16absoluteFilePathERK7QString (QtCore4.__ZNK4QDir16absoluteFilePathERK7QString)
 0000:00000000  Imp  __ZNK4QDir6existsEv  (QtCore4.__ZNK4QDir6existsEv)
 0000:00000000  Imp  __ZNK4QDir9entryListE6QFlagsINS_6FilterEES0_INS_8SortFlagEE (QtCore4.__ZNK4QDir9entryListE6QFlagsINS_6FilterEES0_INS_8SortFlagEE)
 0000:00000000  Imp  __ZNK4QDir9entryListERK11QStringList6QFlagsINS_6FilterEES3_INS_8SortFlagEE (QtCore4.__ZNK4QDir9entryListERK11QStringList6QFlagsINS_6FilterEES3_INS_8SortFlagEE)
 0001:00007400       __ZNK4QMapI7QStringS0_E15mutableFindNodeEPPN8QMapData4NodeERKS0_$w$f88ZN9wpfD61qkSl0
 0001:000079E0       __ZNK4QMapI7QStringS0_E4keysEv$w$f88ZN9wpfD61qkSl0
 0001:00007520       __ZNK4QMapI7QStringS_IS0_S0_EE15mutableFindNodeEPPN8QMapData4NodeERKS0_$w$f88ZN9wpfD61qkSl0
 0001:00007490       __ZNK4QMapI7QStringS_IS0_S_IS0_S0_EEE15mutableFindNodeEPPN8QMapData4NodeERKS0_$w$f88ZN9wpfD61qkSl0
 0001:00048620       __ZNK4QMapIi8QVariantE15mutableFindNodeEPPN8QMapData4NodeERKi$w$d32ndWypfD6CcIGO3
 0001:00048540       __ZNK4QMapIi9QMultiMapIiP26AdvancedDelegateLayoutItemEE15mutableFindNodeEPPN8QMapData4NodeERKi$w$d32ndWypfD6CcIGO3
 0001:00048350       __ZNK4QMapIiP10QBoxLayoutE15mutableFindNodeEPPN8QMapData4NodeERKi$w$d32ndWypfD6CcIGO3
 0001:00048430       __ZNK4QMapIiP26AdvancedDelegateLayoutItemE15mutableFindNodeEPPN8QMapData4NodeERKi$w$d32ndWypfD6CcIGO3
 0001:0002DD20       __ZNK4QMapIiP4MenuE15mutableFindNodeEPPN8QMapData4NodeERKi$w$NJUslsxpfD6s41Bc4
 0001:0002E060       __ZNK4QMapIiP4MenuE6valuesERKi$w$NJUslsxpfD6s41Bc4
 0001:0002DFE0       __ZNK4QMapIiP4MenuE6valuesEv$w$NJUslsxpfD6s41Bc4
 0001:00015F30       __ZNK4QMapIiP6ActionE15mutableFindNodeEPPN8QMapData4NodeERKi$w$xxeCqtwpfD6zMw8g2
 0001:000161B0       __ZNK4QMapIiP6ActionE6valuesERKi$w$xxeCqtwpfD6zMw8g2
 0001:000163A0       __ZNK4QMapIiP6ActionE6valuesEv$w$xxeCqtwpfD6zMw8g2
 0001:0001FBC0       __ZNK4QMapIiP7QActionE15mutableFindNodeEPPN8QMapData4NodeERKi$w$1bvUwWwpfD6jhKW62
 0001:00016260       __ZNK4QMapIiP7QActionE15mutableFindNodeEPPN8QMapData4NodeERKi$w$xxeCqtwpfD6zMw8g2
 0001:0001FD60       __ZNK4QMapIiP7QActionE6valuesEv$w$1bvUwWwpfD6jhKW62
 0001:0001FA70       __ZNK4QMapIiP7QWidgetE15mutableFindNodeEPPN8QMapData4NodeERKi$w$1bvUwWwpfD6jhKW62
 0001:0002ECD0       __ZNK4QMapIiP7QWidgetE15mutableFindNodeEPPN8QMapData4NodeERKi$w$xHJjEyxpfD6DCJYr2
 0001:00021630       __ZNK4QMapIiP7QWidgetE4keysEv$w$1bvUwWwpfD6jhKW62
 0001:000201C0       __ZNK4QMapIiP7QWidgetE6valuesERKi$w$1bvUwWwpfD6jhKW62
 0001:0002F010       __ZNK4QMapIiP7QWidgetE6valuesERKi$w$xHJjEyxpfD6DCJYr2
 0001:00020340       __ZNK4QMapIiP7QWidgetE6valuesEv$w$1bvUwWwpfD6jhKW62
 0001:0002EF90       __ZNK4QMapIiP7QWidgetE6valuesEv$w$xHJjEyxpfD6DCJYr2
 0001:000484A0       __ZNK4QMapIiS_Ii9QMultiMapIiP26AdvancedDelegateLayoutItemEEE15mutableFindNodeEPPN8QMapData4NodeERKi$w$d32ndWypfD6CcIGO3
 0001:000483C0       __ZNK4QMapIiS_IiP10QBoxLayoutEE15mutableFindNodeEPPN8QMapData4NodeERKi$w$d32ndWypfD6CcIGO3
 0001:000482E0       __ZNK4QMapIj20AdvancedDelegateItemE15mutableFindNodeEPPN8QMapData4NodeERKj$w$d32ndWypfD6CcIGO3
 0001:00007700       __ZNK4QMapIN15XmppStanzaError14ErrorConditionE7QStringE15mutableFindNodeEPPN8QMapData4NodeERKS1_$w$f88ZN9wpfD61qkSl0
 0001:00007310       __ZNK4QMapIN15XmppStanzaError14ErrorConditionE7QStringE3keyERKS2_RKS1_$w$f88ZN9wpfD61qkSl0
 0001:00007690       __ZNK4QMapIN15XmppStanzaError14ErrorConditionENS0_9ErrorTypeEE15mutableFindNodeEPPN8QMapData4NodeERKS1_$w$f88ZN9wpfD61qkSl0
 0001:00007620       __ZNK4QMapIN15XmppStanzaError9ErrorTypeE7QStringE15mutableFindNodeEPPN8QMapData4NodeERKS1_$w$f88ZN9wpfD61qkSl0
 0001:00007220       __ZNK4QMapIN15XmppStanzaError9ErrorTypeE7QStringE3keyERKS2_RKS1_$w$f88ZN9wpfD61qkSl0
 0001:000075B0       __ZNK4QMapIN15XmppStreamError14ErrorConditionE7QStringE15mutableFindNodeEPPN8QMapData4NodeERKS1_$w$f88ZN9wpfD61qkSl0
 0001:00007130       __ZNK4QMapIN15XmppStreamError14ErrorConditionE7QStringE3keyERKS2_RKS1_$w$f88ZN9wpfD61qkSl0
 0001:0003A600       __ZNK4QMapIP17QxtGlobalShortcut7QStringE15mutableFindNodeEPPN8QMapData4NodeERKS1_$w$vu3Ll5ypfD6l2vO20
 0001:0003A590       __ZNK4QMapIP17QxtGlobalShortcut7QStringE3keyERKS2_$w$vu3Ll5ypfD6l2vO20
 0001:0003A530       __ZNK4QMapIP17QxtGlobalShortcut7QStringE3keyERKS2_RKS1_$w$vu3Ll5ypfD6l2vO20
 0001:0003B410       __ZNK4QMapIP17QxtGlobalShortcut7QStringE4keysERKS2_$w$vu3Ll5ypfD6l2vO20
 0001:0003A8F0       __ZNK4QMapIP17QxtGlobalShortcut7QStringE6valuesEv$w$vu3Ll5ypfD6l2vO20
 0001:0001FB50       __ZNK4QMapIP6ActionP11QToolButtonE15mutableFindNodeEPPN8QMapData4NodeERKS1_$w$1bvUwWwpfD6jhKW62
 0001:0003A3E0       __ZNK4QMapIP7QObject7QStringE15mutableFindNodeEPPN8QMapData4NodeERKS1_$w$vu3Ll5ypfD6l2vO20
 0001:0003AFB0       __ZNK4QMapIP7QObject7QStringE4keysERKS2_$w$vu3Ll5ypfD6l2vO20
 0001:0001FAE0       __ZNK4QMapIP7QWidgetP7QActionE15mutableFindNodeEPPN8QMapData4NodeERKS1_$w$1bvUwWwpfD6jhKW62
 0001:0001FEC0       __ZNK4QMapIP7QWidgetP7QActionE6valuesEv$w$1bvUwWwpfD6jhKW62
 0001:0003A450       __ZNK4QMapIP9QShortcut7QStringE15mutableFindNodeEPPN8QMapData4NodeERKS1_$w$vu3Ll5ypfD6l2vO20
 0001:0003B220       __ZNK4QMapIP9QShortcut7QStringE4keysERKS2_$w$vu3Ll5ypfD6l2vO20
 0001:0003A4C0       __ZNK4QMapIP9QShortcutP7QWidgetE15mutableFindNodeEPPN8QMapData4NodeERKS1_$w$vu3Ll5ypfD6l2vO20
 0001:0003B1A0       __ZNK4QMapIP9QShortcutP7QWidgetE4keysERKS3_$w$vu3Ll5ypfD6l2vO20
 0001:0003BA70       __ZNK4QMapIP9QShortcutP7QWidgetE6valuesEv$w$vu3Ll5ypfD6l2vO20
 0000:00000000  Imp  __ZNK4QUrl8toStringE6QFlagsINS_16FormattingOptionEE (QtCore4.__ZNK4QUrl8toStringE6QFlagsINS_16FormattingOptionEE)
 0000:00000000  Imp  __ZNK4QUrl9toEncodedE6QFlagsINS_16FormattingOptionEE (QtCore4.__ZNK4QUrl9toEncodedE6QFlagsINS_16FormattingOptionEE)
 0000:00000000  Imp  __ZNK4QUrleqERKS_    (QtCore4.__ZNK4QUrleqERKS_)
 0000:00000000  Imp  __ZNK5QChar16isLetterOrNumberEv (QtCore4.__ZNK5QChar16isLetterOrNumberEv)
 0000:00000000  Imp  __ZNK5QDate8toStringEN2Qt10DateFormatE (QtCore4.__ZNK5QDate8toStringEN2Qt10DateFormatE)
 0000:00000000  Imp  __ZNK5QFont7resolveERKS_ (QtGui4.__ZNK5QFont7resolveERKS_)
 0000:00000000  Imp  __ZNK5QFont9pointSizeEv (QtGui4.__ZNK5QFont9pointSizeEv)
 0001:0003EFE0       __ZNK5QHashI4QUrlP6QMovieE8findNodeERKS0_Pj$w$LuTRgoypfD6srdWB2
 0001:0007E490       __ZNK5QHashI5QPairIjjEP17QxtGlobalShortcutE8findNodeERKS1_Pj$w$xvL7aFupfD6iFA5P0
 0001:00035920       __ZNK5QHashI7QString10OptionItemE8findNodeERKS0_Pj$w$ZjIoOUxpfD62Qc4R2
 0001:00027770       __ZNK5QHashI7QString15QHashDummyValueE8findNodeERKS0_Pj$w$9jvlvcxpfD6zc01C1
 0001:00001B20       __ZNK5QHashI7QString3JidE8findNodeERKS0_Pj$w$RbmQ7RvpfD690XI54
 0001:0002A230       __ZNK5QHashI7QString5QIconE8findNodeERKS0_Pj$w$Pegk7mxpfD6IeT6r2
 0001:0002A440       __ZNK5QHashI7QString5QListIN11IconStorage16IconAnimateFrameEEE8findNodeERKS0_Pj$w$Pegk7mxpfD6IeT6r2
 0001:0003A730       __ZNK5QHashI7QString5QPairIS0_iEE4keysEv$w$vu3Ll5ypfD6l2vO20
 0001:00039700       __ZNK5QHashI7QString5QPairIS0_iEE8findNodeERKS0_Pj$w$vu3Ll5ypfD6l2vO20
 0001:0003F0B0       __ZNK5QHashI7QString8QVariantE8findNodeERKS0_Pj$w$LuTRgoypfD6srdWB2
 0001:00023D50       __ZNK5QHashI7QStringjE8findNodeERKS0_Pj$w$9jvlvcxpfD6zc01C1
 0001:0003A810       __ZNK5QHashI7QStringN9Shortcuts10DescriptorEE4keysEv$w$vu3Ll5ypfD6l2vO20
 0001:00039870       __ZNK5QHashI7QStringN9Shortcuts10DescriptorEE8findNodeERKS0_Pj$w$vu3Ll5ypfD6l2vO20
 0001:00023E70       __ZNK5QHashI7QStringP11FileStorageE8findNodeERKS0_Pj$w$9jvlvcxpfD6zc01C1
 0001:0002A310       __ZNK5QHashI7QStringP11IconStorageE8findNodeERKS0_Pj$w$Pegk7mxpfD6IeT6r2
 0001:0001CF60       __ZNK5QHashI7QStringP11IconStorageE8findNodeERKS0_Pj$w$TsYjLNwpfD6WUzhB0
 0001:000192D0       __ZNK5QHashI7QStringPN13UnzipFileData10ZippedFileEE4keysEv$w$rYz77ywpfD6ajwMW2
 0001:000186E0       __ZNK5QHashI7QStringPN13UnzipFileData10ZippedFileEE8findNodeERKS0_Pj$w$rYz77ywpfD6ajwMW2
 0001:00023C50       __ZNK5QHashI7QStringS0_E8findNodeERKS0_Pj$w$9jvlvcxpfD6zc01C1
 0001:0002A180       __ZNK5QHashI7QStringS_IS0_5QIconEE8findNodeERKS0_Pj$w$Pegk7mxpfD6IeT6r2
 0001:0002A390       __ZNK5QHashI7QStringS_IS0_5QListIN11IconStorage16IconAnimateFrameEEEE8findNodeERKS0_Pj$w$Pegk7mxpfD6IeT6r2
 0001:0001D0A0       __ZNK5QHashI7QStringS_IS0_P11IconStorageEE4keysEv$w$TsYjLNwpfD6WUzhB0
 0001:0001CEA0       __ZNK5QHashI7QStringS_IS0_P11IconStorageEE8findNodeERKS0_Pj$w$TsYjLNwpfD6WUzhB0
 0001:000167D0       __ZNK5QHashIi8QVariantE4keysEv$w$xxeCqtwpfD6zMw8g2
 0001:00016BB0       __ZNK5QHashIi8QVariantE6valuesERKi$w$xxeCqtwpfD6zMw8g2
 0001:0003F360       __ZNK5QHashIP6QMovie4QUrlE4keysEv$w$LuTRgoypfD6srdWB2
 0001:0002AB00       __ZNK5QHashIP7QObjectPN11IconStorage16IconUpdateParamsEE4keysEv$w$Pegk7mxpfD6IeT6r2
 0000:00000000  Imp  __ZNK5QIcon10actualSizeERK5QSizeNS_4ModeENS_5StateE (QtGui4.__ZNK5QIcon10actualSizeERK5QSizeNS_4ModeENS_5StateE)
 0000:00000000  Imp  __ZNK5QIcon14availableSizesENS_4ModeENS_5StateE (QtGui4.__ZNK5QIcon14availableSizesENS_4ModeENS_5StateE)
 0000:00000000  Imp  __ZNK5QIcon6isNullEv (QtGui4.__ZNK5QIcon6isNullEv)
 0000:00000000  Imp  __ZNK5QIcon6pixmapERK5QSizeNS_4ModeENS_5StateE (QtGui4.__ZNK5QIcon6pixmapERK5QSizeNS_4ModeENS_5StateE)
 0000:00000000  Imp  __ZNK5QIconcv8QVariantEv (QtGui4.__ZNK5QIconcv8QVariantEv)
 0001:000350C0       __ZNK5QListI10QByteArrayE5valueEi$w$ZjIoOUxpfD62Qc4R2
 0001:00001320       __ZNK5QListI5QCharE7indexOfERKS0_i$w$RbmQ7RvpfD690XI54
 0001:00029FB0       __ZNK5QListI5QSizeE5valueEi$w$Pegk7mxpfD6IeT6r2
 0001:00027860       __ZNK5QListI7QStringE5toSetEv$w$9jvlvcxpfD6zc01C1
 0001:00023740       __ZNK5QListI7QStringE5valueEi$w$9jvlvcxpfD6zc01C1
 0001:000238B0       __ZNK5QListI7QStringE7indexOfERKS0_i$w$9jvlvcxpfD6zc01C1
 0001:000013C0       __ZNK5QListI7QStringE7indexOfERKS0_i$w$RbmQ7RvpfD690XI54
 0001:00023800       __ZNK5QListI7QStringE8containsERKS0_$w$9jvlvcxpfD6zc01C1
 0001:00029F00       __ZNK5QListI7QStringE8containsERKS0_$w$Pegk7mxpfD6IeT6r2
 0001:000394C0       __ZNK5QListI7QStringE8containsERKS0_$w$vu3Ll5ypfD6l2vO20
 0001:00035000       __ZNK5QListI7QStringE8containsERKS0_$w$ZjIoOUxpfD62Qc4R2
 0001:00023DD0       __ZNK5QListI7QStringEeqERKS1_$w$9jvlvcxpfD6zc01C1
 0001:00015EB0       __ZNK5QListI8QVariantE8containsERKS0_$w$xxeCqtwpfD6zMw8g2
 0001:000237B0       __ZNK5QListIiE5valueEi$w$9jvlvcxpfD6zc01C1
 0001:000256E0       __ZNK5QListIN11FileStorage13StorageObjectEE5valueEi$w$9jvlvcxpfD6zc01C1
 0001:0002EC40       __ZNK5QListIP7QWidgetE7indexOfERKS1_i$w$xHJjEyxpfD6DCJYr2
 0000:00000000  Imp  __ZNK5QMenu16isTearOffEnabledEv (QtGui4.__ZNK5QMenu16isTearOffEnabledEv)
 0000:00000000  Imp  __ZNK5QMenu21separatorsCollapsibleEv (QtGui4.__ZNK5QMenu21separatorsCollapsibleEv)
 0000:00000000  Imp  __ZNK5QMenu4iconEv   (QtGui4.__ZNK5QMenu4iconEv)
 0000:00000000  Imp  __ZNK5QMenu5titleEv  (QtGui4.__ZNK5QMenu5titleEv)
 0000:00000000  Imp  __ZNK5QMenu8sizeHintEv (QtGui4.__ZNK5QMenu8sizeHintEv)
 0000:00000000  Imp  __ZNK5QRect8containsERK6QPointb (QtCore4.__ZNK5QRect8containsERK6QPointb)
 0000:00000000  Imp  __ZNK5QRect8containsERKS_b (QtCore4.__ZNK5QRect8containsERKS_b)
 0000:00000000  Imp  __ZNK5QTime4msecEv   (QtCore4.__ZNK5QTime4msecEv)
 0000:00000000  Imp  __ZNK5QTime6secsToERKS_ (QtCore4.__ZNK5QTime6secsToERKS_)
 0000:00000000  Imp  __ZNK5QTime7addSecsEi (QtCore4.__ZNK5QTime7addSecsEi)
 0000:00000000  Imp  __ZNK5QTime8toStringEN2Qt10DateFormatE (QtCore4.__ZNK5QTime8toStringEN2Qt10DateFormatE)
 0000:00000000  Imp  __ZNK5QTime8toStringERK7QString (QtCore4.__ZNK5QTime8toStringERK7QString)
 0001:0004D710       __ZNK6Action10metaObjectEv
 0001:00014F10       __ZNK6Action10shortcutIdEv
 0001:00014E90       __ZNK6Action4dataEi
 0001:00014C20       __ZNK6Action4menuEv
 0000:00000000  Imp  __ZNK6QColor4rgbaEv  (QtGui4.__ZNK6QColor4rgbaEv)
 0000:00000000  Imp  __ZNK6QImage12alphaChannelEv (QtGui4.__ZNK6QImage12alphaChannelEv)
 0000:00000000  Imp  __ZNK6QImage13scaledToWidthEiN2Qt18TransformationModeE (QtGui4.__ZNK6QImage13scaledToWidthEiN2Qt18TransformationModeE)
 0000:00000000  Imp  __ZNK6QImage14scaledToHeightEiN2Qt18TransformationModeE (QtGui4.__ZNK6QImage14scaledToHeightEiN2Qt18TransformationModeE)
 0000:00000000  Imp  __ZNK6QImage4rectEv  (QtGui4.__ZNK6QImage4rectEv)
 0000:00000000  Imp  __ZNK6QImage4sizeEv  (QtGui4.__ZNK6QImage4sizeEv)
 0000:00000000  Imp  __ZNK6QImage5widthEv (QtGui4.__ZNK6QImage5widthEv)
 0000:00000000  Imp  __ZNK6QImage6formatEv (QtGui4.__ZNK6QImage6formatEv)
 0000:00000000  Imp  __ZNK6QImage6heightEv (QtGui4.__ZNK6QImage6heightEv)
 0000:00000000  Imp  __ZNK6QImage6isNullEv (QtGui4.__ZNK6QImage6isNullEv)
 0000:00000000  Imp  __ZNK6QImage9byteCountEv (QtGui4.__ZNK6QImage9byteCountEv)
 0000:00000000  Imp  __ZNK6QMovie13currentPixmapEv (QtGui4.__ZNK6QMovie13currentPixmapEv)
 0000:00000000  Imp  __ZNK6QStyle5proxyEv (QtGui4.__ZNK6QStyle5proxyEv)
 0001:00013E90       __ZNK6Stanza11toByteArrayEv
 0001:00014000       __ZNK6Stanza12firstElementERK7QStringS2_
 0001:00013B10       __ZNK6Stanza12isFromServerEv
 0001:000139A0       __ZNK6Stanza2idEv
 0001:00013A20       __ZNK6Stanza2toEv
 0001:00013AA0       __ZNK6Stanza4fromEv
 0001:00013D40       __ZNK6Stanza4langEv
 0001:00013920       __ZNK6Stanza4typeEv
 0001:000137D0       __ZNK6Stanza7elementEv
 0001:00014070       __ZNK6Stanza7isValidEv
 0001:000138B0       __ZNK6Stanza7tagNameEv
 0001:000137A0       __ZNK6Stanza8documentEv
 0001:00013DC0       __ZNK6Stanza8toStringEi
 0001:00013800       __ZNK6Stanza9attributeERK7QString
 0001:0001B180       __ZNK7Message12subjectLangsEv
 0001:0001A670       __ZNK7Message13setTextToElemER11QDomElementRK7QString
 0001:0001AE70       __ZNK7Message14availableLangsERK11QDomElementRK7QString
 0001:0001A220       __ZNK7Message14findChidByLangERK11QDomElementRK7QStringS5_
 0001:000199D0       __ZNK7Message2idEv
 0001:00019A30       __ZNK7Message2toEv
 0001:0001A420       __ZNK7Message4bodyERK7QString
 0001:00019950       __ZNK7Message4dataEi
 0001:00019A00       __ZNK7Message4fromEv
 0001:00019AB0       __ZNK7Message4typeEv
 0001:00019940       __ZNK7Message6stanzaEv
 0001:00019A60       __ZNK7Message7defLangEv
 0001:0001A500       __ZNK7Message7subjectERK7QString
 0001:0001A100       __ZNK7Message8dateTimeEv
 0001:0001A130       __ZNK7Message8threadIdEv
 0001:0001B0D0       __ZNK7Message9bodyLangsEv
 0001:00019E00       __ZNK7Message9isDelayedEv
 0001:0001A5E0       __ZNK7MessageltERKS_
 0001:0004F270       __ZNK7Options10metaObjectEv
 0000:00000000  Imp  __ZNK7QAction10autoRepeatEv (QtGui4.__ZNK7QAction10autoRepeatEv)
 0000:00000000  Imp  __ZNK7QAction11actionGroupEv (QtGui4.__ZNK7QAction11actionGroupEv)
 0000:00000000  Imp  __ZNK7QAction11isCheckableEv (QtGui4.__ZNK7QAction11isCheckableEv)
 0000:00000000  Imp  __ZNK7QAction11isSeparatorEv (QtGui4.__ZNK7QAction11isSeparatorEv)
 0000:00000000  Imp  __ZNK7QAction15shortcutContextEv (QtGui4.__ZNK7QAction15shortcutContextEv)
 0000:00000000  Imp  __ZNK7QAction19isIconVisibleInMenuEv (QtGui4.__ZNK7QAction19isIconVisibleInMenuEv)
 0000:00000000  Imp  __ZNK7QAction4fontEv (QtGui4.__ZNK7QAction4fontEv)
 0000:00000000  Imp  __ZNK7QAction4iconEv (QtGui4.__ZNK7QAction4iconEv)
 0000:00000000  Imp  __ZNK7QAction4textEv (QtGui4.__ZNK7QAction4textEv)
 0000:00000000  Imp  __ZNK7QAction7toolTipEv (QtGui4.__ZNK7QAction7toolTipEv)
 0000:00000000  Imp  __ZNK7QAction8iconTextEv (QtGui4.__ZNK7QAction8iconTextEv)
 0000:00000000  Imp  __ZNK7QAction8menuRoleEv (QtGui4.__ZNK7QAction8menuRoleEv)
 0000:00000000  Imp  __ZNK7QAction8priorityEv (QtGui4.__ZNK7QAction8priorityEv)
 0000:00000000  Imp  __ZNK7QAction8shortcutEv (QtGui4.__ZNK7QAction8shortcutEv)
 0000:00000000  Imp  __ZNK7QAction9isCheckedEv (QtGui4.__ZNK7QAction9isCheckedEv)
 0000:00000000  Imp  __ZNK7QAction9isEnabledEv (QtGui4.__ZNK7QAction9isEnabledEv)
 0000:00000000  Imp  __ZNK7QAction9isVisibleEv (QtGui4.__ZNK7QAction9isVisibleEv)
 0000:00000000  Imp  __ZNK7QAction9statusTipEv (QtGui4.__ZNK7QAction9statusTipEv)
 0000:00000000  Imp  __ZNK7QAction9whatsThisEv (QtGui4.__ZNK7QAction9whatsThisEv)
 0000:00000000  Imp  __ZNK7QLayout18getContentsMarginsEPiS0_S0_S0_ (QtGui4.__ZNK7QLayout18getContentsMarginsEPiS0_S0_S0_)
 0000:00000000  Imp  __ZNK7QObject10metaObjectEv (QtCore4.__ZNK7QObject10metaObjectEv)
 0000:00000000  Imp  __ZNK7QObject10objectNameEv (QtCore4.__ZNK7QObject10objectNameEv)
 0000:00000000  Imp  __ZNK7QObject6senderEv (QtCore4.__ZNK7QObject6senderEv)
 0000:00000000  Imp  __ZNK7QObject8propertyEPKc (QtCore4.__ZNK7QObject8propertyEPKc)
 0000:00000000  Imp  __ZNK7QPixmap4sizeEv (QtGui4.__ZNK7QPixmap4sizeEv)
 0000:00000000  Imp  __ZNK7QPixmap5widthEv (QtGui4.__ZNK7QPixmap5widthEv)
 0000:00000000  Imp  __ZNK7QPixmap6heightEv (QtGui4.__ZNK7QPixmap6heightEv)
 0000:00000000  Imp  __ZNK7QPixmap6isNullEv (QtGui4.__ZNK7QPixmap6isNullEv)
 0000:00000000  Imp  __ZNK7QPixmapcv8QVariantEv (QtGui4.__ZNK7QPixmapcv8QVariantEv)
 0000:00000000  Imp  __ZNK7QRegExp7indexInERK7QStringiNS_9CaretModeE (QtCore4.__ZNK7QRegExp7indexInERK7QStringiNS_9CaretModeE)
 0000:00000000  Imp  __ZNK7QString10startsWithERKS_N2Qt15CaseSensitivityE (QtCore4.__ZNK7QString10startsWithERKS_N2Qt15CaseSensitivityE)
 0000:00000000  Imp  __ZNK7QString11lastIndexOfE5QChariN2Qt15CaseSensitivityE (QtCore4.__ZNK7QString11lastIndexOfE5QChariN2Qt15CaseSensitivityE)
 0000:00000000  Imp  __ZNK7QString11toLocal8BitEv (QtCore4.__ZNK7QString11toLocal8BitEv)
 0000:00000000  Imp  __ZNK7QString18localeAwareCompareERKS_ (QtCore4.__ZNK7QString18localeAwareCompareERKS_)
 0000:00000000  Imp  __ZNK7QString3argExiiRK5QChar (QtCore4.__ZNK7QString3argExiiRK5QChar)
 0000:00000000  Imp  __ZNK7QString3midEii (QtCore4.__ZNK7QString3midEii)
 0000:00000000  Imp  __ZNK7QString4leftEi (QtCore4.__ZNK7QString4leftEi)
 0000:00000000  Imp  __ZNK7QString5rightEi (QtCore4.__ZNK7QString5rightEi)
 0000:00000000  Imp  __ZNK7QString5splitERKS_NS_13SplitBehaviorEN2Qt15CaseSensitivityE (QtCore4.__ZNK7QString5splitERKS_NS_13SplitBehaviorEN2Qt15CaseSensitivityE)
 0000:00000000  Imp  __ZNK7QString5toIntEPbi (QtCore4.__ZNK7QString5toIntEPbi)
 0000:00000000  Imp  __ZNK7QString6toUtf8Ev (QtCore4.__ZNK7QString6toUtf8Ev)
 0000:00000000  Imp  __ZNK7QString7indexOfE5QChariN2Qt15CaseSensitivityE (QtCore4.__ZNK7QString7indexOfE5QChariN2Qt15CaseSensitivityE)
 0000:00000000  Imp  __ZNK7QString7indexOfER7QRegExpi (QtCore4.__ZNK7QString7indexOfER7QRegExpi)
 0000:00000000  Imp  __ZNK7QString7leftRefEi (QtCore4.__ZNK7QString7leftRefEi)
 0000:00000000  Imp  __ZNK7QString7trimmedEv (QtCore4.__ZNK7QString7trimmedEv)
 0000:00000000  Imp  __ZNK7QString8endsWithERKS_N2Qt15CaseSensitivityE (QtCore4.__ZNK7QString8endsWithERKS_N2Qt15CaseSensitivityE)
 0000:00000000  Imp  __ZNK7QString8multiArgEiPPKS_ (QtCore4.__ZNK7QString8multiArgEiPPKS_)
 0000:00000000  Imp  __ZNK7QString8rightRefEi (QtCore4.__ZNK7QString8rightRefEi)
 0000:00000000  Imp  __ZNK7QString8toLatin1Ev (QtCore4.__ZNK7QString8toLatin1Ev)
 0000:00000000  Imp  __ZNK7QStringeqERK13QLatin1String (QtCore4.__ZNK7QStringeqERK13QLatin1String)
 0000:00000000  Imp  __ZNK7QStringeqERKS_ (QtCore4.__ZNK7QStringeqERKS_)
 0000:00000000  Imp  __ZNK7QStringltERKS_ (QtCore4.__ZNK7QStringltERKS_)
 0000:00000000  Imp  __ZNK7QWidget11isMaximizedEv (QtGui4.__ZNK7QWidget11isMaximizedEv)
 0000:00000000  Imp  __ZNK7QWidget11isMinimizedEv (QtGui4.__ZNK7QWidget11isMinimizedEv)
 0000:00000000  Imp  __ZNK7QWidget11paintEngineEv (QtGui4.__ZNK7QWidget11paintEngineEv)
 0000:00000000  Imp  __ZNK7QWidget13frameGeometryEv (QtGui4.__ZNK7QWidget13frameGeometryEv)
 0000:00000000  Imp  __ZNK7QWidget14ensurePolishedEv (QtGui4.__ZNK7QWidget14ensurePolishedEv)
 0000:00000000  Imp  __ZNK7QWidget14heightForWidthEi (QtGui4.__ZNK7QWidget14heightForWidthEi)
 0000:00000000  Imp  __ZNK7QWidget14isActiveWindowEv (QtGui4.__ZNK7QWidget14isActiveWindowEv)
 0000:00000000  Imp  __ZNK7QWidget15layoutDirectionEv (QtGui4.__ZNK7QWidget15layoutDirectionEv)
 0000:00000000  Imp  __ZNK7QWidget15minimumSizeHintEv (QtGui4.__ZNK7QWidget15minimumSizeHintEv)
 0000:00000000  Imp  __ZNK7QWidget16inputMethodQueryEN2Qt16InputMethodQueryE (QtGui4.__ZNK7QWidget16inputMethodQueryEN2Qt16InputMethodQueryE)
 0000:00000000  Imp  __ZNK7QWidget5styleEv (QtGui4.__ZNK7QWidget5styleEv)
 0000:00000000  Imp  __ZNK7QWidget6layoutEv (QtGui4.__ZNK7QWidget6layoutEv)
 0000:00000000  Imp  __ZNK7QWidget6metricEN12QPaintDevice17PaintDeviceMetricE (QtGui4.__ZNK7QWidget6metricEN12QPaintDevice17PaintDeviceMetricE)
 0000:00000000  Imp  __ZNK7QWidget6windowEv (QtGui4.__ZNK7QWidget6windowEv)
 0000:00000000  Imp  __ZNK7QWidget7actionsEv (QtGui4.__ZNK7QWidget7actionsEv)
 0000:00000000  Imp  __ZNK7QWidget7devTypeEv (QtGui4.__ZNK7QWidget7devTypeEv)
 0001:000223F0       __ZNK8DateTime11toX85FormatEbbb
 0001:00022610       __ZNK8DateTime13toX85DateTimeEv
 0001:00021EA0       __ZNK8DateTime5toUTCEv
 0001:00021E20       __ZNK8DateTime6isNullEv
 0001:00021E40       __ZNK8DateTime7isValidEv
 0001:00021F20       __ZNK8DateTime7toLocalEv
 0001:00021E70       __ZNK8DateTime8dateTimeEv
 0001:00021E60       __ZNK8DateTime8timeZoneEv
 0001:00021F90       __ZNK8DateTime8toX85TZDEv
 0001:00023010       __ZNK8DateTime8toX85UTCEv
 0001:00022250       __ZNK8DateTime9toX85DateEv
 0001:000222A0       __ZNK8DateTime9toX85TimeEv
 0000:00000000  Imp  __ZNK8QDomNode10firstChildEv (QtXml4.__ZNK8QDomNode10firstChildEv)
 0000:00000000  Imp  __ZNK8QDomNode10parentNodeEv (QtXml4.__ZNK8QDomNode10parentNodeEv)
 0000:00000000  Imp  __ZNK8QDomNode10toDocumentEv (QtXml4.__ZNK8QDomNode10toDocumentEv)
 0000:00000000  Imp  __ZNK8QDomNode11nextSiblingEv (QtXml4.__ZNK8QDomNode11nextSiblingEv)
 0000:00000000  Imp  __ZNK8QDomNode12namespaceURIEv (QtXml4.__ZNK8QDomNode12namespaceURIEv)
 0000:00000000  Imp  __ZNK8QDomNode13hasChildNodesEv (QtXml4.__ZNK8QDomNode13hasChildNodesEv)
 0000:00000000  Imp  __ZNK8QDomNode13ownerDocumentEv (QtXml4.__ZNK8QDomNode13ownerDocumentEv)
 0000:00000000  Imp  __ZNK8QDomNode17firstChildElementERK7QString (QtXml4.__ZNK8QDomNode17firstChildElementERK7QString)
 0000:00000000  Imp  __ZNK8QDomNode18nextSiblingElementERK7QString (QtXml4.__ZNK8QDomNode18nextSiblingElementERK7QString)
 0000:00000000  Imp  __ZNK8QDomNode4saveER11QTextStreami (QtXml4.__ZNK8QDomNode4saveER11QTextStreami)
 0000:00000000  Imp  __ZNK8QDomNode6isNullEv (QtXml4.__ZNK8QDomNode6isNullEv)
 0000:00000000  Imp  __ZNK8QDomNode6isTextEv (QtXml4.__ZNK8QDomNode6isTextEv)
 0000:00000000  Imp  __ZNK8QDomNode6toTextEv (QtXml4.__ZNK8QDomNode6toTextEv)
 0000:00000000  Imp  __ZNK8QDomNode9cloneNodeEb (QtXml4.__ZNK8QDomNode9cloneNodeEb)
 0000:00000000  Imp  __ZNK8QDomNode9isElementEv (QtXml4.__ZNK8QDomNode9isElementEv)
 0000:00000000  Imp  __ZNK8QDomNode9toElementEv (QtXml4.__ZNK8QDomNode9toElementEv)
 0000:00000000  Imp  __ZNK8QDomNodeeqERKS_ (QtXml4.__ZNK8QDomNodeeqERKS_)
 0000:00000000  Imp  __ZNK8QDomNodeneERKS_ (QtXml4.__ZNK8QDomNodeneERKS_)
 0000:00000000  Imp  __ZNK8QPainter7opacityEv (QtGui4.__ZNK8QPainter7opacityEv)
 0000:00000000  Imp  __ZNK8QPalette5brushENS_10ColorGroupENS_9ColorRoleE (QtGui4.__ZNK8QPalette5brushENS_10ColorGroupENS_9ColorRoleE)
 0000:00000000  Imp  __ZNK8QToolBar15toolButtonStyleEv (QtGui4.__ZNK8QToolBar15toolButtonStyleEv)
 0000:00000000  Imp  __ZNK8QVariant10canConvertENS_4TypeE (QtCore4.__ZNK8QVariant10canConvertENS_4TypeE)
 0000:00000000  Imp  __ZNK8QVariant11toByteArrayEv (QtCore4.__ZNK8QVariant11toByteArrayEv)
 0000:00000000  Imp  __ZNK8QVariant12toStringListEv (QtCore4.__ZNK8QVariant12toStringListEv)
 0000:00000000  Imp  __ZNK8QVariant3cmpERKS_ (QtCore4.__ZNK8QVariant3cmpERKS_)
 0000:00000000  Imp  __ZNK8QVariant4typeEv (QtCore4.__ZNK8QVariant4typeEv)
 0000:00000000  Imp  __ZNK8QVariant5toIntEPb (QtCore4.__ZNK8QVariant5toIntEPb)
 0000:00000000  Imp  __ZNK8QVariant6isNullEv (QtCore4.__ZNK8QVariant6isNullEv)
 0000:00000000  Imp  __ZNK8QVariant6toBoolEv (QtCore4.__ZNK8QVariant6toBoolEv)
 0000:00000000  Imp  __ZNK8QVariant6toRealEPb (QtCore4.__ZNK8QVariant6toRealEPb)
 0000:00000000  Imp  __ZNK8QVariant6toRectEv (QtCore4.__ZNK8QVariant6toRectEv)
 0000:00000000  Imp  __ZNK8QVariant6toSizeEv (QtCore4.__ZNK8QVariant6toSizeEv)
 0000:00000000  Imp  __ZNK8QVariant7toPointEv (QtCore4.__ZNK8QVariant7toPointEv)
 0000:00000000  Imp  __ZNK8QVariant8toStringEv (QtCore4.__ZNK8QVariant8toStringEv)
 0000:00000000  Imp  __ZNK8QVariant8userTypeEv (QtCore4.__ZNK8QVariant8userTypeEv)
 0000:00000000  Imp  __ZNK8QVariant9constDataEv (QtCore4.__ZNK8QVariant9constDataEv)
 0000:00000000  Imp  __ZNK9QDateTime10toTimeSpecEN2Qt8TimeSpecE (QtCore4.__ZNK9QDateTime10toTimeSpecEN2Qt8TimeSpecE)
 0000:00000000  Imp  __ZNK9QDateTime4dateEv (QtCore4.__ZNK9QDateTime4dateEv)
 0000:00000000  Imp  __ZNK9QDateTime4timeEv (QtCore4.__ZNK9QDateTime4timeEv)
 0000:00000000  Imp  __ZNK9QDateTime6isNullEv (QtCore4.__ZNK9QDateTime6isNullEv)
 0000:00000000  Imp  __ZNK9QDateTime6secsToERKS_ (QtCore4.__ZNK9QDateTime6secsToERKS_)
 0000:00000000  Imp  __ZNK9QDateTime7addSecsEi (QtCore4.__ZNK9QDateTime7addSecsEi)
 0000:00000000  Imp  __ZNK9QDateTime7isValidEv (QtCore4.__ZNK9QDateTime7isValidEv)
 0000:00000000  Imp  __ZNK9QDateTime7msecsToERKS_ (QtCore4.__ZNK9QDateTime7msecsToERKS_)
 0000:00000000  Imp  __ZNK9QDateTime8timeSpecEv (QtCore4.__ZNK9QDateTime8timeSpecEv)
 0000:00000000  Imp  __ZNK9QDateTimeltERKS_ (QtCore4.__ZNK9QDateTimeltERKS_)
 0000:00000000  Imp  __ZNK9QKeyEvent9modifiersEv (QtGui4.__ZNK9QKeyEvent9modifiersEv)
 0000:00000000  Imp  __ZNK9QLineEdit14getTextMarginsEPiS0_S0_S0_ (QtGui4.__ZNK9QLineEdit14getTextMarginsEPiS0_S0_S0_)
 0000:00000000  Imp  __ZNK9QLineEdit15minimumSizeHintEv (QtGui4.__ZNK9QLineEdit15minimumSizeHintEv)
 0000:00000000  Imp  __ZNK9QLineEdit16inputMethodQueryEN2Qt16InputMethodQueryE (QtGui4.__ZNK9QLineEdit16inputMethodQueryEN2Qt16InputMethodQueryE)
 0000:00000000  Imp  __ZNK9QLineEdit4textEv (QtGui4.__ZNK9QLineEdit4textEv)
 0000:00000000  Imp  __ZNK9QLineEdit8sizeHintEv (QtGui4.__ZNK9QLineEdit8sizeHintEv)
 0000:00000000  Imp  __ZNK9QTextEdit16inputMethodQueryEN2Qt16InputMethodQueryE (QtGui4.__ZNK9QTextEdit16inputMethodQueryEN2Qt16InputMethodQueryE)
 0000:00000000  Imp  __ZNK9QTextEdit21canInsertFromMimeDataEPK9QMimeData (QtGui4.__ZNK9QTextEdit21canInsertFromMimeDataEPK9QMimeData)
 0000:00000000  Imp  __ZNK9QTextEdit21lineWrapColumnOrWidthEv (QtGui4.__ZNK9QTextEdit21lineWrapColumnOrWidthEv)
 0000:00000000  Imp  __ZNK9QTextEdit27createMimeDataFromSelectionEv (QtGui4.__ZNK9QTextEdit27createMimeDataFromSelectionEv)
 0000:00000000  Imp  __ZNK9QTextEdit8documentEv (QtGui4.__ZNK9QTextEdit8documentEv)
 0001:0004F7A0       __ZNK9Shortcuts10metaObjectEv
 0001:00018250       __ZNK9UnzipFile11zipFileNameEv
 0001:000187F0       __ZNK9UnzipFile18loadZippedFileDataERK7QString
 0001:00018230       __ZNK9UnzipFile7isValidEv
 0001:00018980       __ZNK9UnzipFile8fileDataERK7QString
 0001:00018760       __ZNK9UnzipFile8fileSizeERK7QString
 0001:00019380       __ZNK9UnzipFile9fileNamesEv
 0001:0000EAE0       __ZNK9XmppError11errorStringERK7QString
 0001:00006850       __ZNK9XmppError12appConditionERK7QString
 0001:0000ED50       __ZNK9XmppError12errorMessageERK7QStringS2_
 0001:00006440       __ZNK9XmppError13conditionTextEv
 0001:000063C0       __ZNK9XmppError13isStanzaErrorEv
 0001:000063A0       __ZNK9XmppError13isStreamErrorEv
 0001:00007020       __ZNK9XmppError13toStanzaErrorEv
 0001:00007080       __ZNK9XmppError13toStreamErrorEv
 0001:00007A90       __ZNK9XmppError14errorTextLangsEv
 0001:000063E0       __ZNK9XmppError15isInternalErrorEv
 0001:00007A60       __ZNK9XmppError18appConditionNsListEv
 0001:00006370       __ZNK9XmppError6isNullEv
 0001:00006400       __ZNK9XmppError7errorNsEv
 0001:00006420       __ZNK9XmppError9conditionEv
 0001:00006460       __ZNK9XmppError9errorTextERK7QString
 0001:00081FE0       __ZNKSt9exception4whatEv
 0001:00080EA4       __ZNKSt9type_info10__do_catchEPKS_PPvj
 0001:00080EC0       __ZNKSt9type_info11__do_upcastEPKN10__cxxabiv117__class_type_infoEPPv
 0001:00080E94       __ZNKSt9type_info14__is_pointer_pEv
 0001:00080E9C       __ZNKSt9type_info15__is_function_pEv
 0001:00080E62       __ZNKSt9type_infoeqERKS_
 0001:00080E40       __ZNSt10bad_typeidD0Ev
 0001:00080E28       __ZNSt10bad_typeidD1Ev
 0001:00080E10       __ZNSt10bad_typeidD2Ev
 0001:00081FBE       __ZNSt13bad_exceptionD0Ev
 0001:00081FA6       __ZNSt13bad_exceptionD1Ev
 0001:00081F8E       __ZNSt13bad_exceptionD2Ev
 0001:00080DEE       __ZNSt8bad_castD0Ev
 0001:00080DD6       __ZNSt8bad_castD1Ev
 0001:00080DBE       __ZNSt8bad_castD2Ev
 0001:00082286       __ZNSt9bad_allocD0Ev
 0001:0008226E       __ZNSt9bad_allocD1Ev
 0001:00082256       __ZNSt9bad_allocD2Ev
 0001:00081F7C       __ZNSt9exceptionD0Ev
 0001:00081F6E       __ZNSt9exceptionD1Ev
 0001:00081F60       __ZNSt9exceptionD2Ev
 0001:00080DAC       __ZNSt9type_infoD0Ev
 0001:00080D9E       __ZNSt9type_infoD1Ev
 0001:00080D90       __ZNSt9type_infoD2Ev
 0001:00080C90       __Znwj
 0001:00048690       __ZrsIi8QVariantER11QDataStreamS2_R4QMapIT_T0_E$w$d32ndWypfD6CcIGO3
 0001:00048C30       __ZrsIj20AdvancedDelegateItemER11QDataStreamS2_R4QMapIT_T0_E$w$d32ndWypfD6CcIGO3
 0000:00000000  Imp  __ZrsR11QDataStreamR11QSizePolicy (QtGui4.__ZrsR11QDataStreamR11QSizePolicy)
 0001:00048970       __ZrsR11QDataStreamR20AdvancedDelegateItem
 0001:000037D0       __ZrsR11QDataStreamR3Jid
 0000:00000000  Imp  __ZrsR11QDataStreamR7QString (QtCore4.__ZrsR11QDataStreamR7QString)
 0000:00000000  Imp  __ZrsR11QDataStreamR8QVariant (QtCore4.__ZrsR11QDataStreamR8QVariant)
 0001:00080B3E       __ZSt10unexpectedv
 0001:00080B4E       __ZSt13set_terminatePFvvE
 0001:00080B62       __ZSt14set_unexpectedPFvvE
 0001:00082242       __ZSt15set_new_handlerPFvvE
 0001:0008026C       __ZSt18uncaught_exceptionv
 0001:00082240       __ZSt7nothrow
 0001:00080B24       __ZSt9terminatev
 0001:00041EA0       __ZThn8_N11CloseButtonD0Ev
 0001:00041E60       __ZThn8_N11CloseButtonD1Ev
 0001:000424F0       __ZThn8_N14SearchLineEditD0Ev
 0001:000424C0       __ZThn8_N14SearchLineEditD1Ev
 0001:00050A30       __ZThn8_N19AnimatedTextBrowserD0Ev$w$z2IZSJApfD6uTITD3
 0001:00050870       __ZThn8_N19AnimatedTextBrowserD1Ev$w$z2IZSJApfD6uTITD3
 0001:00015D40       __ZThn8_N4MenuD0Ev
 0001:00015D10       __ZThn8_N4MenuD1Ev
 0000:00000000  Imp  __ZThn8_NK7QWidget11paintEngineEv (QtGui4.__ZThn8_NK7QWidget11paintEngineEv)
 0000:00000000  Imp  __ZThn8_NK7QWidget6metricEN12QPaintDevice17PaintDeviceMetricE (QtGui4.__ZThn8_NK7QWidget6metricEN12QPaintDevice17PaintDeviceMetricE)
 0000:00000000  Imp  __ZThn8_NK7QWidget7devTypeEv (QtGui4.__ZThn8_NK7QWidget7devTypeEv)
 0001:0007F16C       __ZTI10QxtPrivateI17QxtGlobalShortcutE$w$xvL7aFupfD6iFA5P0
 0001:000510B8       __ZTI11CloseButton$w$HOskLTApfD62yoKz4
 0001:0004E928       __ZTI11FileStorage$w$VvFRpLzpfD6sPJWz4
 0001:0004E608       __ZTI11FileStorage$w$vw0HqCzpfD6jNQQK3
 0001:0004E838       __ZTI11IconStorage$w$VvFRpLzpfD6sPJWz4
 0001:0004D6F0       __ZTI11QLayoutItem$w$d32ndWypfD6CcIGO3
 0001:0004DFF4       __ZTI12QPaintDevice$w$d7U3OizpfD6DLigL3
 0001:00051184       __ZTI12QPaintDevice$w$HOskLTApfD62yoKz4
 0001:00051654       __ZTI12QPaintDevice$w$Pc7Yz5BpfD663I2B2
 0001:00050EC4       __ZTI12QPaintDevice$w$z2IZSJApfD6uTITD3
 0001:00050E20       __ZTI12QTextBrowser$w$z2IZSJApfD6uTITD3
 0001:0001F050       __ZTI13QItemDelegate$w$TsYjLNwpfD6WUzhB0
 0001:00021C94       __ZTI13QWidgetAction$w$1bvUwWwpfD6jhKW62
 0001:000501D0       __ZTI13SystemManager$w$30HJgxApfD62bIYd0
 0001:00031430       __ZTI13WindowSticker$w$jmQ2EKxpfD6jv6463
 0001:0004EC04       __ZTI14MenuBarChanger$w$p7jeMWzpfD6MP7pN1
 0001:000514A4       __ZTI14SearchLineEdit$w$Pc7Yz5BpfD663I2B2
 0001:0004E2F4       __ZTI14ToolBarChanger$w$HMLahvzpfD6He6qo4
 0001:0001F044       __ZTI15IconsetDelegate$w$TsYjLNwpfD6WUzhB0
 0001:0005111C       __ZTI15QAbstractButton$w$HOskLTApfD62yoKz4
 0001:0004F074       __ZTI16StatusBarChanger$w$HCuct9ApfD6ZAwZD2
 0001:00021C70       __ZTI16ToolButtonAction$w$1bvUwWwpfD6jhKW62
 0001:0007F4B4       __ZTI17QxtGlobalShortcut$w$7Ovt3OupfD6WApQw2
 0001:00050BD8       __ZTI19AnimatedTextBrowser$w$z2IZSJApfD6uTITD3
 0001:00050E54       __ZTI19QAbstractScrollArea$w$z2IZSJApfD6uTITD3
 0001:000518F4       __ZTI19QStyledItemDelegate$w$RdxzOgBpfD6azu2m0
 0001:00051838       __ZTI20AdvancedItemDelegate$w$RdxzOgBpfD6azu2m0
 0001:00051918       __ZTI21QAbstractItemDelegate$w$RdxzOgBpfD6azu2m0
 0001:0001F070       __ZTI21QAbstractItemDelegate$w$TsYjLNwpfD6WUzhB0
 0001:0007F13C       __ZTI24QxtGlobalShortcutPrivate$w$xvL7aFupfD6iFA5P0
 0001:0004D5BC       __ZTI25AdvancedDelegateEditProxy$w$d32ndWypfD6CcIGO3
 0001:0004D6B8       __ZTI26AdvancedDelegateLayoutItem$w$d32ndWypfD6CcIGO3
 0001:000800A0       __ZTI4Idle$w$7sMV8ZupfD6g9DWG3
 0001:0004DDE4       __ZTI4Menu$w$d7U3OizpfD6DLigL3
 0001:0004DFA4       __ZTI5QMenu$w$d7U3OizpfD6DLigL3
 0001:0004D8C0       __ZTI6Action$w$xDtwm8zpfD6838jG1
 0001:00050E78       __ZTI6QFrame$w$z2IZSJApfD6uTITD3
 0001:0004F604       __ZTI7Options$w$JVFn6hApfD6I6SsG1
 0001:00021CB0       __ZTI7QAction$w$1bvUwWwpfD6jhKW62
 0001:0004D984       __ZTI7QAction$w$xDtwm8zpfD6838jG1
 0001:00021CC8       __ZTI7QObject$w$1bvUwWwpfD6jhKW62
 0001:00050294       __ZTI7QObject$w$30HJgxApfD62bIYd0
 0001:0007F608       __ZTI7QObject$w$7Ovt3OupfD6WApQw2
 0001:00080144       __ZTI7QObject$w$7sMV8ZupfD6g9DWG3
 0001:0004DFEC       __ZTI7QObject$w$d7U3OizpfD6DLigL3
 0001:0004F254       __ZTI7QObject$w$HCuct9ApfD6ZAwZD2
 0001:0004E47C       __ZTI7QObject$w$HMLahvzpfD6He6qo4
 0001:0005117C       __ZTI7QObject$w$HOskLTApfD62yoKz4
 0001:0004FFAC       __ZTI7QObject$w$JJnjFqApfD6BT1000
 0001:0003143C       __ZTI7QObject$w$jmQ2EKxpfD6jv6463
 0001:0004F784       __ZTI7QObject$w$JVFn6hApfD6I6SsG1
 0001:0004ED4C       __ZTI7QObject$w$p7jeMWzpfD6MP7pN1
 0001:0005164C       __ZTI7QObject$w$Pc7Yz5BpfD663I2B2
 0001:00051948       __ZTI7QObject$w$RdxzOgBpfD6azu2m0
 0001:0001F098       __ZTI7QObject$w$TsYjLNwpfD6WUzhB0
 0001:0004E944       __ZTI7QObject$w$VvFRpLzpfD6sPJWz4
 0001:0004E690       __ZTI7QObject$w$vw0HqCzpfD6jNQQK3
 0001:0004D99C       __ZTI7QObject$w$xDtwm8zpfD6838jG1
 0001:00050EBC       __ZTI7QObject$w$z2IZSJApfD6uTITD3
 0001:0004DFC0       __ZTI7QWidget$w$d7U3OizpfD6DLigL3
 0001:00051150       __ZTI7QWidget$w$HOskLTApfD62yoKz4
 0001:00051620       __ZTI7QWidget$w$Pc7Yz5BpfD663I2B2
 0001:00050E90       __ZTI7QWidget$w$z2IZSJApfD6uTITD3
 0001:00051604       __ZTI9QLineEdit$w$Pc7Yz5BpfD663I2B2
 0001:00050E3C       __ZTI9QTextEdit$w$z2IZSJApfD6uTITD3
 0001:0004FCD4       __ZTI9Shortcuts$w$JJnjFqApfD6BT1000
 0001:00081B50       __ZTIN10__cxxabiv117__class_type_infoE$w$RUHCpMm3xL5NesEi0
 0001:00081B5C       __ZTIN10__cxxabiv120__si_class_type_infoE$w$RUHCpMm3xL5NesEi0
 0001:00081B68       __ZTIN10__cxxabiv121__vmi_class_type_infoE$w$RUHCpMm3xL5NesEi0
 0001:00081B44       __ZTISt10bad_typeid$w$RUHCpMm3xL5NesEi0
 0001:00082024       __ZTISt13bad_exception$w$HAICpMm3xL5geb6z3
 0001:00080AD0       __ZTISt13bad_exception$w$nJICpMm3xL5lR80S0
 0001:00081B38       __ZTISt8bad_cast$w$RUHCpMm3xL5NesEi0
 0000:00000000  Imp  __ZTISt9bad_alloc    (libc065.3428)
 0001:00029670       __ZTISt9bad_alloc$w$9jvlvcxpfD6zc01C1
 0001:00080CFC       __ZTISt9bad_alloc$w$dsICpMm3xL5lcI0i0
 0001:00080D50       __ZTISt9bad_alloc$w$E4ICpMm3xL5Xc23d0
 0001:00041E00       __ZTISt9bad_alloc$w$LuTRgoypfD6srdWB2
 0001:000822BC       __ZTISt9bad_alloc$w$NJHCpMm3xL5w0PgS3
 0001:0001C7E8       __ZTISt9bad_alloc$w$Nlg6JEwpfD61JVHa4
 0001:0002DAD0       __ZTISt9bad_alloc$w$Pegk7mxpfD6IeT6r2
 0001:00015834       __ZTISt9bad_alloc$w$v8Ij8kwpfD6ooPV82
 0001:0007F160       __ZTISt9bad_alloc$w$xvL7aFupfD6iFA5P0
 0000:00000000  Imp  __ZTISt9exception    (libc065.3468)
 0001:0002968C       __ZTISt9exception$w$9jvlvcxpfD6zc01C1
 0001:00080D18       __ZTISt9exception$w$dsICpMm3xL5lcI0i0
 0001:00080D6C       __ZTISt9exception$w$E4ICpMm3xL5Xc23d0
 0001:0008201C       __ZTISt9exception$w$HAICpMm3xL5geb6z3
 0001:00041E1C       __ZTISt9exception$w$LuTRgoypfD6srdWB2
 0001:000822D8       __ZTISt9exception$w$NJHCpMm3xL5w0PgS3
 0001:00080AF0       __ZTISt9exception$w$nJICpMm3xL5lR80S0
 0001:0001C804       __ZTISt9exception$w$Nlg6JEwpfD61JVHa4
 0001:0002DAEC       __ZTISt9exception$w$Pegk7mxpfD6IeT6r2
 0001:00081C5C       __ZTISt9exception$w$RUHCpMm3xL5NesEi0
 0001:00015850       __ZTISt9exception$w$v8Ij8kwpfD6ooPV82
 0001:0007F184       __ZTISt9exception$w$xvL7aFupfD6iFA5P0
 0001:00081B30       __ZTISt9type_info$w$RUHCpMm3xL5NesEi0
 0001:0007F190       __ZTS10QxtPrivateI17QxtGlobalShortcutE$w$xvL7aFupfD6iFA5P0
 0001:000510A8       __ZTS11CloseButton$w$HOskLTApfD62yoKz4
 0001:0004E934       __ZTS11FileStorage$w$VvFRpLzpfD6sPJWz4
 0001:0004E5F8       __ZTS11FileStorage$w$vw0HqCzpfD6jNQQK3
 0001:0004E828       __ZTS11IconStorage$w$VvFRpLzpfD6sPJWz4
 0001:0004D6F8       __ZTS11QLayoutItem$w$d32ndWypfD6CcIGO3
 0001:0004E005       __ZTS12QPaintDevice$w$d7U3OizpfD6DLigL3
 0001:00051195       __ZTS12QPaintDevice$w$HOskLTApfD62yoKz4
 0001:00051665       __ZTS12QPaintDevice$w$Pc7Yz5BpfD663I2B2
 0001:00050ED5       __ZTS12QPaintDevice$w$z2IZSJApfD6uTITD3
 0001:00050E2C       __ZTS12QTextBrowser$w$z2IZSJApfD6uTITD3
 0001:0001F060       __ZTS13QItemDelegate$w$TsYjLNwpfD6WUzhB0
 0001:00021CA0       __ZTS13QWidgetAction$w$1bvUwWwpfD6jhKW62
 0001:000501C0       __ZTS13SystemManager$w$30HJgxApfD62bIYd0
 0001:00031420       __ZTS13WindowSticker$w$jmQ2EKxpfD6jv6463
 0001:0004EBF0       __ZTS14MenuBarChanger$w$p7jeMWzpfD6MP7pN1
 0001:00051490       __ZTS14SearchLineEdit$w$Pc7Yz5BpfD663I2B2
 0001:0004E2E0       __ZTS14ToolBarChanger$w$HMLahvzpfD6He6qo4
 0001:0001F030       __ZTS15IconsetDelegate$w$TsYjLNwpfD6WUzhB0
 0001:00051130       __ZTS15QAbstractButton$w$HOskLTApfD62yoKz4
 0001:0004F060       __ZTS16StatusBarChanger$w$HCuct9ApfD6ZAwZD2
 0001:00021C80       __ZTS16ToolButtonAction$w$1bvUwWwpfD6jhKW62
 0001:0007F4A0       __ZTS17QxtGlobalShortcut$w$7Ovt3OupfD6WApQw2
 0001:00050BC0       __ZTS19AnimatedTextBrowser$w$z2IZSJApfD6uTITD3
 0001:00050E60       __ZTS19QAbstractScrollArea$w$z2IZSJApfD6uTITD3
 0001:00051900       __ZTS19QStyledItemDelegate$w$RdxzOgBpfD6azu2m0
 0001:00051820       __ZTS20AdvancedItemDelegate$w$RdxzOgBpfD6azu2m0
 0001:00051930       __ZTS21QAbstractItemDelegate$w$RdxzOgBpfD6azu2m0
 0001:0001F080       __ZTS21QAbstractItemDelegate$w$TsYjLNwpfD6WUzhB0
 0001:0007F120       __ZTS24QxtGlobalShortcutPrivate$w$xvL7aFupfD6iFA5P0
 0001:0004D5A0       __ZTS25AdvancedDelegateEditProxy$w$d32ndWypfD6CcIGO3
 0001:0004D6D0       __ZTS26AdvancedDelegateLayoutItem$w$d32ndWypfD6CcIGO3
 0001:00080098       __ZTS4Idle$w$7sMV8ZupfD6g9DWG3
 0001:0004DDDC       __ZTS4Menu$w$d7U3OizpfD6DLigL3
 0001:0004DFB0       __ZTS5QMenu$w$d7U3OizpfD6DLigL3
 0001:0004D8B8       __ZTS6Action$w$xDtwm8zpfD6838jG1
 0001:00050E84       __ZTS6QFrame$w$z2IZSJApfD6uTITD3
 0001:0004F5F8       __ZTS7Options$w$JVFn6hApfD6I6SsG1
 0001:00021CBC       __ZTS7QAction$w$1bvUwWwpfD6jhKW62
 0001:0004D990       __ZTS7QAction$w$xDtwm8zpfD6838jG1
 0001:00021CD0       __ZTS7QObject$w$1bvUwWwpfD6jhKW62
 0001:0005029C       __ZTS7QObject$w$30HJgxApfD62bIYd0
 0001:0007F610       __ZTS7QObject$w$7Ovt3OupfD6WApQw2
 0001:0008014C       __ZTS7QObject$w$7sMV8ZupfD6g9DWG3
 0001:0004DFFC       __ZTS7QObject$w$d7U3OizpfD6DLigL3
 0001:0004F25C       __ZTS7QObject$w$HCuct9ApfD6ZAwZD2
 0001:0004E484       __ZTS7QObject$w$HMLahvzpfD6He6qo4
 0001:0005118C       __ZTS7QObject$w$HOskLTApfD62yoKz4
 0001:0004FFB4       __ZTS7QObject$w$JJnjFqApfD6BT1000
 0001:00031444       __ZTS7QObject$w$jmQ2EKxpfD6jv6463
 0001:0004F78C       __ZTS7QObject$w$JVFn6hApfD6I6SsG1
 0001:0004ED54       __ZTS7QObject$w$p7jeMWzpfD6MP7pN1
 0001:0005165C       __ZTS7QObject$w$Pc7Yz5BpfD663I2B2
 0001:00051950       __ZTS7QObject$w$RdxzOgBpfD6azu2m0
 0001:0001F0A0       __ZTS7QObject$w$TsYjLNwpfD6WUzhB0
 0001:0004E94C       __ZTS7QObject$w$VvFRpLzpfD6sPJWz4
 0001:0004E698       __ZTS7QObject$w$vw0HqCzpfD6jNQQK3
 0001:0004D9A4       __ZTS7QObject$w$xDtwm8zpfD6838jG1
 0001:00050ECC       __ZTS7QObject$w$z2IZSJApfD6uTITD3
 0001:0004DFE0       __ZTS7QWidget$w$d7U3OizpfD6DLigL3
 0001:00051170       __ZTS7QWidget$w$HOskLTApfD62yoKz4
 0001:00051640       __ZTS7QWidget$w$Pc7Yz5BpfD663I2B2
 0001:00050EB0       __ZTS7QWidget$w$z2IZSJApfD6uTITD3
 0001:00051610       __ZTS9QLineEdit$w$Pc7Yz5BpfD663I2B2
 0001:00050E48       __ZTS9QTextEdit$w$z2IZSJApfD6uTITD3
 0001:0004FCC8       __ZTS9Shortcuts$w$JJnjFqApfD6BT1000
 0001:00081C10       __ZTSN10__cxxabiv117__class_type_infoE$w$RUHCpMm3xL5NesEi0
 0001:00081BD0       __ZTSN10__cxxabiv120__si_class_type_infoE$w$RUHCpMm3xL5NesEi0
 0001:00081B90       __ZTSN10__cxxabiv121__vmi_class_type_infoE$w$RUHCpMm3xL5NesEi0
 0001:00081C32       __ZTSSt10bad_typeid$w$RUHCpMm3xL5NesEi0
 0001:00082030       __ZTSSt13bad_exception$w$HAICpMm3xL5geb6z3
 0001:00080ADC       __ZTSSt13bad_exception$w$nJICpMm3xL5lR80S0
 0001:00081C41       __ZTSSt8bad_cast$w$RUHCpMm3xL5NesEi0
 0000:00000000  Imp  __ZTSSt9bad_alloc    (libc065.3469)
 0001:0002967C       __ZTSSt9bad_alloc$w$9jvlvcxpfD6zc01C1
 0001:00080D08       __ZTSSt9bad_alloc$w$dsICpMm3xL5lcI0i0
 0001:00080D5C       __ZTSSt9bad_alloc$w$E4ICpMm3xL5Xc23d0
 0001:00041E0C       __ZTSSt9bad_alloc$w$LuTRgoypfD6srdWB2
 0001:000822C8       __ZTSSt9bad_alloc$w$NJHCpMm3xL5w0PgS3
 0001:0001C7F4       __ZTSSt9bad_alloc$w$Nlg6JEwpfD61JVHa4
 0001:0002DADC       __ZTSSt9bad_alloc$w$Pegk7mxpfD6IeT6r2
 0001:00015840       __ZTSSt9bad_alloc$w$v8Ij8kwpfD6ooPV82
 0001:0007F174       __ZTSSt9bad_alloc$w$xvL7aFupfD6iFA5P0
 0000:00000000  Imp  __ZTSSt9exception    (libc065.3489)
 0001:00029694       __ZTSSt9exception$w$9jvlvcxpfD6zc01C1
 0001:00080D20       __ZTSSt9exception$w$dsICpMm3xL5lcI0i0
 0001:00080D74       __ZTSSt9exception$w$E4ICpMm3xL5Xc23d0
 0001:00082042       __ZTSSt9exception$w$HAICpMm3xL5geb6z3
 0001:00041E24       __ZTSSt9exception$w$LuTRgoypfD6srdWB2
 0001:000822E0       __ZTSSt9exception$w$NJHCpMm3xL5w0PgS3
 0001:00080AF8       __ZTSSt9exception$w$nJICpMm3xL5lR80S0
 0001:0001C80C       __ZTSSt9exception$w$Nlg6JEwpfD61JVHa4
 0001:0002DAF4       __ZTSSt9exception$w$Pegk7mxpfD6IeT6r2
 0001:00081C64       __ZTSSt9exception$w$RUHCpMm3xL5NesEi0
 0001:00015858       __ZTSSt9exception$w$v8Ij8kwpfD6ooPV82
 0001:0007F1B2       __ZTSSt9exception$w$xvL7aFupfD6iFA5P0
 0001:00081C4D       __ZTSSt9type_info$w$RUHCpMm3xL5NesEi0
 0001:0007F150       __ZTV10QxtPrivateI17QxtGlobalShortcutE$w$xvL7aFupfD6iFA5P0
 0001:00050FA0       __ZTV11CloseButton$w$HOskLTApfD62yoKz4
 0001:0004E5C0       __ZTV11FileStorage$w$vw0HqCzpfD6jNQQK3
 0001:0004E7F0       __ZTV11IconStorage$w$VvFRpLzpfD6sPJWz4
 0001:00050180       __ZTV13SystemManager$w$30HJgxApfD62bIYd0
 0001:000313E0       __ZTV13WindowSticker$w$jmQ2EKxpfD6jv6463
 0001:0004EBB0       __ZTV14MenuBarChanger$w$p7jeMWzpfD6MP7pN1
 0001:00051390       __ZTV14SearchLineEdit$w$Pc7Yz5BpfD663I2B2
 0001:0004E2A0       __ZTV14ToolBarChanger$w$HMLahvzpfD6He6qo4
 0001:0001EFC0       __ZTV15IconsetDelegate$w$TsYjLNwpfD6WUzhB0
 0001:0004F020       __ZTV16StatusBarChanger$w$HCuct9ApfD6ZAwZD2
 0001:00021C30       __ZTV16ToolButtonAction$w$1bvUwWwpfD6jhKW62
 0001:0007F460       __ZTV17QxtGlobalShortcut$w$7Ovt3OupfD6WApQw2
 0001:00050A90       __ZTV19AnimatedTextBrowser$w$z2IZSJApfD6uTITD3
 0001:000517C0       __ZTV20AdvancedItemDelegate$w$RdxzOgBpfD6azu2m0
 0001:0007F110       __ZTV24QxtGlobalShortcutPrivate$w$xvL7aFupfD6iFA5P0
 0001:0004D580       __ZTV25AdvancedDelegateEditProxy$w$d32ndWypfD6CcIGO3
 0001:0004D670       __ZTV26AdvancedDelegateLayoutItem$w$d32ndWypfD6CcIGO3
 0001:00080060       __ZTV4Idle$w$7sMV8ZupfD6g9DWG3
 0001:0004DCE0       __ZTV4Menu$w$d7U3OizpfD6DLigL3
 0001:0004D880       __ZTV6Action$w$xDtwm8zpfD6838jG1
 0001:0004F5C0       __ZTV7Options$w$JVFn6hApfD6I6SsG1
 0001:0004FC90       __ZTV9Shortcuts$w$JJnjFqApfD6BT1000
 0000:00000000  Imp  __ZTVN10__cxxabiv117__class_type_infoE (libc065.5132)
 0001:00081AB0       __ZTVN10__cxxabiv117__class_type_infoE$w$RUHCpMm3xL5NesEi0
 0000:00000000  Imp  __ZTVN10__cxxabiv120__si_class_type_infoE (libc065.5136)
 0001:00081A70       __ZTVN10__cxxabiv120__si_class_type_infoE$w$RUHCpMm3xL5NesEi0
 0000:00000000  Imp  __ZTVN10__cxxabiv121__vmi_class_type_infoE (libc065.5140)
 0001:00081A30       __ZTVN10__cxxabiv121__vmi_class_type_infoE$w$RUHCpMm3xL5NesEi0
 0001:00081AE0       __ZTVSt10bad_typeid$w$RUHCpMm3xL5NesEi0
 0001:00081FF0       __ZTVSt13bad_exception$w$HAICpMm3xL5geb6z3
 0001:00081AF8       __ZTVSt8bad_cast$w$RUHCpMm3xL5NesEi0
 0001:000822A8       __ZTVSt9bad_alloc$w$NJHCpMm3xL5w0PgS3
 0001:00082008       __ZTVSt9exception$w$HAICpMm3xL5geb6z3
 0001:00081B10       __ZTVSt9type_info$w$RUHCpMm3xL5NesEi0
 0002:0001B164       __ZZN11QMetaTypeIdI20AdvancedDelegateItemE14qt_metatype_idEvE11metatype_id$w$d32ndWypfD6CcIGO3
 0002:0001AFD0       __ZZN11QMetaTypeIdI3JidE14qt_metatype_idEvE11metatype_id$w$RbmQ7RvpfD690XI54
 0002:0001B160       __ZZN11QMetaTypeIdI4QMapIj20AdvancedDelegateItemEE14qt_metatype_idEvE11metatype_id$w$d32ndWypfD6CcIGO3
 0002:0001AFC0       ___bss_start
 0002:0001AEA0       ___crtexit1__
 0002:0001AE98       ___crtinit1__
 0001:000823F0       ___ctordtorInit
 0000:00000000  Imp  ___ctordtorInit1     (libc065.231)
 0001:000823B0       ___ctordtorTerm
 0000:00000000  Imp  ___ctordtorTerm1     (libc065.232)
 0002:0001AE10       ___CTOR_LIST__
 0001:00081CA6       ___cxa_allocate_exception
 0001:00080190       ___cxa_begin_catch
 0001:00080A0A       ___cxa_call_unexpected
 0001:000801FA       ___cxa_end_catch
 0001:00081DE2       ___cxa_free_exception
 0001:0008212C       ___cxa_get_globals
 0001:00082106       ___cxa_get_globals_fast
 0001:00080C80       ___cxa_guard_abort
 0001:00080C60       ___cxa_guard_acquire
 0001:00080C74       ___cxa_guard_release
 0001:00080C14       ___cxa_rethrow
 0001:00080BB8       ___cxa_throw
 0002:00000000       ___data_start
 0000:00000000  Imp  ___deregister_frame  (gcc446.___deregister_frame)
 0000:00000000  Imp  ___divdi3            (gcc446.___divdi3)
 0002:0001AE78       ___DTOR_LIST__
 0001:00081936       ___dynamic_cast
 0001:00082330       ___ehInit
 0001:000822F0       ___ehTerm
 0002:0001AEA8       ___eh_frame__
 0002:0001AF8C       ___eh_init__
 0002:0001AF98       ___eh_term__
 0000:00000000  Imp  ___fmutex_release_internal (libc065.247)
 0000:00000000  Imp  ___fmutex_release_internal_must_complete (libc065.248)
 0000:00000000  Imp  ___fmutex_request_internal (libc065.249)
 0000:00000000  Imp  ___fmutex_request_internal_must_complete (libc065.250)
 0002:0001AFAC       ___fork_child1__
 0002:0001AFA4       ___fork_parent1__
 0001:0008063A       ___gxx_personality_v0
 0000:00000000  Imp  ___init_dll          (libc065.266)
 0000:00000000  Imp  ___libc_Back_termDll (libc065.1953)
 0000:00000000  Imp  ___libc_Back_threadSleep (libc065.1490)
 0000:00000000  Imp  ___libc_ForkDeregisterModule (libc065.1954)
 0000:00000000  Imp  ___libc_ForkRegisterModule (libc065.343)
 0000:00000000  Imp  ___libc_GpFIBLIS     (libc065.5)
 0000:00000000  Imp  ___libc_TLSAlloc     (libc065.369)
 0000:00000000  Imp  ___libc_TLSDestructor (libc065.370)
 0000:00000000  Imp  ___libc_TLSGet       (libc065.372)
 0000:00000000  Imp  ___libc_TLSSet       (libc065.374)
 0000:00000000  Imp  ___moddi3            (gcc446.___moddi3)
 0002:0001F2F0       ___new_handler
 0000:00000000  Imp  ___register_frame_table (gcc446.___register_frame_table)


 Address         Publics by Value
 0000:00000000  Imp  __std_malloc         (libc065.856)
 0000:00000000  Imp  __std_ferror         (libc065.744)
 0000:00000000  Imp  __ZN10QBoxLayout9addLayoutEP7QLayouti (QtGui4.__ZN10QBoxLayout9addLayoutEP7QLayouti)
 0000:00000000  Imp  __ZN8QPainter9translateERK7QPointF (QtGui4.__ZN8QPainter9translateERK7QPointF)
 0000:00000000  Imp  __ZNK19QStyledItemDelegate15initStyleOptionEP20QStyleOptionViewItemRK11QModelIndex (QtGui4.__ZNK19QStyledItemDelegate15initStyleOptionEP20QStyleOptionViewItemRK11QModelIndex)
 0000:00000000  Imp  __ZN7QObject10disconnectEPKS_PKcS1_S3_ (QtCore4.__ZN7QObject10disconnectEPKS_PKcS1_S3_)
 0000:00000000  Imp  __ZNK8QVariant5toIntEPb (QtCore4.__ZNK8QVariant5toIntEPb)
 0000:00000000  Imp  __std_fclose         (libc065.740)
 0000:00000000  Imp  __ZN9QLineEdit14dragEnterEventEP15QDragEnterEvent (QtGui4.__ZN9QLineEdit14dragEnterEventEP15QDragEnterEvent)
 0000:00000000  Imp  __ZNK7QString11lastIndexOfE5QChariN2Qt15CaseSensitivityE (QtCore4.__ZNK7QString11lastIndexOfE5QChariN2Qt15CaseSensitivityE)
 0000:00000000  Imp  __ZNK13QItemDelegate13setEditorDataEP7QWidgetRK11QModelIndex (QtGui4.__ZNK13QItemDelegate13setEditorDataEP7QWidgetRK11QModelIndex)
 0000:00000000  Imp  __ZN5QMenu17mouseReleaseEventEP11QMouseEvent (QtGui4.__ZN5QMenu17mouseReleaseEventEP11QMouseEvent)
 0000:00000000  Imp  __atfork_callback    (libc065.445)
 0000:00000000  Imp  __ZNK12QKeySequenceixEj (QtGui4.__ZNK12QKeySequenceixEj)
 0000:00000000  Imp  __Unwind_Resume      (gcc446.__Unwind_Resume)
 0000:00000000  Imp  __ZN11QTextCursor6selectENS_13SelectionTypeE (QtGui4.__ZN11QTextCursor6selectENS_13SelectionTypeE)
 0000:00000000  Imp  __ZN12QDomDocument10setContentERK10QByteArraybP7QStringPiS5_ (QtXml4.__ZN12QDomDocument10setContentERK10QByteArraybP7QStringPiS5_)
 0000:00000000  Imp  __ZNK7QLayout18getContentsMarginsEPiS0_S0_S0_ (QtGui4.__ZNK7QLayout18getContentsMarginsEPiS0_S0_S0_)
 0000:00000000  Imp  __ZN9QTextEdit9dropEventEP10QDropEvent (QtGui4.__ZN9QTextEdit9dropEventEP10QDropEvent)
 0000:00000000  Imp  __ZN6QTimerD1Ev      (QtCore4.__ZN6QTimerD1Ev)
 0000:00000000  Imp  __ZN9QtPrivate16QStringList_joinEPK11QStringListRK7QString (QtCore4.__ZN9QtPrivate16QStringList_joinEPK11QStringListRK7QString)
 0000:00000000  Imp  __ZN9QTextEdit13dragMoveEventEP14QDragMoveEvent (QtGui4.__ZN9QTextEdit13dragMoveEventEP14QDragMoveEvent)
 0000:00000000  Imp  __std_strlen         (libc065.1009)
 0000:00000000  Imp  __ZNK6QImage14scaledToHeightEiN2Qt18TransformationModeE (QtGui4.__ZNK6QImage14scaledToHeightEiN2Qt18TransformationModeE)
 0000:00000000  Imp  __ZN7QLayout18setContentsMarginsEiiii (QtGui4.__ZN7QLayout18setContentsMarginsEiiii)
 0000:00000000  Imp  __std_fwrite         (libc065.785)
 0000:00000000  Imp  __ZN18QCryptographicHash4hashERK10QByteArrayNS_9AlgorithmE (QtCore4.__ZN18QCryptographicHash4hashERK10QByteArrayNS_9AlgorithmE)
 0000:00000000  Imp  __ZN9QTextEdit14dragLeaveEventEP15QDragLeaveEvent (QtGui4.__ZN9QTextEdit14dragLeaveEventEP15QDragLeaveEvent)
 0000:00000000  Imp  __std_memcpy         (libc065.864)
 0000:00000000  Imp  __ZNK7QAction10autoRepeatEv (QtGui4.__ZNK7QAction10autoRepeatEv)
 0000:00000000  Imp  __ZN15QAbstractButton12focusInEventEP11QFocusEvent (QtGui4.__ZN15QAbstractButton12focusInEventEP11QFocusEvent)
 0000:00000000  Imp  __ZNK13QItemDelegate20updateEditorGeometryEP7QWidgetRK20QStyleOptionViewItemRK11QModelIndex (QtGui4.__ZNK13QItemDelegate20updateEditorGeometryEP7QWidgetRK20QStyleOptionViewItemRK11QModelIndex)
 0000:00000000  Imp  __std_ftello         (libc065.781)
 0000:00000000  Imp  __ZNK12QKeySequence8toStringENS_14SequenceFormatE (QtGui4.__ZNK12QKeySequence8toStringENS_14SequenceFormatE)
 0000:00000000  Imp  __ZN9QListData7append2ERKS_ (QtCore4.__ZN9QListData7append2ERKS_)
 0000:00000000  Imp  __ZNK12QImageReader7canReadEv (QtGui4.__ZNK12QImageReader7canReadEv)
 0000:00000000  Imp  __ZN9QTextEdit9showEventEP10QShowEvent (QtGui4.__ZN9QTextEdit9showEventEP10QShowEvent)
 0000:00000000  Imp  __ZNK8QDomNode10firstChildEv (QtXml4.__ZNK8QDomNode10firstChildEv)
 0000:00000000  Imp  __ZN16QCoreApplication4selfE (QtCore4.__ZN16QCoreApplication4selfE)
 0000:00000000  Imp  __ZNK11QDomElement4textEv (QtXml4.__ZNK11QDomElement4textEv)
 0000:00000000  Imp  __ZNK10QByteArray5toIntEPbi (QtCore4.__ZNK10QByteArray5toIntEPbi)
 0000:00000000  Imp  __ZN12QTextBrowser10paintEventEP11QPaintEvent (QtGui4.__ZN12QTextBrowser10paintEventEP11QPaintEvent)
 0000:00000000  Imp  __ZNK8QDomNode18nextSiblingElementERK7QString (QtXml4.__ZNK8QDomNode18nextSiblingElementERK7QString)
 0000:00000000  Imp  __ZNK7QRegExp7indexInERK7QStringiNS_9CaretModeE (QtCore4.__ZNK7QRegExp7indexInERK7QStringiNS_9CaretModeE)
 0000:00000000  Imp  __ZN5QTimeC1Eiiii    (QtCore4.__ZN5QTimeC1Eiiii)
 0000:00000000  Imp  __ZN8QToolBar12insertWidgetEP7QActionP7QWidget (QtGui4.__ZN8QToolBar12insertWidgetEP7QActionP7QWidget)
 0000:00000000  Imp  ___libc_GpFIBLIS     (libc065.5)
 0000:00000000  Imp  ___init_dll          (libc065.266)
 0000:00000000  Imp  __ZNK6QImage12alphaChannelEv (QtGui4.__ZNK6QImage12alphaChannelEv)
 0000:00000000  Imp  __ZNK21QTextDocumentFragment7isEmptyEv (QtGui4.__ZNK21QTextDocumentFragment7isEmptyEv)
 0000:00000000  Imp  __ZN8QPainter10setOpacityEd (QtGui4.__ZN8QPainter10setOpacityEd)
 0000:00000000  Imp  __ZNK11QTextFormat4typeEv (QtGui4.__ZNK11QTextFormat4typeEv)
 0000:00000000  Imp  __ZN19QStyledItemDelegate11eventFilterEP7QObjectP6QEvent (QtGui4.__ZN19QStyledItemDelegate11eventFilterEP7QObjectP6QEvent)
 0000:00000000  Imp  __ZN6QMovieC1ERK7QStringRK10QByteArrayP7QObject (QtGui4.__ZN6QMovieC1ERK7QStringRK10QByteArrayP7QObject)
 0000:00000000  Imp  __ZNK7QAction11actionGroupEv (QtGui4.__ZNK7QAction11actionGroupEv)
 0000:00000000  Imp  __std_memset         (libc065.867)
 0000:00000000  Imp  __ZNK15QAbstractButton4iconEv (QtGui4.__ZNK15QAbstractButton4iconEv)
 0000:00000000  Imp  __ZN8QVariantC1ERK6QPoint (QtCore4.__ZN8QVariantC1ERK6QPoint)
 0000:00000000  Imp  __ZN9QLineEdit17mouseReleaseEventEP11QMouseEvent (QtGui4.__ZN9QLineEdit17mouseReleaseEventEP11QMouseEvent)
 0000:00000000  Imp  __ZN5QMenu24setSeparatorsCollapsibleEb (QtGui4.__ZN5QMenu24setSeparatorsCollapsibleEb)
 0000:00000000  Imp  __ZN9QListData7prependEv (QtCore4.__ZN9QListData7prependEv)
 0000:00000000  Imp  __ZN9QListData6removeEi (QtCore4.__ZN9QListData6removeEi)
 0000:00000000  Imp  __ZNK9QTextEdit8documentEv (QtGui4.__ZNK9QTextEdit8documentEv)
 0000:00000000  Imp  __ZN7QAction12setStatusTipERK7QString (QtGui4.__ZN7QAction12setStatusTipERK7QString)
 0000:00000000  Imp  __ZN7QString8fromUtf8EPKci (QtCore4.__ZN7QString8fromUtf8EPKci)
 0000:00000000  Imp  __ZNK10QByteArray8toBase64Ev (QtCore4.__ZNK10QByteArray8toBase64Ev)
 0000:00000000  Imp  __ZN8QPainter15drawRoundedRectERK6QRectFddN2Qt8SizeModeE (QtGui4.__ZN8QPainter15drawRoundedRectERK6QRectFddN2Qt8SizeModeE)
 0000:00000000  Imp  __ZNK8QVariant6toBoolEv (QtCore4.__ZNK8QVariant6toBoolEv)
 0000:00000000  Imp  __ZN9QLineEdit13dragMoveEventEP14QDragMoveEvent (QtGui4.__ZN9QLineEdit13dragMoveEventEP14QDragMoveEvent)
 0000:00000000  Imp  __ZN9QLineEdit14dragLeaveEventEP15QDragLeaveEvent (QtGui4.__ZN9QLineEdit14dragLeaveEventEP15QDragLeaveEvent)
 0000:00000000  Imp  __ZN8QPainter18setCompositionModeENS_15CompositionModeE (QtGui4.__ZN8QPainter18setCompositionModeENS_15CompositionModeE)
 0000:00000000  Imp  __ZNK9QLineEdit8sizeHintEv (QtGui4.__ZNK9QLineEdit8sizeHintEv)
 0000:00000000  Imp  __ZNK13QTextDocument14documentLayoutEv (QtGui4.__ZNK13QTextDocument14documentLayoutEv)
 0000:00000000  Imp  __ZN7QAction18setShortcutContextEN2Qt15ShortcutContextE (QtGui4.__ZN7QAction18setShortcutContextEN2Qt15ShortcutContextE)
 0000:00000000  Imp  __ZN15QAbstractButton11qt_metacastEPKc (QtGui4.__ZN15QAbstractButton11qt_metacastEPKc)
 0000:00000000  Imp  __ZNK8QVariant6toRectEv (QtCore4.__ZNK8QVariant6toRectEv)
 0000:00000000  Imp  __ZN7QStringD1Ev     (QtCore4.__ZN7QStringD1Ev)
 0000:00000000  Imp  ___libc_ForkRegisterModule (libc065.343)
 0000:00000000  Imp  __ZN12QDomDocument15createElementNSERK7QStringS2_ (QtXml4.__ZN12QDomDocument15createElementNSERK7QStringS2_)
 0000:00000000  Imp  __ZN7QActionC2EP7QObject (QtGui4.__ZN7QActionC2EP7QObject)
 0000:00000000  Imp  __ZN9QLineEdit14mouseMoveEventEP11QMouseEvent (QtGui4.__ZN9QLineEdit14mouseMoveEventEP11QMouseEvent)
 0000:00000000  Imp  __ZNK8QVariant6toRealEPb (QtCore4.__ZNK8QVariant6toRealEPb)
 0000:00000000  Imp  __ZThn8_NK7QWidget6metricEN12QPaintDevice17PaintDeviceMetricE (QtGui4.__ZThn8_NK7QWidget6metricEN12QPaintDevice17PaintDeviceMetricE)
 0000:00000000  Imp  __ZN9QLineEdit9dropEventEP10QDropEvent (QtGui4.__ZN9QLineEdit9dropEventEP10QDropEvent)
 0000:00000000  Imp  __ZN13QItemDelegateD2Ev (QtGui4.__ZN13QItemDelegateD2Ev)
 0000:00000000  Imp  __ZN6QBrushC1Ev      (QtGui4.__ZN6QBrushC1Ev)
 0000:00000000  Imp  __ZN7QWidget11styleChangeER6QStyle (QtGui4.__ZN7QWidget11styleChangeER6QStyle)
 0000:00000000  Imp  __ZNK8QVariant6toSizeEv (QtCore4.__ZNK8QVariant6toSizeEv)
 0000:00000000  Imp  __ZN6QBrushD1Ev      (QtGui4.__ZN6QBrushD1Ev)
 0000:00000000  Imp  __ZNK7QWidget11isMaximizedEv (QtGui4.__ZNK7QWidget11isMaximizedEv)
 0000:00000000  Imp  __ZN13QWidgetActionD2Ev (QtGui4.__ZN13QWidgetActionD2Ev)
 0000:00000000  Imp  __ZN15QAbstractButton17mouseReleaseEventEP11QMouseEvent (QtGui4.__ZN15QAbstractButton17mouseReleaseEventEP11QMouseEvent)
 0000:00000000  Imp  __ZN7QObject11customEventEP6QEvent (QtCore4.__ZN7QObject11customEventEP6QEvent)
 0000:00000000  Imp  __ZN15QAbstractButton11qt_metacallEN11QMetaObject4CallEiPPv (QtGui4.__ZN15QAbstractButton11qt_metacallEN11QMetaObject4CallEiPPv)
 0000:00000000  Imp  __ZN9QListData6appendEv (QtCore4.__ZN9QListData6appendEv)
 0000:00000000  Imp  __ZNK10QStatusBar14currentMessageEv (QtGui4.__ZNK10QStatusBar14currentMessageEv)
 0000:00000000  Imp  __ZN5QMenu5eventEP6QEvent (QtGui4.__ZN5QMenu5eventEP6QEvent)
 0000:00000000  Imp  __ZNK12QDomDocument15documentElementEv (QtXml4.__ZNK12QDomDocument15documentElementEv)
 0000:00000000  Imp  __ZN19QAbstractScrollArea13viewportEventEP6QEvent (QtGui4.__ZN19QAbstractScrollArea13viewportEventEP6QEvent)
 0000:00000000  Imp  __ZNK7QAction11isSeparatorEv (QtGui4.__ZNK7QAction11isSeparatorEv)
 0000:00000000  Imp  __ZN9QListData7reallocEi (QtCore4.__ZN9QListData7reallocEi)
 0000:00000000  Imp  __ZNK10QTextBlock5beginEv (QtGui4.__ZNK10QTextBlock5beginEv)
 0000:00000000  Imp  __ZN9QIODevice7readAllEv (QtCore4.__ZN9QIODevice7readAllEv)
 0000:00000000  Imp  __std_strcmp         (libc065.1000)
 0000:00000000  Imp  __ZN8QMapData11shared_nullE (QtCore4.__ZN8QMapData11shared_nullE)
 0000:00000000  Imp  __ZN7QBufferC1EP7QObject (QtCore4.__ZN7QBufferC1EP7QObject)
 0000:00000000  Imp  __ZNK7QWidget11paintEngineEv (QtGui4.__ZNK7QWidget11paintEngineEv)
 0000:00000000  Imp  __ZNK11QDataStream6statusEv (QtCore4.__ZNK11QDataStream6statusEv)
 0000:00000000  Imp  __ZN7QRegExpD1Ev     (QtCore4.__ZN7QRegExpD1Ev)
 0000:00000000  Imp  __ZNK8QDomNode6toTextEv (QtXml4.__ZNK8QDomNode6toTextEv)
 0000:00000000  Imp  __ZNK7QWidget11isMinimizedEv (QtGui4.__ZNK7QWidget11isMinimizedEv)
 0000:00000000  Imp  __ZN15QAbstractButton10timerEventEP11QTimerEvent (QtGui4.__ZN15QAbstractButton10timerEventEP11QTimerEvent)
 0000:00000000  Imp  __ZNK8QDomNode6isTextEv (QtXml4.__ZNK8QDomNode6isTextEv)
 0000:00000000  Imp  __ZNK13QItemDelegate14drawDecorationEP8QPainterRK20QStyleOptionViewItemRK5QRectRK7QPixmap (QtGui4.__ZNK13QItemDelegate14drawDecorationEP8QPainterRK20QStyleOptionViewItemRK5QRectRK7QPixmap)
 0000:00000000  Imp  __ZN5QFont12setStyleHintENS_9StyleHintENS_13StyleStrategyE (QtGui4.__ZN5QFont12setStyleHintENS_9StyleHintENS_13StyleStrategyE)
 0000:00000000  Imp  __fmutex_create      (libc065.559)
 0000:00000000  Imp  __ZN15QAbstractButton13keyPressEventEP9QKeyEvent (QtGui4.__ZN15QAbstractButton13keyPressEventEP9QKeyEvent)
 0000:00000000  Imp  __ZN8QPainterD1Ev    (QtGui4.__ZN8QPainterD1Ev)
 0000:00000000  Imp  __ZN13QWidgetAction5eventEP6QEvent (QtGui4.__ZN13QWidgetAction5eventEP6QEvent)
 0000:00000000  Imp  __ZNK8QPainter7opacityEv (QtGui4.__ZNK8QPainter7opacityEv)
 0000:00000000  Imp  __std_strcpy         (libc065.1002)
 0000:00000000  Imp  __ZTISt9exception    (libc065.3468)
 0000:00000000  Imp  __ZN5QFile6removeERK7QString (QtCore4.__ZN5QFile6removeERK7QString)
 0000:00000000  Imp  __ZN12QTextBrowser11qt_metacallEN11QMetaObject4CallEiPPv (QtGui4.__ZN12QTextBrowser11qt_metacallEN11QMetaObject4CallEiPPv)
 0000:00000000  Imp  __ZN12QTextBrowser14mouseMoveEventEP11QMouseEvent (QtGui4.__ZN12QTextBrowser14mouseMoveEventEP11QMouseEvent)
 0000:00000000  Imp  __ZrsR11QDataStreamR7QString (QtCore4.__ZrsR11QDataStreamR7QString)
 0000:00000000  Imp  __ZN7QString4freeEPNS_4DataE (QtCore4.__ZN7QString4freeEPNS_4DataE)
 0000:00000000  Imp  __ZN7QObject11qt_metacallEN11QMetaObject4CallEiPPv (QtCore4.__ZN7QObject11qt_metacallEN11QMetaObject4CallEiPPv)
 0000:00000000  Imp  ___ctordtorTerm1     (libc065.232)
 0000:00000000  Imp  __ZN13QWidgetAction12deleteWidgetEP7QWidget (QtGui4.__ZN13QWidgetAction12deleteWidgetEP7QWidget)
 0000:00000000  Imp  __ZN5QMenu16staticMetaObjectE (QtGui4.__ZN5QMenu16staticMetaObjectE)
 0000:00000000  Imp  __ZN7QAction11qt_metacallEN11QMetaObject4CallEiPPv (QtGui4.__ZN7QAction11qt_metacallEN11QMetaObject4CallEiPPv)
 0000:00000000  Imp  __ZN13QNetworkReply16staticMetaObjectE (QtNet4.__ZN13QNetworkReply16staticMetaObjectE)
 0000:00000000  Imp  __ZN11QMetaObject11removeGuardEPP7QObject (QtCore4.__ZN11QMetaObject11removeGuardEPP7QObject)
 0000:00000000  Imp  __ZN7QAction14setActionGroupEP12QActionGroup (QtGui4.__ZN7QAction14setActionGroupEP12QActionGroup)
 0000:00000000  Imp  __ZNK5QMenu8sizeHintEv (QtGui4.__ZNK5QMenu8sizeHintEv)
 0000:00000000  Imp  __ZN5QMenu11actionEventEP12QActionEvent (QtGui4.__ZN5QMenu11actionEventEP12QActionEvent)
 0000:00000000  Imp  __ZN11QToolButton16setDefaultActionEP7QAction (QtGui4.__ZN11QToolButton16setDefaultActionEP7QAction)
 0000:00000000  Imp  __ZN13QTextDocument7setHtmlERK7QString (QtGui4.__ZN13QTextDocument7setHtmlERK7QString)
 0000:00000000  Imp  __ZN5QMenu7setIconERK5QIcon (QtGui4.__ZN5QMenu7setIconERK5QIcon)
 0000:00000000  Imp  __ZN15QAbstractButton7setIconERK5QIcon (QtGui4.__ZN15QAbstractButton7setIconERK5QIcon)
 0000:00000000  Imp  __ZNK8QDomNode17firstChildElementERK7QString (QtXml4.__ZNK8QDomNode17firstChildElementERK7QString)
 0000:00000000  Imp  __ZNK9QLineEdit14getTextMarginsEPiS0_S0_S0_ (QtGui4.__ZNK9QLineEdit14getTextMarginsEPiS0_S0_S0_)
 0000:00000000  Imp  __ZN5QMenu11qt_metacastEPKc (QtGui4.__ZN5QMenu11qt_metacastEPKc)
 0000:00000000  Imp  __ZNK9QTextEdit21canInsertFromMimeDataEPK9QMimeData (QtGui4.__ZNK9QTextEdit21canInsertFromMimeDataEPK9QMimeData)
 0000:00000000  Imp  ___fmutex_request_internal (libc065.249)
 0000:00000000  Imp  __ZN6QEvent17registerEventTypeEi (QtCore4.__ZN6QEvent17registerEventTypeEi)
 0000:00000000  Imp  ___ctordtorInit1     (libc065.231)
 0000:00000000  Imp  __ZN7QObject10childEventEP11QChildEvent (QtCore4.__ZN7QObject10childEventEP11QChildEvent)
 0000:00000000  Imp  __std_fseek          (libc065.773)
 0000:00000000  Imp  __ZN7QObject11deleteLaterEv (QtCore4.__ZN7QObject11deleteLaterEv)
 0000:00000000  Imp  __ZN12QTextBrowser6reloadEv (QtGui4.__ZN12QTextBrowser6reloadEv)
 0000:00000000  Imp  __ZN7QWidget6resizeERK5QSize (QtGui4.__ZN7QWidget6resizeERK5QSize)
 0000:00000000  Imp  __ZNK15QAbstractSlider5valueEv (QtGui4.__ZNK15QAbstractSlider5valueEv)
 0000:00000000  Imp  __ZN10QByteArray6appendERKS_ (QtCore4.__ZN10QByteArray6appendERKS_)
 0000:00000000  Imp  __ZN12QTextBrowser7forwardEv (QtGui4.__ZN12QTextBrowser7forwardEv)
 0000:00000000  Imp  __ZN7QWidget13dragMoveEventEP14QDragMoveEvent (QtGui4.__ZN7QWidget13dragMoveEventEP14QDragMoveEvent)
 0000:00000000  Imp  __ZNK9QLineEdit4textEv (QtGui4.__ZNK9QLineEdit4textEv)
 0000:00000000  Imp  __ZN4QUrlD1Ev        (QtCore4.__ZN4QUrlD1Ev)
 0000:00000000  Imp  __ZN7QString7reallocEv (QtCore4.__ZN7QString7reallocEv)
 0000:00000000  Imp  __ZN4QUrlC1Ev        (QtCore4.__ZN4QUrlC1Ev)
 0000:00000000  Imp  __ZN6QImage4fillEj   (QtGui4.__ZN6QImage4fillEj)
 0000:00000000  Imp  __ZN11QTextCursor12movePositionENS_13MoveOperationENS_8MoveModeEi (QtGui4.__ZN11QTextCursor12movePositionENS_13MoveOperationENS_8MoveModeEi)
 0000:00000000  Imp  __ZN12QDomDocument13createElementERK7QString (QtXml4.__ZN12QDomDocument13createElementERK7QString)
 0000:00000000  Imp  __ZN7QObject5eventEP6QEvent (QtCore4.__ZN7QObject5eventEP6QEvent)
 0000:00000000  Imp  __ZN13QWidgetAction11eventFilterEP7QObjectP6QEvent (QtGui4.__ZN13QWidgetAction11eventFilterEP7QObjectP6QEvent)
 0000:00000000  Imp  __ZrsR11QDataStreamR8QVariant (QtCore4.__ZrsR11QDataStreamR8QVariant)
 0000:00000000  Imp  __ZN5QIcon9addPixmapERK7QPixmapNS_4ModeENS_5StateE (QtGui4.__ZN5QIcon9addPixmapERK7QPixmapNS_4ModeENS_5StateE)
 0000:00000000  Imp  __ZN7QWidget13enabledChangeEb (QtGui4.__ZN7QWidget13enabledChangeEb)
 0000:00000000  Imp  __ZNK5QIcon14availableSizesENS_4ModeENS_5StateE (QtGui4.__ZNK5QIcon14availableSizesENS_4ModeENS_5StateE)
 0000:00000000  Imp  __ZNK11QLayoutItem17hasHeightForWidthEv (QtGui4.__ZNK11QLayoutItem17hasHeightForWidthEv)
 0000:00000000  Imp  __ZN12QImageReaderC1ERK7QStringRK10QByteArray (QtGui4.__ZN12QImageReaderC1ERK7QStringRK10QByteArray)
 0000:00000000  Imp  __ZTSSt9exception    (libc065.3489)
 0000:00000000  Imp  __ZNK8QVariant11toByteArrayEv (QtCore4.__ZNK8QVariant11toByteArrayEv)
 0000:00000000  Imp  ___fmutex_request_internal_must_complete (libc065.250)
 0000:00000000  Imp  __ZNK8QDomNode11nextSiblingEv (QtXml4.__ZNK8QDomNode11nextSiblingEv)
 0000:00000000  Imp  __ZNK7QString7indexOfE5QChariN2Qt15CaseSensitivityE (QtCore4.__ZNK7QString7indexOfE5QChariN2Qt15CaseSensitivityE)
 0000:00000000  Imp  __ZN5QFile6existsERK7QString (QtCore4.__ZN5QFile6existsERK7QString)
 0000:00000000  Imp  __ZN7QWidget21mouseDoubleClickEventEP11QMouseEvent (QtGui4.__ZN7QWidget21mouseDoubleClickEventEP11QMouseEvent)
 0000:00000000  Imp  __ZlsR11QDataStreamRK7QString (QtCore4.__ZlsR11QDataStreamRK7QString)
 0000:00000000  Imp  __ZN7QObjectC2EPS_   (QtCore4.__ZN7QObjectC2EPS_)
 0000:00000000  Imp  __std_fread          (libc065.767)
 0000:00000000  Imp  __ZN9QHashData6rehashEi (QtCore4.__ZN9QHashData6rehashEi)
 0000:00000000  Imp  __ZN6QMovieC1EP9QIODeviceRK10QByteArrayP7QObject (QtGui4.__ZN6QMovieC1EP9QIODeviceRK10QByteArrayP7QObject)
 0000:00000000  Imp  __ZN11QDomElementC1ERKS_ (QtXml4.__ZN11QDomElementC1ERKS_)
 0000:00000000  Imp  __ZN12QTextBrowser13focusOutEventEP11QFocusEvent (QtGui4.__ZN12QTextBrowser13focusOutEventEP11QFocusEvent)
 0000:00000000  Imp  __std_fseeko         (libc065.774)
 0000:00000000  Imp  __ZN7QWidget9setCursorERK7QCursor (QtGui4.__ZN7QWidget9setCursorERK7QCursor)
 0000:00000000  Imp  __Unwind_Resume_or_Rethrow (gcc446.__Unwind_Resume_or_Rethrow)
 0000:00000000  Imp  __ZN7QString6removeE5QCharN2Qt15CaseSensitivityE (QtCore4.__ZN7QString6removeE5QCharN2Qt15CaseSensitivityE)
 0000:00000000  Imp  __ZN24QAbstractEventDispatcher8instanceEP7QThread (QtCore4.__ZN24QAbstractEventDispatcher8instanceEP7QThread)
 0000:00000000  Imp  ___fmutex_release_internal (libc065.247)
 0000:00000000  Imp  __ZNK8QDomNode10parentNodeEv (QtXml4.__ZNK8QDomNode10parentNodeEv)
 0000:00000000  Imp  __ZN11QMetaObject8activateEP7QObjectPKS_iPPv (QtCore4.__ZN11QMetaObject8activateEP7QObjectPKS_iPPv)
 0000:00000000  Imp  __ZN5QIconC1ERKS_    (QtGui4.__ZN5QIconC1ERKS_)
 0000:00000000  Imp  __ZN9QHashData8nextNodeEPNS_4NodeE (QtCore4.__ZN9QHashData8nextNodeEPNS_4NodeE)
 0000:00000000  Imp  __ZNK8QDomNode10toDocumentEv (QtXml4.__ZNK8QDomNode10toDocumentEv)
 0000:00000000  Imp  ___libc_TLSAlloc     (libc065.369)
 0000:00000000  Imp  __ZN9QLineEdit5eventEP6QEvent (QtGui4.__ZN9QLineEdit5eventEP6QEvent)
 0000:00000000  Imp  __ZN9QTextEdit14dragEnterEventEP15QDragEnterEvent (QtGui4.__ZN9QTextEdit14dragEnterEventEP15QDragEnterEvent)
 0000:00000000  Imp  __ZN7QObject16disconnectNotifyEPKc (QtCore4.__ZN7QObject16disconnectNotifyEPKc)
 0000:00000000  Imp  __ZN8QPainter11setClippingEb (QtGui4.__ZN8QPainter11setClippingEb)
 0000:00000000  Imp  __ZN11QLayoutItem12setAlignmentE6QFlagsIN2Qt13AlignmentFlagEE (QtGui4.__ZN11QLayoutItem12setAlignmentE6QFlagsIN2Qt13AlignmentFlagEE)
 0000:00000000  Imp  __std_atexit         (libc065.667)
 0000:00000000  Imp  __ZNK19QStyledItemDelegate11displayTextERK8QVariantRK7QLocale (QtGui4.__ZNK19QStyledItemDelegate11displayTextERK8QVariantRK7QLocale)
 0000:00000000  Imp  __ZN9QListData6detachEi (QtCore4.__ZN9QListData6detachEi)
 0000:00000000  Imp  __ZN9QTextEdit15keyReleaseEventEP9QKeyEvent (QtGui4.__ZN9QTextEdit15keyReleaseEventEP9QKeyEvent)
 0000:00000000  Imp  __ZN9QLineEdit13focusOutEventEP11QFocusEvent (QtGui4.__ZN9QLineEdit13focusOutEventEP11QFocusEvent)
 0000:00000000  Imp  __Z5qFreePv          (QtCore4.__Z5qFreePv)
 0000:00000000  Imp  __ZNK10QTextBlock4nextEv (QtGui4.__ZNK10QTextBlock4nextEv)
 0000:00000000  Imp  __ZN12QImageReader4readEv (QtGui4.__ZN12QImageReader4readEv)
 0000:00000000  Imp  __ZNK7QWidget6metricEN12QPaintDevice17PaintDeviceMetricE (QtGui4.__ZNK7QWidget6metricEN12QPaintDevice17PaintDeviceMetricE)
 0000:00000000  Imp  __ZN5QFontC1ERKS_    (QtGui4.__ZN5QFontC1ERKS_)
 0000:00000000  Imp  __ZNK4QDir9entryListE6QFlagsINS_6FilterEES0_INS_8SortFlagEE (QtCore4.__ZNK4QDir9entryListE6QFlagsINS_6FilterEES0_INS_8SortFlagEE)
 0000:00000000  Imp  __ZN11QToolButtonC1EP7QWidget (QtGui4.__ZN11QToolButtonC1EP7QWidget)
 0000:00000000  Imp  __ZNK13QNetworkReply5errorEv (QtNet4.__ZNK13QNetworkReply5errorEv)
 0000:00000000  Imp  __ZN5QFontaSERKS_    (QtGui4.__ZN5QFontaSERKS_)
 0000:00000000  Imp  __ZN9QShortcut6setKeyERK12QKeySequence (QtGui4.__ZN9QShortcut6setKeyERK12QKeySequence)
 0000:00000000  Imp  __ZN7QWidget22windowActivationChangeEb (QtGui4.__ZN7QWidget22windowActivationChangeEb)
 0000:00000000  Imp  __ZN11QHBoxLayoutC1EP7QWidget (QtGui4.__ZN11QHBoxLayoutC1EP7QWidget)
 0000:00000000  Imp  __ZN8QVariantC1ERK5QSize (QtCore4.__ZN8QVariantC1ERK5QSize)
 0000:00000000  Imp  __ZN19QStyledItemDelegateD2Ev (QtGui4.__ZN19QStyledItemDelegateD2Ev)
 0000:00000000  Imp  __ZTSSt9bad_alloc    (libc065.3469)
 0000:00000000  Imp  __std_fopen          (libc065.760)
 0000:00000000  Imp  __ZTISt9bad_alloc    (libc065.3428)
 0000:00000000  Imp  __std_ftell          (libc065.780)
 0000:00000000  Imp  __ZN5QFile5closeEv   (QtCore4.__ZN5QFile5closeEv)
 0000:00000000  Imp  __ZN7QObject12blockSignalsEb (QtCore4.__ZN7QObject12blockSignalsEb)
 0000:00000000  Imp  __ZNK4QDir9entryListERK11QStringList6QFlagsINS_6FilterEES3_INS_8SortFlagEE (QtCore4.__ZNK4QDir9entryListERK11QStringList6QFlagsINS_6FilterEES3_INS_8SortFlagEE)
 0000:00000000  Imp  __ZN9QListData11shared_nullE (QtCore4.__ZN9QListData11shared_nullE)
 0000:00000000  Imp  __ZN9QMetaType12registerTypeEPKcPFvPvEPFS2_PKvE (QtCore4.__ZN9QMetaType12registerTypeEPKcPFvPvEPFS2_PKvE)
 0000:00000000  Imp  __std_abort          (libc065.653)
 0000:00000000  Imp  __ZN12QApplication7desktopEv (QtGui4.__ZN12QApplication7desktopEv)
 0000:00000000  Imp  __ZNK4QUrleqERKS_    (QtCore4.__ZNK4QUrleqERKS_)
 0000:00000000  Imp  __ZN7QAction12setCheckableEb (QtGui4.__ZN7QAction12setCheckableEb)
 0000:00000000  Imp  __ZN9QHashData11shared_nullE (QtCore4.__ZN9QHashData11shared_nullE)
 0000:00000000  Imp  __ZN12QDomDocument14createTextNodeERK7QString (QtXml4.__ZN12QDomDocument14createTextNodeERK7QString)
 0000:00000000  Imp  __ZN5QIconaSERKS_    (QtGui4.__ZN5QIconaSERKS_)
 0000:00000000  Imp  __ZNK10QStringRef8toStringEv (QtCore4.__ZNK10QStringRef8toStringEv)
 0000:00000000  Imp  __ZN7QAction7setMenuEP5QMenu (QtGui4.__ZN7QAction7setMenuEP5QMenu)
 0000:00000000  Imp  __ZN5QMenu5clearEv   (QtGui4.__ZN5QMenu5clearEv)
 0000:00000000  Imp  __ZN4QUrlaSERKS_     (QtCore4.__ZN4QUrlaSERKS_)
 0000:00000000  Imp  __ZNK8QVariant3cmpERKS_ (QtCore4.__ZNK8QVariant3cmpERKS_)
 0000:00000000  Imp  __ZNK11QMetaObject2trEPKcS1_ (QtCore4.__ZNK11QMetaObject2trEPKcS1_)
 0000:00000000  Imp  __ZN6QTimerC1EP7QObject (QtCore4.__ZN6QTimerC1EP7QObject)
 0000:00000000  Imp  __ZNK7QAction9statusTipEv (QtGui4.__ZNK7QAction9statusTipEv)
 0000:00000000  Imp  __ZNK5QDate8toStringEN2Qt10DateFormatE (QtCore4.__ZNK5QDate8toStringEN2Qt10DateFormatE)
 0000:00000000  Imp  __ZN5QIconC1Ev       (QtGui4.__ZN5QIconC1Ev)
 0000:00000000  Imp  __ZN5QFontD1Ev       (QtGui4.__ZN5QFontD1Ev)
 0000:00000000  Imp  __ZNK5QTime8toStringEN2Qt10DateFormatE (QtCore4.__ZNK5QTime8toStringEN2Qt10DateFormatE)
 0000:00000000  Imp  __ZN7QBuffer7setDataERK10QByteArray (QtCore4.__ZN7QBuffer7setDataERK10QByteArray)
 0000:00000000  Imp  __ZN9QTextEdit18insertFromMimeDataEPK9QMimeData (QtGui4.__ZN9QTextEdit18insertFromMimeDataEPK9QMimeData)
 0000:00000000  Imp  __ZN12QStyleOptionaSERKS_ (QtGui4.__ZN12QStyleOptionaSERKS_)
 0000:00000000  Imp  __ZN7QString16fromAscii_helperEPKci (QtCore4.__ZN7QString16fromAscii_helperEPKci)
 0000:00000000  Imp  __ZN9QLineEdit14setTextMarginsEiiii (QtGui4.__ZN9QLineEdit14setTextMarginsEiiii)
 0000:00000000  Imp  __ZNK7QAction8iconTextEv (QtGui4.__ZNK7QAction8iconTextEv)
 0000:00000000  Imp  __ZN7QAction10setEnabledEb (QtGui4.__ZN7QAction10setEnabledEb)
 0000:00000000  Imp  ___libc_Back_threadSleep (libc065.1490)
 0000:00000000  Imp  __ZN7QWidget9hideEventEP10QHideEvent (QtGui4.__ZN7QWidget9hideEventEP10QHideEvent)
 0000:00000000  Imp  __ZNK9QDateTime6isNullEv (QtCore4.__ZNK9QDateTime6isNullEv)
 0000:00000000  Imp  __ZN5QTime10fromStringERK7QStringS2_ (QtCore4.__ZN5QTime10fromStringERK7QStringS2_)
 0000:00000000  Imp  __ZN9QTextEdit16scrollContentsByEii (QtGui4.__ZN9QTextEdit16scrollContentsByEii)
 0000:00000000  Imp  __ZN15QAbstractButton12animateClickEi (QtGui4.__ZN15QAbstractButton12animateClickEi)
 0000:00000000  Imp  __ZN8QPainter10drawPixmapERK7QPointFRK7QPixmap (QtGui4.__ZN8QPainter10drawPixmapERK7QPointFRK7QPixmap)
 0000:00000000  Imp  __ZNK13QItemDelegate9drawCheckEP8QPainterRK20QStyleOptionViewItemRK5QRectN2Qt10CheckStateE (QtGui4.__ZNK13QItemDelegate9drawCheckEP8QPainterRK20QStyleOptionViewItemRK5QRectN2Qt10CheckStateE)
 0000:00000000  Imp  __ZNK6QImage9byteCountEv (QtGui4.__ZNK6QImage9byteCountEv)
 0000:00000000  Imp  __ZN5QFontC1Ev       (QtGui4.__ZN5QFontC1Ev)
 0000:00000000  Imp  __ZN11QDomElementaSERKS_ (QtXml4.__ZN11QDomElementaSERKS_)
 0000:00000000  Imp  __ZN7QObject7connectEPKS_PKcS1_S3_N2Qt14ConnectionTypeE (QtCore4.__ZN7QObject7connectEPKS_PKcS1_S3_N2Qt14ConnectionTypeE)
 0000:00000000  Imp  __ZN12QFontMetricsaSERKS_ (QtGui4.__ZN12QFontMetricsaSERKS_)
 0000:00000000  Imp  __ZNK7QString5splitERKS_NS_13SplitBehaviorEN2Qt15CaseSensitivityE (QtCore4.__ZNK7QString5splitERKS_NS_13SplitBehaviorEN2Qt15CaseSensitivityE)
 0000:00000000  Imp  __ZN5QIconD1Ev       (QtGui4.__ZN5QIconD1Ev)
 0000:00000000  Imp  __ZN12QApplication5styleEv (QtGui4.__ZN12QApplication5styleEv)
 0000:00000000  Imp  __ZNK7QAction9whatsThisEv (QtGui4.__ZNK7QAction9whatsThisEv)
 0000:00000000  Imp  __ZNK7QString7trimmedEv (QtCore4.__ZNK7QString7trimmedEv)
 0000:00000000  Imp  __ZNK7QString8rightRefEi (QtCore4.__ZNK7QString8rightRefEi)
 0000:00000000  Imp  __ZN5QMenu10timerEventEP11QTimerEvent (QtGui4.__ZN5QMenu10timerEventEP11QTimerEvent)
 0000:00000000  Imp  __ZN16QDomNamedNodeMapD1Ev (QtXml4.__ZN16QDomNamedNodeMapD1Ev)
 0000:00000000  Imp  __ZN10QByteArrayaSERKS_ (QtCore4.__ZN10QByteArrayaSERKS_)
 0000:00000000  Imp  __ZN5QFileD1Ev       (QtCore4.__ZN5QFileD1Ev)
 0000:00000000  Imp  __ZNK9QLineEdit16inputMethodQueryEN2Qt16InputMethodQueryE (QtGui4.__ZNK9QLineEdit16inputMethodQueryEN2Qt16InputMethodQueryE)
 0000:00000000  Imp  __ZN15QAbstractButtonD2Ev (QtGui4.__ZN15QAbstractButtonD2Ev)
 0000:00000000  Imp  __ZN6QBrushC1EN2Qt11GlobalColorENS0_10BrushStyleE (QtGui4.__ZN6QBrushC1EN2Qt11GlobalColorENS0_10BrushStyleE)
 0000:00000000  Imp  __ZN10QByteArray7reallocEi (QtCore4.__ZN10QByteArray7reallocEi)
 0000:00000000  Imp  __ZNK11QToolButton15toolButtonStyleEv (QtGui4.__ZNK11QToolButton15toolButtonStyleEv)
 0000:00000000  Imp  __ZN10QStatusBar18addPermanentWidgetEP7QWidgeti (QtGui4.__ZN10QStatusBar18addPermanentWidgetEP7QWidgeti)
 0000:00000000  Imp  __ZN7QAction10setVisibleEb (QtGui4.__ZN7QAction10setVisibleEb)
 0000:00000000  Imp  __ZN5QFileC1ERK7QString (QtCore4.__ZN5QFileC1ERK7QString)
 0000:00000000  Imp  __ZNK7QAction8menuRoleEv (QtGui4.__ZNK7QAction8menuRoleEv)
 0000:00000000  Imp  __ZN12QDomDocumentC1ERKS_ (QtXml4.__ZN12QDomDocumentC1ERKS_)
 0000:00000000  Imp  __ZN6QColor6setRgbEiiii (QtGui4.__ZN6QColor6setRgbEiiii)
 0000:00000000  Imp  __ZNK8QDomNode9isElementEv (QtXml4.__ZNK8QDomNode9isElementEv)
 0000:00000000  Imp  _inflateInit2_       (QtCore4._inflateInit2_)
 0000:00000000  Imp  __ZNK13QNetworkReply3urlEv (QtNet4.__ZNK13QNetworkReply3urlEv)
 0000:00000000  Imp  __ZNK5QIconcv8QVariantEv (QtGui4.__ZNK5QIconcv8QVariantEv)
 0000:00000000  Imp  __ZNK8QDomNode9toElementEv (QtXml4.__ZNK8QDomNode9toElementEv)
 0000:00000000  Imp  __ZN9QMetaType15registerTypedefEPKci (QtCore4.__ZN9QMetaType15registerTypedefEPKci)
 0000:00000000  Imp  __ZN13QItemDelegate11qt_metacallEN11QMetaObject4CallEiPPv (QtGui4.__ZN13QItemDelegate11qt_metacallEN11QMetaObject4CallEiPPv)
 0000:00000000  Imp  __ZN13QWidgetAction11qt_metacallEN11QMetaObject4CallEiPPv (QtGui4.__ZN13QWidgetAction11qt_metacallEN11QMetaObject4CallEiPPv)
 0000:00000000  Imp  __ZNK9QLineEdit15minimumSizeHintEv (QtGui4.__ZNK9QLineEdit15minimumSizeHintEv)
 0000:00000000  Imp  __ZN5QMenu10paintEventEP11QPaintEvent (QtGui4.__ZN5QMenu10paintEventEP11QPaintEvent)
 0000:00000000  Imp  __ZNK7QAction9isCheckedEv (QtGui4.__ZNK7QAction9isCheckedEv)
 0000:00000000  Imp  __ZNK7QAction9isEnabledEv (QtGui4.__ZNK7QAction9isEnabledEv)
 0000:00000000  Imp  __ZN12QTextBrowser4homeEv (QtGui4.__ZN12QTextBrowser4homeEv)
 0000:00000000  Imp  __ZN12QKeySequenceC1ERKS_ (QtGui4.__ZN12QKeySequenceC1ERKS_)
 0000:00000000  Imp  __ZN6QColor10invalidateEv (QtGui4.__ZN6QColor10invalidateEv)
 0000:00000000  Imp  __ZNK9QDateTime7addSecsEi (QtCore4.__ZNK9QDateTime7addSecsEi)
 0000:00000000  Imp  ___register_frame_table (gcc446.___register_frame_table)
 0000:00000000  Imp  __ZN7QString6appendERKS_ (QtCore4.__ZN7QString6appendERKS_)
 0000:00000000  Imp  __Unwind_SetIP       (gcc446.__Unwind_SetIP)
 0000:00000000  Imp  __Unwind_SetGR       (gcc446.__Unwind_SetGR)
 0000:00000000  Imp  __ZN12QDomDocumentaSERKS_ (QtXml4.__ZN12QDomDocumentaSERKS_)
 0000:00000000  Imp  __Unwind_GetDataRelBase (gcc446.__Unwind_GetDataRelBase)
 0000:00000000  Imp  __ZN9QHashData8freeNodeEPv (QtCore4.__ZN9QHashData8freeNodeEPv)
 0000:00000000  Imp  __ZN12QKeySequenceC1Eiiii (QtGui4.__ZN12QKeySequenceC1Eiiii)
 0000:00000000  Imp  __ZN6QColor7fromRgbEiiii (QtGui4.__ZN6QColor7fromRgbEiiii)
 0000:00000000  Imp  ___libc_TLSGet       (libc065.372)
 0000:00000000  Imp  __ZNK7QAction8shortcutEv (QtGui4.__ZNK7QAction8shortcutEv)
 0000:00000000  Imp  __ZN8QPainter8drawTextERK5QRectiRK7QStringPS0_ (QtGui4.__ZN8QPainter8drawTextERK5QRectiRK7QStringPS0_)
 0000:00000000  Imp  __ZN8QPainter7restoreEv (QtGui4.__ZN8QPainter7restoreEv)
 0000:00000000  Imp  __Unwind_GetIP       (gcc446.__Unwind_GetIP)
 0000:00000000  Imp  __ZN22QStyleOptionViewItemV4C1ERK20QStyleOptionViewItem (QtGui4.__ZN22QStyleOptionViewItemV4C1ERK20QStyleOptionViewItem)
 0000:00000000  Imp  __ZNK19QAbstractScrollArea8sizeHintEv (QtGui4.__ZNK19QAbstractScrollArea8sizeHintEv)
 0000:00000000  Imp  __ZNK5QIcon6pixmapERK5QSizeNS_4ModeENS_5StateE (QtGui4.__ZNK5QIcon6pixmapERK5QSizeNS_4ModeENS_5StateE)
 0000:00000000  Imp  __ZNK7QAction9isVisibleEv (QtGui4.__ZNK7QAction9isVisibleEv)
 0000:00000000  Imp  __ZNK7QAction19isIconVisibleInMenuEv (QtGui4.__ZNK7QAction19isIconVisibleInMenuEv)
 0000:00000000  Imp  __ZN9QLineEdit11changeEventEP6QEvent (QtGui4.__ZN9QLineEdit11changeEventEP6QEvent)
 0000:00000000  Imp  __ZNK5QFont9pointSizeEv (QtGui4.__ZNK5QFont9pointSizeEv)
 0000:00000000  Imp  __Unwind_DeleteException (gcc446.__Unwind_DeleteException)
 0000:00000000  Imp  __Unwind_RaiseException (gcc446.__Unwind_RaiseException)
 0000:00000000  Imp  __ZN11QTextCursor14beginEditBlockEv (QtGui4.__ZN11QTextCursor14beginEditBlockEv)
 0000:00000000  Imp  __ZN19QStyledItemDelegateC2EP7QObject (QtGui4.__ZN19QStyledItemDelegateC2EP7QObject)
 0000:00000000  Imp  __ZNK10QTextBlock8iterator8fragmentEv (QtGui4.__ZNK10QTextBlock8iterator8fragmentEv)
 0000:00000000  Imp  __ZNK11QTextFormat14stringPropertyEi (QtGui4.__ZNK11QTextFormat14stringPropertyEi)
 0000:00000000  Imp  __Unwind_GetTextRelBase (gcc446.__Unwind_GetTextRelBase)
 0000:00000000  Imp  __ZN6QMovie9setPausedEb (QtGui4.__ZN6QMovie9setPausedEb)
 0000:00000000  Imp  __Unwind_GetRegionStart (gcc446.__Unwind_GetRegionStart)
 0000:00000000  Imp  __ZN9QTextEdit11changeEventEP6QEvent (QtGui4.__ZN9QTextEdit11changeEventEP6QEvent)
 0000:00000000  Imp  __ZNK5QFont7resolveERKS_ (QtGui4.__ZNK5QFont7resolveERKS_)
 0000:00000000  Imp  __ZNK8QVariant8userTypeEv (QtCore4.__ZNK8QVariant8userTypeEv)
 0000:00000000  Imp  __ZN5QFont12setUnderlineEb (QtGui4.__ZN5QFont12setUnderlineEb)
 0000:00000000  Imp  __ZNK8QDomNode9cloneNodeEb (QtXml4.__ZNK8QDomNode9cloneNodeEb)
 0000:00000000  Imp  __ZN7QAction10setCheckedEb (QtGui4.__ZN7QAction10setCheckedEb)
 0000:00000000  Imp  __ZN7QWidget14setFocusPolicyEN2Qt11FocusPolicyE (QtGui4.__ZN7QWidget14setFocusPolicyEN2Qt11FocusPolicyE)
 0000:00000000  Imp  __ZN10QByteArray6resizeEi (QtCore4.__ZN10QByteArray6resizeEi)
 0000:00000000  Imp  __ZN5QMenu10wheelEventEP11QWheelEvent (QtGui4.__ZN5QMenu10wheelEventEP11QWheelEvent)
 0000:00000000  Imp  __ZNK5QTime6secsToERKS_ (QtCore4.__ZNK5QTime6secsToERKS_)
 0000:00000000  Imp  __ZNK7QAction7toolTipEv (QtGui4.__ZNK7QAction7toolTipEv)
 0000:00000000  Imp  __ZNK19QAbstractScrollArea17verticalScrollBarEv (QtGui4.__ZNK19QAbstractScrollArea17verticalScrollBarEv)
 0000:00000000  Imp  ___libc_TLSSet       (libc065.374)
 0000:00000000  Imp  __ZNK8QVariant10canConvertENS_4TypeE (QtCore4.__ZNK8QVariant10canConvertENS_4TypeE)
 0000:00000000  Imp  __ZN12QKeySequenceaSERKS_ (QtGui4.__ZN12QKeySequenceaSERKS_)
 0000:00000000  Imp  __ZNK19QAbstractScrollArea8viewportEv (QtGui4.__ZNK19QAbstractScrollArea8viewportEv)
 0000:00000000  Imp  __ZNK8QVariant8toStringEv (QtCore4.__ZNK8QVariant8toStringEv)
 0000:00000000  Imp  __ZNK12QImageReader14nextImageDelayEv (QtGui4.__ZNK12QImageReader14nextImageDelayEv)
 0000:00000000  Imp  __ZNK9QDateTime7isValidEv (QtCore4.__ZNK9QDateTime7isValidEv)
 0000:00000000  Imp  __ZNK13QItemDelegate12setModelDataEP7QWidgetP18QAbstractItemModelRK11QModelIndex (QtGui4.__ZNK13QItemDelegate12setModelDataEP7QWidgetP18QAbstractItemModelRK11QModelIndex)
 0000:00000000  Imp  __ZN5QMenuD2Ev       (QtGui4.__ZN5QMenuD2Ev)
 0000:00000000  Imp  __ZNK7QAction8priorityEv (QtGui4.__ZNK7QAction8priorityEv)
 0000:00000000  Imp  __ZN5QMenu11qt_metacallEN11QMetaObject4CallEiPPv (QtGui4.__ZN5QMenu11qt_metacallEN11QMetaObject4CallEiPPv)
 0000:00000000  Imp  __ZN10QByteArray6expandEi (QtCore4.__ZN10QByteArray6expandEi)
 0000:00000000  Imp  __ZN8QVariantC1ERK7QString (QtCore4.__ZN8QVariantC1ERK7QString)
 0000:00000000  Imp  __ZN9QLineEditC2EP7QWidget (QtGui4.__ZN9QLineEditC2EP7QWidget)
 0000:00000000  Imp  __ZN13QTextDocumentD1Ev (QtGui4.__ZN13QTextDocumentD1Ev)
 0000:00000000  Imp  __ZN7QPixmap9fromImageERK6QImage6QFlagsIN2Qt19ImageConversionFlagEE (QtGui4.__ZN7QPixmap9fromImageERK6QImage6QFlagsIN2Qt19ImageConversionFlagEE)
 0000:00000000  Imp  __ZNK11QDomElement7tagNameEv (QtXml4.__ZNK11QDomElement7tagNameEv)
 0000:00000000  Imp  __ZN12QApplication5alertEP7QWidgeti (QtGui4.__ZN12QApplication5alertEP7QWidgeti)
 0000:00000000  Imp  __ZN7QActionD2Ev     (QtGui4.__ZN7QActionD2Ev)
 0000:00000000  Imp  __ZN11QDataStreamlsEi (QtCore4.__ZN11QDataStreamlsEi)
 0000:00000000  Imp  __ZN9QListData5eraseEPPv (QtCore4.__ZN9QListData5eraseEPPv)
 0000:00000000  Imp  __ZN7QWidget14dragEnterEventEP15QDragEnterEvent (QtGui4.__ZN7QWidget14dragEnterEventEP15QDragEnterEvent)
 0000:00000000  Imp  __ZNK8QVariant7toPointEv (QtCore4.__ZNK8QVariant7toPointEv)
 0000:00000000  Imp  __ZNK8QVariant6isNullEv (QtCore4.__ZNK8QVariant6isNullEv)
 0000:00000000  Imp  __std_realloc        (libc065.907)
 0000:00000000  Imp  __ZN4QDir2cdERK7QString (QtCore4.__ZN4QDir2cdERK7QString)
 0000:00000000  Imp  __Z17qt_message_output9QtMsgTypePKc (QtCore4.__Z17qt_message_output9QtMsgTypePKc)
 0000:00000000  Imp  __ZNK7QWidget7actionsEv (QtGui4.__ZNK7QWidget7actionsEv)
 0000:00000000  Imp  __ZNK7QString8toLatin1Ev (QtCore4.__ZNK7QString8toLatin1Ev)
 0000:00000000  Imp  __ZN6QMovie11jumpToFrameEi (QtGui4.__ZN6QMovie11jumpToFrameEi)
 0000:00000000  Imp  __ZN7QWidget18focusNextPrevChildEb (QtGui4.__ZN7QWidget18focusNextPrevChildEb)
 0000:00000000  Imp  __ZN7QWidget9showEventEP10QShowEvent (QtGui4.__ZN7QWidget9showEventEP10QShowEvent)
 0000:00000000  Imp  __ZN7QString11shared_nullE (QtCore4.__ZN7QString11shared_nullE)
 0000:00000000  Imp  __ZTVN10__cxxabiv117__class_type_infoE (libc065.5132)
 0000:00000000  Imp  __ZN12QTextBrowser9setSourceERK4QUrl (QtGui4.__ZN12QTextBrowser9setSourceERK4QUrl)
 0000:00000000  Imp  __ZN8QPainter11setClipRectERK5QRectN2Qt13ClipOperationE (QtGui4.__ZN8QPainter11setClipRectERK5QRectN2Qt13ClipOperationE)
 0000:00000000  Imp  __ZThn8_NK7QWidget7devTypeEv (QtGui4.__ZThn8_NK7QWidget7devTypeEv)
 0000:00000000  Imp  __ZN6QTimer10singleShotEiP7QObjectPKc (QtCore4.__ZN6QTimer10singleShotEiP7QObjectPKc)
 0000:00000000  Imp  __ZN11QLayoutItem6layoutEv (QtGui4.__ZN11QLayoutItem6layoutEv)
 0000:00000000  Imp  __ZN7QObjectD2Ev     (QtCore4.__ZN7QObjectD2Ev)
 0000:00000000  Imp  __ZN7QWidget10setToolTipERK7QString (QtGui4.__ZN7QWidget10setToolTipERK7QString)
 0000:00000000  Imp  __ZNK5QMenu21separatorsCollapsibleEv (QtGui4.__ZNK5QMenu21separatorsCollapsibleEv)
 0000:00000000  Imp  __ZN7QWidget9dropEventEP10QDropEvent (QtGui4.__ZN7QWidget9dropEventEP10QDropEvent)
 0000:00000000  Imp  __ZN4QDir4cdUpEv     (QtCore4.__ZN4QDir4cdUpEv)
 0000:00000000  Imp  __ZN11QToolButton12setArrowTypeEN2Qt9ArrowTypeE (QtGui4.__ZN11QToolButton12setArrowTypeEN2Qt9ArrowTypeE)
 0000:00000000  Imp  __std_memmove        (libc065.866)
 0000:00000000  Imp  __ZN7QPixmapD1Ev     (QtGui4.__ZN7QPixmapD1Ev)
 0000:00000000  Imp  __ZNK13QItemDelegate5paintEP8QPainterRK20QStyleOptionViewItemRK11QModelIndex (QtGui4.__ZNK13QItemDelegate5paintEP8QPainterRK20QStyleOptionViewItemRK11QModelIndex)
 0000:00000000  Imp  __ZN6QImageC1Ev      (QtGui4.__ZN6QImageC1Ev)
 0000:00000000  Imp  __ZN11QToolButton16staticMetaObjectE (QtGui4.__ZN11QToolButton16staticMetaObjectE)
 0000:00000000  Imp  __ZN6QImageD1Ev      (QtGui4.__ZN6QImageD1Ev)
 0000:00000000  Imp  __ZN8QDomTextC1Ev    (QtXml4.__ZN8QDomTextC1Ev)
 0000:00000000  Imp  __ZN15QAbstractButton13checkStateSetEv (QtGui4.__ZN15QAbstractButton13checkStateSetEv)
 0000:00000000  Imp  __ZNK7QObject10metaObjectEv (QtCore4.__ZNK7QObject10metaObjectEv)
 0000:00000000  Imp  __ZNK8QDomNode6isNullEv (QtXml4.__ZNK8QDomNode6isNullEv)
 0000:00000000  Imp  __ZNK7QPixmapcv8QVariantEv (QtGui4.__ZNK7QPixmapcv8QVariantEv)
 0000:00000000  Imp  __ZN7QWidget11setGeometryERK5QRect (QtGui4.__ZN7QWidget11setGeometryERK5QRect)
 0000:00000000  Imp  __ZNK7QString18localeAwareCompareERKS_ (QtCore4.__ZNK7QString18localeAwareCompareERKS_)
 0000:00000000  Imp  __ZNK7QAction11isCheckableEv (QtGui4.__ZNK7QAction11isCheckableEv)
 0000:00000000  Imp  __ZN7QCursorD1Ev     (QtGui4.__ZN7QCursorD1Ev)
 0000:00000000  Imp  __ZN7QAction12setWhatsThisERK7QString (QtGui4.__ZN7QAction12setWhatsThisERK7QString)
 0000:00000000  Imp  __ZN8QVariantC1Ei    (QtCore4.__ZN8QVariantC1Ei)
 0000:00000000  Imp  __ZN5QMenu13keyPressEventEP9QKeyEvent (QtGui4.__ZN5QMenu13keyPressEventEP9QKeyEvent)
 0000:00000000  Imp  __ZN7QPixmapC1Ev     (QtGui4.__ZN7QPixmapC1Ev)
 0000:00000000  Imp  __ZNK7QObject10objectNameEv (QtCore4.__ZNK7QObject10objectNameEv)
 0000:00000000  Imp  __ZN8QVariantD1Ev    (QtCore4.__ZN8QVariantD1Ev)
 0000:00000000  Imp  __ZNK8QDomNode4saveER11QTextStreami (QtXml4.__ZNK8QDomNode4saveER11QTextStreami)
 0000:00000000  Imp  __ZN7QObject17removeEventFilterEPS_ (QtCore4.__ZN7QObject17removeEventFilterEPS_)
 0000:00000000  Imp  __ZN8QDomNodeD1Ev    (QtXml4.__ZN8QDomNodeD1Ev)
 0000:00000000  Imp  __ZN7QObject9setParentEPS_ (QtCore4.__ZN7QObject9setParentEPS_)
 0000:00000000  Imp  __ZN9QHashData14detach_helper2EPFvPNS_4NodeEPvEPFvS1_Eii (QtCore4.__ZN9QHashData14detach_helper2EPFvPNS_4NodeEPvEPFvS1_Eii)
 0000:00000000  Imp  __ZN16QCoreApplication9translateEPKcS1_S1_NS_8EncodingE (QtCore4.__ZN16QCoreApplication9translateEPKcS1_S1_NS_8EncodingE)
 0000:00000000  Imp  __ZN6QTimer11setIntervalEi (QtCore4.__ZN6QTimer11setIntervalEi)
 0000:00000000  Imp  __ZN8QDomNodeD2Ev    (QtXml4.__ZN8QDomNodeD2Ev)
 0000:00000000  Imp  __ZNK5QRect8containsERKS_b (QtCore4.__ZNK5QRect8containsERKS_b)
 0000:00000000  Imp  __ZN5QMenu15insertSeparatorEP7QAction (QtGui4.__ZN5QMenu15insertSeparatorEP7QAction)
 0000:00000000  Imp  __ZNK11QToolButton13defaultActionEv (QtGui4.__ZNK11QToolButton13defaultActionEv)
 0000:00000000  Imp  __ZN7QAction20setIconVisibleInMenuEb (QtGui4.__ZN7QAction20setIconVisibleInMenuEb)
 0000:00000000  Imp  __ZNK11QTextFormat13toImageFormatEv (QtGui4.__ZNK11QTextFormat13toImageFormatEv)
 0000:00000000  Imp  __ZNK10QByteArray5toHexEv (QtCore4.__ZNK10QByteArray5toHexEv)
 0000:00000000  Imp  __ZN6QEventC1ENS_4TypeE (QtCore4.__ZN6QEventC1ENS_4TypeE)
 0000:00000000  Imp  __ZNK9QTextEdit27createMimeDataFromSelectionEv (QtGui4.__ZNK9QTextEdit27createMimeDataFromSelectionEv)
 0000:00000000  Imp  __ZNK21QTextDocumentFragment6toHtmlEv (QtGui4.__ZNK21QTextDocumentFragment6toHtmlEv)
 0000:00000000  Imp  __ZN7QRegExp10setMinimalEb (QtCore4.__ZN7QRegExp10setMinimalEb)
 0000:00000000  Imp  __ZN10QByteArray6numberEji (QtCore4.__ZN10QByteArray6numberEji)
 0000:00000000  Imp  __ZN10QStatusBar9addWidgetEP7QWidgeti (QtGui4.__ZN10QStatusBar9addWidgetEP7QWidgeti)
 0000:00000000  Imp  __ZN12QStyleOptionC1Eii (QtGui4.__ZN12QStyleOptionC1Eii)
 0000:00000000  Imp  __ZN11QTextCursor11setPositionEiNS_8MoveModeE (QtGui4.__ZN11QTextCursor11setPositionEiNS_8MoveModeE)
 0000:00000000  Imp  __ZN7QString7sprintfEPKcz (QtCore4.__ZN7QString7sprintfEPKcz)
 0000:00000000  Imp  __ZNK9QTextEdit16inputMethodQueryEN2Qt16InputMethodQueryE (QtGui4.__ZNK9QTextEdit16inputMethodQueryEN2Qt16InputMethodQueryE)
 0000:00000000  Imp  __ZN13QWidgetAction11qt_metacastEPKc (QtGui4.__ZN13QWidgetAction11qt_metacastEPKc)
 0000:00000000  Imp  __ZNK7QString5toIntEPbi (QtCore4.__ZNK7QString5toIntEPbi)
 0000:00000000  Imp  __ZN12QTextBrowser11qt_metacastEPKc (QtGui4.__ZN12QTextBrowser11qt_metacastEPKc)
 0000:00000000  Imp  __ZN15QNetworkRequestD1Ev (QtNet4.__ZN15QNetworkRequestD1Ev)
 0000:00000000  Imp  __ZN6QStyle11alignedRectEN2Qt15LayoutDirectionE6QFlagsINS0_13AlignmentFlagEERK5QSizeRK5QRect (QtGui4.__ZN6QStyle11alignedRectEN2Qt15LayoutDirectionE6QFlagsINS0_13AlignmentFlagEERK5QSizeRK5QRect)
 0000:00000000  Imp  __ZN9QShortcutC1EP7QWidget (QtGui4.__ZN9QShortcutC1EP7QWidget)
 0000:00000000  Imp  __ZN7QObject11eventFilterEPS_P6QEvent (QtCore4.__ZN7QObject11eventFilterEPS_P6QEvent)
 0000:00000000  Imp  __ZNK7QWidget16inputMethodQueryEN2Qt16InputMethodQueryE (QtGui4.__ZNK7QWidget16inputMethodQueryEN2Qt16InputMethodQueryE)
 0000:00000000  Imp  __ZNK8QVariant9constDataEv (QtCore4.__ZNK8QVariant9constDataEv)
 0000:00000000  Imp  __ZN5QIcon7addFileERK7QStringRK5QSizeNS_4ModeENS_5StateE (QtGui4.__ZN5QIcon7addFileERK7QStringRK5QSizeNS_4ModeENS_5StateE)
 0000:00000000  Imp  __ZN5QFont12setPointSizeEi (QtGui4.__ZN5QFont12setPointSizeEi)
 0000:00000000  Imp  __ZNK7QObject8propertyEPKc (QtCore4.__ZNK7QObject8propertyEPKc)
 0000:00000000  Imp  __ZN12QTextBrowser16staticMetaObjectE (QtGui4.__ZN12QTextBrowser16staticMetaObjectE)
 0000:00000000  Imp  __ZN7QWidget10setVisibleEb (QtGui4.__ZN7QWidget10setVisibleEb)
 0000:00000000  Imp  _crc32               (QtCore4._crc32)
 0000:00000000  Imp  __ZNK19QStyledItemDelegate17itemEditorFactoryEv (QtGui4.__ZNK19QStyledItemDelegate17itemEditorFactoryEv)
 0000:00000000  Imp  __ZNK7QWidget7devTypeEv (QtGui4.__ZNK7QWidget7devTypeEv)
 0000:00000000  Imp  __ZNK7QString11toLocal8BitEv (QtCore4.__ZNK7QString11toLocal8BitEv)
 0000:00000000  Imp  __ZNK10QByteArray5splitEc (QtCore4.__ZNK10QByteArray5splitEc)
 0000:00000000  Imp  __ZNK13QItemDelegate11hasClippingEv (QtGui4.__ZNK13QItemDelegate11hasClippingEv)
 0000:00000000  Imp  __ZN7QWidget9moveEventEP10QMoveEvent (QtGui4.__ZN7QWidget9moveEventEP10QMoveEvent)
 0000:00000000  Imp  __ZNK7QString7leftRefEi (QtCore4.__ZNK7QString7leftRefEi)
 0000:00000000  Imp  __ZN8QPainter13setRenderHintENS_10RenderHintEb (QtGui4.__ZN8QPainter13setRenderHintENS_10RenderHintEb)
 0000:00000000  Imp  __ZNK11QLayoutItem14heightForWidthEi (QtGui4.__ZNK11QLayoutItem14heightForWidthEi)
 0000:00000000  Imp  __ZN8QPainter10drawPixmapERK6QRectFRK7QPixmapS2_ (QtGui4.__ZN8QPainter10drawPixmapERK6QRectFRK7QPixmapS2_)
 0000:00000000  Imp  __ZNK9QDateTime8timeSpecEv (QtCore4.__ZNK9QDateTime8timeSpecEv)
 0000:00000000  Imp  __Z5qHashRK10QByteArray (QtCore4.__Z5qHashRK10QByteArray)
 0000:00000000  Imp  __ZNK13QItemDelegate8sizeHintERK20QStyleOptionViewItemRK11QModelIndex (QtGui4.__ZNK13QItemDelegate8sizeHintERK20QStyleOptionViewItemRK11QModelIndex)
 0000:00000000  Imp  __ZN7QAction11setIconTextERK7QString (QtGui4.__ZN7QAction11setIconTextERK7QString)
 0000:00000000  Imp  __ZNK13QItemDelegate5checkERK20QStyleOptionViewItemRK5QRectRK8QVariant (QtGui4.__ZNK13QItemDelegate5checkERK20QStyleOptionViewItemRK5QRectRK8QVariant)
 0000:00000000  Imp  __ZN11QTextCursorC1EP13QTextDocument (QtGui4.__ZN11QTextCursorC1EP13QTextDocument)
 0000:00000000  Imp  __ZN5QIcon9fromThemeERK7QStringRKS_ (QtGui4.__ZN5QIcon9fromThemeERK7QStringRKS_)
 0000:00000000  Imp  __ZN11QLayoutItem6widgetEv (QtGui4.__ZN11QLayoutItem6widgetEv)
 0000:00000000  Imp  __ZN13QItemDelegate11qt_metacastEPKc (QtGui4.__ZN13QItemDelegate11qt_metacastEPKc)
 0000:00000000  Imp  __ZN7QAction10setToolTipERK7QString (QtGui4.__ZN7QAction10setToolTipERK7QString)
 0000:00000000  Imp  __ZN7QWidget12removeActionEP7QAction (QtGui4.__ZN7QWidget12removeActionEP7QAction)
 0000:00000000  Imp  __ZN8QMapData10createDataEi (QtCore4.__ZN8QMapData10createDataEi)
 0000:00000000  Imp  __ZN7QWidget10showNormalEv (QtGui4.__ZN7QWidget10showNormalEv)
 0000:00000000  Imp  __ZN12QTextBrowser13keyPressEventEP9QKeyEvent (QtGui4.__ZN12QTextBrowser13keyPressEventEP9QKeyEvent)
 0000:00000000  Imp  __ZN9QLineEdit15mousePressEventEP11QMouseEvent (QtGui4.__ZN9QLineEdit15mousePressEventEP11QMouseEvent)
 0000:00000000  Imp  __ZN7QString6appendE5QChar (QtCore4.__ZN7QString6appendE5QChar)
 0000:00000000  Imp  __ZN15QAbstractButton5eventEP6QEvent (QtGui4.__ZN15QAbstractButton5eventEP6QEvent)
 0000:00000000  Imp  __ZN11QToolButton12setPopupModeENS_19ToolButtonPopupModeE (QtGui4.__ZN11QToolButton12setPopupModeENS_19ToolButtonPopupModeE)
 0000:00000000  Imp  __ZN7QWidget14dragLeaveEventEP15QDragLeaveEvent (QtGui4.__ZN7QWidget14dragLeaveEventEP15QDragLeaveEvent)
 0000:00000000  Imp  __ZN7QObject18installEventFilterEPS_ (QtCore4.__ZN7QObject18installEventFilterEPS_)
 0000:00000000  Imp  __ZN5QCharC1Ec       (QtCore4.__ZN5QCharC1Ec)
 0000:00000000  Imp  __ZN4QUrlC1ERKS_     (QtCore4.__ZN4QUrlC1ERKS_)
 0000:00000000  Imp  __ZNK6QColor4rgbaEv  (QtGui4.__ZNK6QColor4rgbaEv)
 0000:00000000  Imp  __ZN10QStatusBar12removeWidgetEP7QWidget (QtGui4.__ZN10QStatusBar12removeWidgetEP7QWidget)
 0000:00000000  Imp  __ZN7QWidget7pmEventEP5_QMSGPPv (QtGui4.__ZN7QWidget7pmEventEP5_QMSGPPv)
 0000:00000000  Imp  __ZNK8QVariant4typeEv (QtCore4.__ZNK8QVariant4typeEv)
 0000:00000000  Imp  __ZNK7QWidget6windowEv (QtGui4.__ZNK7QWidget6windowEv)
 0000:00000000  Imp  __ZNK14QDesktopWidget17availableGeometryEi (QtGui4.__ZNK14QDesktopWidget17availableGeometryEi)
 0000:00000000  Imp  __ZN5QMenuC2EP7QWidget (QtGui4.__ZN5QMenuC2EP7QWidget)
 0000:00000000  Imp  __ZN10QBoxLayout10addStretchEi (QtGui4.__ZN10QBoxLayout10addStretchEi)
 0000:00000000  Imp  __ZTVN10__cxxabiv120__si_class_type_infoE (libc065.5136)
 0000:00000000  Imp  __ZN7QStringaSERKS_  (QtCore4.__ZN7QStringaSERKS_)
 0000:00000000  Imp  __ZN9QTextEdit10wheelEventEP11QWheelEvent (QtGui4.__ZN9QTextEdit10wheelEventEP11QWheelEvent)
 0000:00000000  Imp  __ZN7QWidgetC1EPS_6QFlagsIN2Qt10WindowTypeEE (QtGui4.__ZN7QWidgetC1EPS_6QFlagsIN2Qt10WindowTypeEE)
 0000:00000000  Imp  __ZNK8QDomNode13ownerDocumentEv (QtXml4.__ZNK8QDomNode13ownerDocumentEv)
 0000:00000000  Imp  __ZN12QKeySequenceC1Ev (QtGui4.__ZN12QKeySequenceC1Ev)
 0000:00000000  Imp  __ZN8QVariantaSERKS_ (QtCore4.__ZN8QVariantaSERKS_)
 0000:00000000  Imp  __ZN13QItemDelegateC2EP7QObject (QtGui4.__ZN13QItemDelegateC2EP7QObject)
 0000:00000000  Imp  __ZNK11QTextCursor10charFormatEv (QtGui4.__ZNK11QTextCursor10charFormatEv)
 0000:00000000  Imp  __ZN7QWidget12insertActionEP7QActionS1_ (QtGui4.__ZN7QWidget12insertActionEP7QActionS1_)
 0000:00000000  Imp  __ZN10QByteArray11shared_nullE (QtCore4.__ZN10QByteArray11shared_nullE)
 0000:00000000  Imp  __ZN11QTextCursor12endEditBlockEv (QtGui4.__ZN11QTextCursor12endEditBlockEv)
 0000:00000000  Imp  __ZN9QLineEdit12focusInEventEP11QFocusEvent (QtGui4.__ZN9QLineEdit12focusInEventEP11QFocusEvent)
 0000:00000000  Imp  __ZNK11QDomElement10attributesEv (QtXml4.__ZNK11QDomElement10attributesEv)
 0000:00000000  Imp  __ZN8QVariant7handlerE (QtCore4.__ZN8QVariant7handlerE)
 0000:00000000  Imp  __ZN11QMetaObject11changeGuardEPP7QObjectS1_ (QtCore4.__ZN11QMetaObject11changeGuardEPP7QObjectS1_)
 0000:00000000  Imp  __ZN11QTextCursorD1Ev (QtGui4.__ZN11QTextCursorD1Ev)
 0000:00000000  Imp  __ZN12QDomDocumentC1Ev (QtXml4.__ZN12QDomDocumentC1Ev)
 0000:00000000  Imp  __ZNK13QTextFragment10charFormatEv (QtGui4.__ZNK13QTextFragment10charFormatEv)
 0000:00000000  Imp  __ZN11QTextStreamlsEc (QtCore4.__ZN11QTextStreamlsEc)
 0000:00000000  Imp  __ZNK13QItemDelegate10metaObjectEv (QtGui4.__ZNK13QItemDelegate10metaObjectEv)
 0000:00000000  Imp  __ZNK7QString10startsWithERKS_N2Qt15CaseSensitivityE (QtCore4.__ZNK7QString10startsWithERKS_N2Qt15CaseSensitivityE)
 0000:00000000  Imp  __ZNK15QAbstractButton9isCheckedEv (QtGui4.__ZNK15QAbstractButton9isCheckedEv)
 0000:00000000  Imp  __ZN11QDomElement12setAttributeERK7QStringy (QtXml4.__ZN11QDomElement12setAttributeERK7QStringy)
 0000:00000000  Imp  __ZN8QPainterC1EP12QPaintDevice (QtGui4.__ZN8QPainterC1EP12QPaintDevice)
 0000:00000000  Imp  __ZN5QFile4openE6QFlagsIN9QIODevice12OpenModeFlagEE (QtCore4.__ZN5QFile4openE6QFlagsIN9QIODevice12OpenModeFlagEE)
 0000:00000000  Imp  __ZN13QTextDocument11addResourceEiRK4QUrlRK8QVariant (QtGui4.__ZN13QTextDocument11addResourceEiRK4QUrlRK8QVariant)
 0000:00000000  Imp  __ZN7QWidget14languageChangeEv (QtGui4.__ZN7QWidget14languageChangeEv)
 0000:00000000  Imp  __ZN15QAbstractButton15mousePressEventEP11QMouseEvent (QtGui4.__ZN15QAbstractButton15mousePressEventEP11QMouseEvent)
 0000:00000000  Imp  ___libc_ForkDeregisterModule (libc065.1954)
 0000:00000000  Imp  __ZN7QAction11setMenuRoleENS_8MenuRoleE (QtGui4.__ZN7QAction11setMenuRoleENS_8MenuRoleE)
 0000:00000000  Imp  __ZNK7QPixmap6heightEv (QtGui4.__ZNK7QPixmap6heightEv)
 0000:00000000  Imp  __ZNK14QDesktopWidget17availableGeometryEPK7QWidget (QtGui4.__ZNK14QDesktopWidget17availableGeometryEPK7QWidget)
 0000:00000000  Imp  __ZNK4QDir16absoluteFilePathERK7QString (QtCore4.__ZNK4QDir16absoluteFilePathERK7QString)
 0000:00000000  Imp  __ZN4QPenC1ERK6QColor (QtGui4.__ZN4QPenC1ERK6QColor)
 0000:00000000  Imp  __ZN12QDomDocumentD1Ev (QtXml4.__ZN12QDomDocumentD1Ev)
 0000:00000000  Imp  __ZNK11QDomElement9attributeERK7QStringS2_ (QtXml4.__ZNK11QDomElement9attributeERK7QStringS2_)
 0000:00000000  Imp  __ZNK8QDomNodeeqERKS_ (QtXml4.__ZNK8QDomNodeeqERKS_)
 0000:00000000  Imp  __ZNK12QFontMetrics4sizeEiRK7QStringiPi (QtGui4.__ZNK12QFontMetrics4sizeEiRK7QStringiPi)
 0000:00000000  Imp  __ZN9QDateTime22currentMSecsSinceEpochEv (QtCore4.__ZN9QDateTime22currentMSecsSinceEpochEv)
 0000:00000000  Imp  __ZN12QTextBrowser18focusNextPrevChildEb (QtGui4.__ZN12QTextBrowser18focusNextPrevChildEb)
 0000:00000000  Imp  __ZN6QColoraSERKS_   (QtGui4.__ZN6QColoraSERKS_)
 0000:00000000  Imp  __ZNK7QAction4textEv (QtGui4.__ZNK7QAction4textEv)
 0000:00000000  Imp  __ZN11QDomElement12setAttributeERK7QStringS2_ (QtXml4.__ZN11QDomElement12setAttributeERK7QStringS2_)
 0000:00000000  Imp  _inflate             (QtCore4._inflate)
 0000:00000000  Imp  __ZN12QFontMetricsC1ERK5QFont (QtGui4.__ZN12QFontMetricsC1ERK5QFont)
 0000:00000000  Imp  __ZN8QPainter3endEv  (QtGui4.__ZN8QPainter3endEv)
 0000:00000000  Imp  __ZN6QTimer4stopEv   (QtCore4.__ZN6QTimer4stopEv)
 0000:00000000  Imp  __ZN9QLineEdit5clearEv (QtGui4.__ZN9QLineEdit5clearEv)
 0000:00000000  Imp  __ZNK8QDomNode12namespaceURIEv (QtXml4.__ZNK8QDomNode12namespaceURIEv)
 0000:00000000  Imp  __ZN7QWidget9addActionEP7QAction (QtGui4.__ZN7QWidget9addActionEP7QAction)
 0000:00000000  Imp  __ZN11QDataStreamrsERd (QtCore4.__ZN11QDataStreamrsERd)
 0000:00000000  Imp  __ZlsR11QDataStreamRK8QVariant (QtCore4.__ZlsR11QDataStreamRK8QVariant)
 0000:00000000  Imp  __ZN5QMenu8setTitleERK7QString (QtGui4.__ZN5QMenu8setTitleERK7QString)
 0000:00000000  Imp  __ZNK7QWidget14isActiveWindowEv (QtGui4.__ZNK7QWidget14isActiveWindowEv)
 0000:00000000  Imp  __ZNK11QToolButton9arrowTypeEv (QtGui4.__ZNK11QToolButton9arrowTypeEv)
 0000:00000000  Imp  __ZlsR11QDataStreamRK11QSizePolicy (QtGui4.__ZlsR11QDataStreamRK11QSizePolicy)
 0000:00000000  Imp  __ZNK13QItemDelegate12createEditorEP7QWidgetRK20QStyleOptionViewItemRK11QModelIndex (QtGui4.__ZNK13QItemDelegate12createEditorEP7QWidgetRK20QStyleOptionViewItemRK11QModelIndex)
 0000:00000000  Imp  __ZN9QTextEdit11resizeEventEP12QResizeEvent (QtGui4.__ZN9QTextEdit11resizeEventEP12QResizeEvent)
 0000:00000000  Imp  __ZN6QColorC1EN2Qt11GlobalColorE (QtGui4.__ZN6QColorC1EN2Qt11GlobalColorE)
 0000:00000000  Imp  __ZNK7QString6toUtf8Ev (QtCore4.__ZNK7QString6toUtf8Ev)
 0000:00000000  Imp  __ZNK5QMenu16isTearOffEnabledEv (QtGui4.__ZNK5QMenu16isTearOffEnabledEv)
 0000:00000000  Imp  __ZN15QAbstractButton16staticMetaObjectE (QtGui4.__ZN15QAbstractButton16staticMetaObjectE)
 0000:00000000  Imp  __ZN10QTextBlock8iteratorppEv (QtGui4.__ZN10QTextBlock8iteratorppEv)
 0000:00000000  Imp  __ZN10QBoxLayout9addWidgetEP7QWidgeti6QFlagsIN2Qt13AlignmentFlagEE (QtGui4.__ZN10QBoxLayout9addWidgetEP7QWidgeti6QFlagsIN2Qt13AlignmentFlagEE)
 0000:00000000  Imp  __ZN11QDataStreamrsERi (QtCore4.__ZN11QDataStreamrsERi)
 0000:00000000  Imp  __ZN7QString6insertEiPK5QChari (QtCore4.__ZN7QString6insertEiPK5QChari)
 0000:00000000  Imp  __ZN9QLineEdit16contextMenuEventEP17QContextMenuEvent (QtGui4.__ZN9QLineEdit16contextMenuEventEP17QContextMenuEvent)
 0000:00000000  Imp  __ZN13QWidgetActionC2EP7QObject (QtGui4.__ZN13QWidgetActionC2EP7QObject)
 0000:00000000  Imp  __ZN11QTextCursor10insertTextERK7QString (QtGui4.__ZN11QTextCursor10insertTextERK7QString)
 0000:00000000  Imp  __ZN9QLineEdit10paintEventEP11QPaintEvent (QtGui4.__ZN9QLineEdit10paintEventEP11QPaintEvent)
 0000:00000000  Imp  __ZN11QDataStreamrsERa (QtCore4.__ZN11QDataStreamrsERa)
 0000:00000000  Imp  __ZN17QDomCharacterData7setDataERK7QString (QtXml4.__ZN17QDomCharacterData7setDataERK7QString)
 0000:00000000  Imp  __ZN12QTextBrowserC2EP7QWidget (QtGui4.__ZN12QTextBrowserC2EP7QWidget)
 0000:00000000  Imp  __ZN9QDateTimeC1ERKS_ (QtCore4.__ZN9QDateTimeC1ERKS_)
 0000:00000000  Imp  __ZN12QKeySequenceD1Ev (QtGui4.__ZN12QKeySequenceD1Ev)
 0000:00000000  Imp  __ZN15QNetworkRequestC1ERK4QUrl (QtNet4.__ZN15QNetworkRequestC1ERK4QUrl)
 0000:00000000  Imp  __ZN4QDirC1ERK7QString (QtCore4.__ZN4QDirC1ERK7QString)
 0000:00000000  Imp  __ZN7QAction7setFontERK5QFont (QtGui4.__ZN7QAction7setFontERK5QFont)
 0000:00000000  Imp  __ZN12QTextBrowser17mouseReleaseEventEP11QMouseEvent (QtGui4.__ZN12QTextBrowser17mouseReleaseEventEP11QMouseEvent)
 0000:00000000  Imp  __ZN7QPixmapC1ERKS_  (QtGui4.__ZN7QPixmapC1ERKS_)
 0000:00000000  Imp  __ZN11QTextCursor18removeSelectedTextEv (QtGui4.__ZN11QTextCursor18removeSelectedTextEv)
 0000:00000000  Imp  __ZN7QWidget16contextMenuEventEP17QContextMenuEvent (QtGui4.__ZN7QWidget16contextMenuEventEP17QContextMenuEvent)
 0000:00000000  Imp  __ZNK7QStringltERKS_ (QtCore4.__ZNK7QStringltERKS_)
 0000:00000000  Imp  __ZN8QMapData16continueFreeDataEi (QtCore4.__ZN8QMapData16continueFreeDataEi)
 0000:00000000  Imp  __ZN5QMenu15mousePressEventEP11QMouseEvent (QtGui4.__ZN5QMenu15mousePressEventEP11QMouseEvent)
 0000:00000000  Imp  __ZNK11QMetaObject4castEP7QObject (QtCore4.__ZNK11QMetaObject4castEP7QObject)
 0000:00000000  Imp  __ZNK13QTextFragment8positionEv (QtGui4.__ZNK13QTextFragment8positionEv)
 0000:00000000  Imp  __ZNK15QAbstractButton6isDownEv (QtGui4.__ZNK15QAbstractButton6isDownEv)
 0000:00000000  Imp  __ZNK13QItemDelegate11drawDisplayEP8QPainterRK20QStyleOptionViewItemRK5QRectRK7QString (QtGui4.__ZNK13QItemDelegate11drawDisplayEP8QPainterRK20QStyleOptionViewItemRK5QRectRK7QString)
 0000:00000000  Imp  __ZN7QWidget10leaveEventEP6QEvent (QtGui4.__ZN7QWidget10leaveEventEP6QEvent)
 0000:00000000  Imp  __ZN5QRect10moveCenterERK6QPoint (QtCore4.__ZN5QRect10moveCenterERK6QPoint)
 0000:00000000  Imp  __ZNK15QAbstractButton9hitButtonERK6QPoint (QtGui4.__ZNK15QAbstractButton9hitButtonERK6QPoint)
 0000:00000000  Imp  __ZNK8QDomNodeneERKS_ (QtXml4.__ZNK8QDomNodeneERKS_)
 0000:00000000  Imp  __ZN7QObject13connectNotifyEPKc (QtCore4.__ZN7QObject13connectNotifyEPKc)
 0000:00000000  Imp  __ZN5QMenu14mouseMoveEventEP11QMouseEvent (QtGui4.__ZN5QMenu14mouseMoveEventEP11QMouseEvent)
 0000:00000000  Imp  __ZN6QTimer16staticMetaObjectE (QtCore4.__ZN6QTimer16staticMetaObjectE)
 0000:00000000  Imp  __ZN7QWidget10enterEventEP6QEvent (QtGui4.__ZN7QWidget10enterEventEP6QEvent)
 0000:00000000  Imp  __ZNK6QImage4rectEv  (QtGui4.__ZNK6QImage4rectEv)
 0000:00000000  Imp  __ZN15QAbstractButton13focusOutEventEP11QFocusEvent (QtGui4.__ZN15QAbstractButton13focusOutEventEP11QFocusEvent)
 0000:00000000  Imp  __ZN19QStyledItemDelegate11qt_metacallEN11QMetaObject4CallEiPPv (QtGui4.__ZN19QStyledItemDelegate11qt_metacallEN11QMetaObject4CallEiPPv)
 0000:00000000  Imp  __ZN8QVariantC1ERKS_ (QtCore4.__ZN8QVariantC1ERKS_)
 0000:00000000  Imp  __ZNK6QImage4sizeEv  (QtGui4.__ZNK6QImage4sizeEv)
 0000:00000000  Imp  __ZN8QPalette8setBrushENS_10ColorGroupENS_9ColorRoleERK6QBrush (QtGui4.__ZN8QPalette8setBrushENS_10ColorGroupENS_9ColorRoleERK6QBrush)
 0000:00000000  Imp  __ZN10QStatusBar21insertPermanentWidgetEiP7QWidgeti (QtGui4.__ZN10QStatusBar21insertPermanentWidgetEiP7QWidgeti)
 0000:00000000  Imp  __ZN8QPainter8fillRectERK5QRectRK6QBrush (QtGui4.__ZN8QPainter8fillRectERK5QRectRK6QBrush)
 0000:00000000  Imp  __ZNK4QUrl9toEncodedE6QFlagsINS_16FormattingOptionEE (QtCore4.__ZNK4QUrl9toEncodedE6QFlagsINS_16FormattingOptionEE)
 0000:00000000  Imp  __ZNK13QTextDocument6toHtmlERK10QByteArray (QtGui4.__ZNK13QTextDocument6toHtmlERK10QByteArray)
 0000:00000000  Imp  __ZN7QWidget14activateWindowEv (QtGui4.__ZN7QWidget14activateWindowEv)
 0000:00000000  Imp  __ZN11QTextFormatD2Ev (QtGui4.__ZN11QTextFormatD2Ev)
 0000:00000000  Imp  __ZN15QAbstractButtonC2EP7QWidget (QtGui4.__ZN15QAbstractButtonC2EP7QWidget)
 0000:00000000  Imp  __ZN7QAction16staticMetaObjectE (QtGui4.__ZN7QAction16staticMetaObjectE)
 0000:00000000  Imp  __ZN7QString16codecForCStringsE (QtCore4.__ZN7QString16codecForCStringsE)
 0000:00000000  Imp  __ZN12QTextBrowser12loadResourceEiRK4QUrl (QtGui4.__ZN12QTextBrowser12loadResourceEiRK4QUrl)
 0000:00000000  Imp  __ZNK7QString3midEii (QtCore4.__ZNK7QString3midEii)
 0000:00000000  Imp  __ZN8QVariant7convertENS_4TypeE (QtCore4.__ZN8QVariant7convertENS_4TypeE)
 0000:00000000  Imp  __ZNK7QAction4fontEv (QtGui4.__ZNK7QAction4fontEv)
 0000:00000000  Imp  __ZN10QStatusBar12insertWidgetEiP7QWidgeti (QtGui4.__ZN10QStatusBar12insertWidgetEiP7QWidgeti)
 0000:00000000  Imp  __ZN10QByteArrayC1Eic (QtCore4.__ZN10QByteArrayC1Eic)
 0000:00000000  Imp  __ZThn8_NK7QWidget11paintEngineEv (QtGui4.__ZThn8_NK7QWidget11paintEngineEv)
 0000:00000000  Imp  __ZN9QLineEdit16staticMetaObjectE (QtGui4.__ZN9QLineEdit16staticMetaObjectE)
 0000:00000000  Imp  __ZN9QDateTime11setTimeSpecEN2Qt8TimeSpecE (QtCore4.__ZN9QDateTime11setTimeSpecEN2Qt8TimeSpecE)
 0000:00000000  Imp  __ZN9QLineEdit11qt_metacastEPKc (QtGui4.__ZN9QLineEdit11qt_metacastEPKc)
 0000:00000000  Imp  __ZN5QMenu10enterEventEP6QEvent (QtGui4.__ZN5QMenu10enterEventEP6QEvent)
 0000:00000000  Imp  __ZNK7QAction4iconEv (QtGui4.__ZNK7QAction4iconEv)
 0000:00000000  Imp  __ZN11QDataStream9setStatusENS_6StatusE (QtCore4.__ZN11QDataStream9setStatusENS_6StatusE)
 0000:00000000  Imp  __ZNK7QAction15shortcutContextEv (QtGui4.__ZNK7QAction15shortcutContextEv)
 0000:00000000  Imp  __ZN9QTextEdit16contextMenuEventEP17QContextMenuEvent (QtGui4.__ZN9QTextEdit16contextMenuEventEP17QContextMenuEvent)
 0000:00000000  Imp  __ZN7QObject16staticMetaObjectE (QtCore4.__ZN7QObject16staticMetaObjectE)
 0000:00000000  Imp  __ZN7QWidget16inputMethodEventEP17QInputMethodEvent (QtGui4.__ZN7QWidget16inputMethodEventEP17QInputMethodEvent)
 0000:00000000  Imp  __ZN9QLineEdit13keyPressEventEP9QKeyEvent (QtGui4.__ZN9QLineEdit13keyPressEventEP9QKeyEvent)
 0000:00000000  Imp  __ZN11QLayoutItemD2Ev (QtGui4.__ZN11QLayoutItemD2Ev)
 0000:00000000  Imp  __ZN7QWidget12focusInEventEP11QFocusEvent (QtGui4.__ZN7QWidget12focusInEventEP11QFocusEvent)
 0000:00000000  Imp  __ZN24QAbstractEventDispatcher14setEventFilterEPFbPvE (QtCore4.__ZN24QAbstractEventDispatcher14setEventFilterEPFbPvE)
 0000:00000000  Imp  __ZN7QObject11setPropertyEPKcRK8QVariant (QtCore4.__ZN7QObject11setPropertyEPKcRK8QVariant)
 0000:00000000  Imp  __ZrsR11QDataStreamR11QSizePolicy (QtGui4.__ZrsR11QDataStreamR11QSizePolicy)
 0000:00000000  Imp  __ZN11QTextStreamD1Ev (QtCore4.__ZN11QTextStreamD1Ev)
 0000:00000000  Imp  __ZN7QWidget11tabletEventEP12QTabletEvent (QtGui4.__ZN7QWidget11tabletEventEP12QTabletEvent)
 0000:00000000  Imp  __ZN6QMovie16staticMetaObjectE (QtGui4.__ZN6QMovie16staticMetaObjectE)
 0000:00000000  Imp  ___divdi3            (gcc446.___divdi3)
 0000:00000000  Imp  __ZN10QByteArrayD1Ev (QtCore4.__ZN10QByteArrayD1Ev)
 0000:00000000  Imp  ___moddi3            (gcc446.___moddi3)
 0000:00000000  Imp  __ZN9QTextEdit24setLineWrapColumnOrWidthEi (QtGui4.__ZN9QTextEdit24setLineWrapColumnOrWidthEi)
 0000:00000000  Imp  __ZNK7QWidget14heightForWidthEi (QtGui4.__ZNK7QWidget14heightForWidthEi)
 0000:00000000  Imp  __ZN12QImageReaderD1Ev (QtGui4.__ZN12QImageReaderD1Ev)
 0000:00000000  Imp  __ZN10QBoxLayout10setSpacingEi (QtGui4.__ZN10QBoxLayout10setSpacingEi)
 0000:00000000  Imp  __ZN9QDateTimeaSERKS_ (QtCore4.__ZN9QDateTimeaSERKS_)
 0000:00000000  Imp  __ZN11QDataStream11resetStatusEv (QtCore4.__ZN11QDataStream11resetStatusEv)
 0000:00000000  Imp  __ZN9QListData11detach_growEPii (QtCore4.__ZN9QListData11detach_growEPii)
 0000:00000000  Imp  __ZNK6QImage5widthEv (QtGui4.__ZNK6QImage5widthEv)
 0000:00000000  Imp  __ZNK11QLayoutItem21minimumHeightForWidthEi (QtGui4.__ZNK11QLayoutItem21minimumHeightForWidthEi)
 0000:00000000  Imp  __ZN11QDataStreamD1Ev (QtCore4.__ZN11QDataStreamD1Ev)
 0000:00000000  Imp  __ZNK4QDir6existsEv  (QtCore4.__ZNK4QDir6existsEv)
 0000:00000000  Imp  __ZN11QTextStreamC1EP7QString6QFlagsIN9QIODevice12OpenModeFlagEE (QtCore4.__ZN11QTextStreamC1EP7QString6QFlagsIN9QIODevice12OpenModeFlagEE)
 0000:00000000  Imp  __ZN9QTextEdit10timerEventEP11QTimerEvent (QtGui4.__ZN9QTextEdit10timerEventEP11QTimerEvent)
 0000:00000000  Imp  __ZN7QWidget15setMaximumWidthEi (QtGui4.__ZN7QWidget15setMaximumWidthEi)
 0000:00000000  Imp  __ZN5QMenu18focusNextPrevChildEb (QtGui4.__ZN5QMenu18focusNextPrevChildEb)
 0000:00000000  Imp  __ZN11QTextStreamlsERK7QString (QtCore4.__ZN11QTextStreamlsERK7QString)
 0000:00000000  Imp  __ZNK8QVariant12toStringListEv (QtCore4.__ZNK8QVariant12toStringListEv)
 0000:00000000  Imp  __ZN8QPainter7setFontERK5QFont (QtGui4.__ZN8QPainter7setFontERK5QFont)
 0000:00000000  Imp  __ZN8QPainter6setPenERK6QColor (QtGui4.__ZN8QPainter6setPenERK6QColor)
 0000:00000000  Imp  __ZN11QDomElementC1Ev (QtXml4.__ZN11QDomElementC1Ev)
 0000:00000000  Imp  __ZN11QTextStream8setCodecEPKc (QtCore4.__ZN11QTextStream8setCodecEPKc)
 0000:00000000  Imp  __ZN12QTextBrowser5eventEP6QEvent (QtGui4.__ZN12QTextBrowser5eventEP6QEvent)
 0000:00000000  Imp  __ZN9QMetaType23registerStreamOperatorsEPKcPFvR11QDataStreamPKvEPFvS3_PvE (QtCore4.__ZN9QMetaType23registerStreamOperatorsEPKcPFvR11QDataStreamPKvEPFvS3_PvE)
 0000:00000000  Imp  __ZNK7QString4leftEi (QtCore4.__ZNK7QString4leftEi)
 0000:00000000  Imp  __ZN7QWidget11actionEventEP12QActionEvent (QtGui4.__ZN7QWidget11actionEventEP12QActionEvent)
 0000:00000000  Imp  __ZN11QHBoxLayoutC1Ev (QtGui4.__ZN11QHBoxLayoutC1Ev)
 0000:00000000  Imp  __ZN19QStyledItemDelegate11qt_metacastEPKc (QtGui4.__ZN19QStyledItemDelegate11qt_metacastEPKc)
 0000:00000000  Imp  __ZN7QAction11setPriorityENS_8PriorityE (QtGui4.__ZN7QAction11setPriorityENS_8PriorityE)
 0000:00000000  Imp  __ZN11QDataStreamC1EP9QIODevice (QtCore4.__ZN11QDataStreamC1EP9QIODevice)
 0000:00000000  Imp  __ZN7QWidget13focusOutEventEP11QFocusEvent (QtGui4.__ZN7QWidget13focusOutEventEP11QFocusEvent)
 0000:00000000  Imp  __ZN11QToolButton12setAutoRaiseEb (QtGui4.__ZN11QToolButton12setAutoRaiseEb)
 0000:00000000  Imp  __ZN7QWidget13setSizePolicyE11QSizePolicy (QtGui4.__ZN7QWidget13setSizePolicyE11QSizePolicy)
 0000:00000000  Imp  __ZNK11QTextFormat11intPropertyEi (QtGui4.__ZNK11QTextFormat11intPropertyEi)
 0000:00000000  Imp  __ZN5QFont8setStyleENS_5StyleE (QtGui4.__ZN5QFont8setStyleENS_5StyleE)
 0000:00000000  Imp  __ZNK10QTextBlock11blockNumberEv (QtGui4.__ZNK10QTextBlock11blockNumberEv)
 0000:00000000  Imp  __ZNK13QWidgetAction10metaObjectEv (QtGui4.__ZNK13QWidgetAction10metaObjectEv)
 0000:00000000  Imp  __ZN8QPainter8fillRectERK5QRectRK6QColor (QtGui4.__ZN8QPainter8fillRectERK5QRectRK6QColor)
 0000:00000000  Imp  __ZN11QVBoxLayoutC1Ev (QtGui4.__ZN11QVBoxLayoutC1Ev)
 0000:00000000  Imp  __ZNK7QObject6senderEv (QtCore4.__ZNK7QObject6senderEv)
 0000:00000000  Imp  __ZN16QCoreApplication9postEventEP7QObjectP6QEventi (QtCore4.__ZN16QCoreApplication9postEventEP7QObjectP6QEventi)
 0000:00000000  Imp  __ZN7QWidget15keyReleaseEventEP9QKeyEvent (QtGui4.__ZN7QWidget15keyReleaseEventEP9QKeyEvent)
 0000:00000000  Imp  __ZN8QMapData11node_deleteEPPNS_4NodeEiS1_ (QtCore4.__ZN8QMapData11node_deleteEPPNS_4NodeEiS1_)
 0000:00000000  Imp  __ZN9QDateTime10fromStringERK7QStringN2Qt10DateFormatE (QtCore4.__ZN9QDateTime10fromStringERK7QStringN2Qt10DateFormatE)
 0000:00000000  Imp  __ZN7QWidget6updateEv (QtGui4.__ZN7QWidget6updateEv)
 0000:00000000  Imp  __ZN5QFont9setWeightEi (QtGui4.__ZN5QFont9setWeightEi)
 0000:00000000  Imp  __ZN7QObject10timerEventEP11QTimerEvent (QtCore4.__ZN7QObject10timerEventEP11QTimerEvent)
 0000:00000000  Imp  __std_free           (libc065.768)
 0000:00000000  Imp  __ZN7QRegExp3capEi   (QtCore4.__ZN7QRegExp3capEi)
 0000:00000000  Imp  __ZN8QDomNode11appendChildERKS_ (QtXml4.__ZN8QDomNode11appendChildERKS_)
 0000:00000000  Imp  __ZN6QImageC1EiiNS_6FormatE (QtGui4.__ZN6QImageC1EiiNS_6FormatE)
 0000:00000000  Imp  __ZN8QVariantC1ERK10QByteArray (QtCore4.__ZN8QVariantC1ERK10QByteArray)
 0000:00000000  Imp  __ZNK7QWidget14ensurePolishedEv (QtGui4.__ZNK7QWidget14ensurePolishedEv)
 0000:00000000  Imp  __ZN21QNetworkAccessManager3getERK15QNetworkRequest (QtNet4.__ZN21QNetworkAccessManager3getERK15QNetworkRequest)
 0000:00000000  Imp  __ZN9QDateTimeC1Ev   (QtCore4.__ZN9QDateTimeC1Ev)
 0000:00000000  Imp  ___libc_Back_termDll (libc065.1953)
 0000:00000000  Imp  __ZNK7QStringeqERK13QLatin1String (QtCore4.__ZNK7QStringeqERK13QLatin1String)
 0000:00000000  Imp  __ZN9QTextEdit16inputMethodEventEP17QInputMethodEvent (QtGui4.__ZN9QTextEdit16inputMethodEventEP17QInputMethodEvent)
 0000:00000000  Imp  __ZN22QStyleOptionViewItemV4C1Ev (QtGui4.__ZN22QStyleOptionViewItemV4C1Ev)
 0000:00000000  Imp  __ZN5QMenu11changeEventEP6QEvent (QtGui4.__ZN5QMenu11changeEventEP6QEvent)
 0000:00000000  Imp  __ZNK6QImage6formatEv (QtGui4.__ZNK6QImage6formatEv)
 0000:00000000  Imp  __ZNK7QWidget5styleEv (QtGui4.__ZNK7QWidget5styleEv)
 0000:00000000  Imp  __ZN12QTextBrowser15mousePressEventEP11QMouseEvent (QtGui4.__ZN12QTextBrowser15mousePressEventEP11QMouseEvent)
 0000:00000000  Imp  __ZN12QTextBrowserD2Ev (QtGui4.__ZN12QTextBrowserD2Ev)
 0000:00000000  Imp  __ZN7QString6removeEii (QtCore4.__ZN7QString6removeEii)
 0000:00000000  Imp  __Z5qHashRK7QString  (QtCore4.__Z5qHashRK7QString)
 0000:00000000  Imp  __ZN7QAction11qt_metacastEPKc (QtGui4.__ZN7QAction11qt_metacastEPKc)
 0000:00000000  Imp  __ZN12QKeySequence10fromStringERK7QStringNS_14SequenceFormatE (QtGui4.__ZN12QKeySequence10fromStringERK7QStringNS_14SequenceFormatE)
 0000:00000000  Imp  __ZN11QDomElement10setTagNameERK7QString (QtXml4.__ZN11QDomElement10setTagNameERK7QString)
 0000:00000000  Imp  __ZN8QMenuBar5clearEv (QtGui4.__ZN8QMenuBar5clearEv)
 0000:00000000  Imp  __ZN9QLineEditD2Ev   (QtGui4.__ZN9QLineEditD2Ev)
 0000:00000000  Imp  ___fmutex_release_internal_must_complete (libc065.248)
 0000:00000000  Imp  __ZN22QStyleOptionViewItemV3C2Ei (QtGui4.__ZN22QStyleOptionViewItemV3C2Ei)
 0000:00000000  Imp  __ZNK12QKeySequence7isEmptyEv (QtGui4.__ZNK12QKeySequence7isEmptyEv)
 0000:00000000  Imp  __ZN4QDirD1Ev        (QtCore4.__ZN4QDirD1Ev)
 0000:00000000  Imp  __ZN11QTextCursor14insertFragmentERK21QTextDocumentFragment (QtGui4.__ZN11QTextCursor14insertFragmentERK21QTextDocumentFragment)
 0000:00000000  Imp  __ZNK9QTextEdit21lineWrapColumnOrWidthEv (QtGui4.__ZNK9QTextEdit21lineWrapColumnOrWidthEv)
 0000:00000000  Imp  __ZNK9QKeyEvent9modifiersEv (QtGui4.__ZNK9QKeyEvent9modifiersEv)
 0000:00000000  Imp  __ZN12QStyleOption4initEPK7QWidget (QtGui4.__ZN12QStyleOption4initEPK7QWidget)
 0000:00000000  Imp  __ZN8QPainter4saveEv (QtGui4.__ZN8QPainter4saveEv)
 0000:00000000  Imp  __ZN8QToolBar16staticMetaObjectE (QtGui4.__ZN8QToolBar16staticMetaObjectE)
 0000:00000000  Imp  __CRT_init           (libc065.167)
 0000:00000000  Imp  __ZN7QWidget13paletteChangeERK8QPalette (QtGui4.__ZN7QWidget13paletteChangeERK8QPalette)
 0000:00000000  Imp  __ZNK5QRect8containsERK6QPointb (QtCore4.__ZNK5QRect8containsERK6QPointb)
 0000:00000000  Imp  __ZN6QImage4bitsEv   (QtGui4.__ZN6QImage4bitsEv)
 0000:00000000  Imp  __ZN9QLineEdit21mouseDoubleClickEventEP11QMouseEvent (QtGui4.__ZN9QLineEdit21mouseDoubleClickEventEP11QMouseEvent)
 0000:00000000  Imp  __ZNK7QString5rightEi (QtCore4.__ZNK7QString5rightEi)
 0000:00000000  Imp  __ZN9QDateTimeD1Ev   (QtCore4.__ZN9QDateTimeD1Ev)
 0000:00000000  Imp  __ZNK11QTextCursor12selectedTextEv (QtGui4.__ZNK11QTextCursor12selectedTextEv)
 0000:00000000  Imp  __ZNK9QDateTime6secsToERKS_ (QtCore4.__ZNK9QDateTime6secsToERKS_)
 0000:00000000  Imp  __ZNK7QString7indexOfER7QRegExpi (QtCore4.__ZNK7QString7indexOfER7QRegExpi)
 0000:00000000  Imp  __ZN4QUrlC1ERK7QString (QtCore4.__ZN4QUrlC1ERK7QString)
 0000:00000000  Imp  __ZN6QImageC1ERKS_   (QtGui4.__ZN6QImageC1ERKS_)
 0000:00000000  Imp  __ZN11QDomElement15removeAttributeERK7QString (QtXml4.__ZN11QDomElement15removeAttributeERK7QString)
 0000:00000000  Imp  __ZNK6QMovie13currentPixmapEv (QtGui4.__ZNK6QMovie13currentPixmapEv)
 0000:00000000  Imp  __ZN18QItemEditorFactory14defaultFactoryEv (QtGui4.__ZN18QItemEditorFactory14defaultFactoryEv)
 0000:00000000  Imp  __ZNK5QIcon10actualSizeERK5QSizeNS_4ModeENS_5StateE (QtGui4.__ZNK5QIcon10actualSizeERK5QSizeNS_4ModeENS_5StateE)
 0000:00000000  Imp  __ZN7QWidget11resizeEventEP12QResizeEvent (QtGui4.__ZN7QWidget11resizeEventEP12QResizeEvent)
 0000:00000000  Imp  __ZNK9QDateTimeltERKS_ (QtCore4.__ZNK9QDateTimeltERKS_)
 0000:00000000  Imp  __ZNK5QTime8toStringERK7QString (QtCore4.__ZNK5QTime8toStringERK7QString)
 0000:00000000  Imp  __ZN9QHashData11free_helperEPFvPNS_4NodeEE (QtCore4.__ZN9QHashData11free_helperEPFvPNS_4NodeEE)
 0000:00000000  Imp  __ZNK16QDomNamedNodeMap6lengthEv (QtXml4.__ZNK16QDomNamedNodeMap6lengthEv)
 0000:00000000  Imp  __ZN6QImage15setAlphaChannelERKS_ (QtGui4.__ZN6QImage15setAlphaChannelERKS_)
 0000:00000000  Imp  __ZN11QDataStreamlsEa (QtCore4.__ZN11QDataStreamlsEa)
 0000:00000000  Imp  __ZN7QWidget10closeEventEP11QCloseEvent (QtGui4.__ZN7QWidget10closeEventEP11QCloseEvent)
 0000:00000000  Imp  __ZN8QPainter9drawImageERK7QPointFRK6QImage (QtGui4.__ZN8QPainter9drawImageERK7QPointFRK6QImage)
 0000:00000000  Imp  __ZNK5QTime4msecEv   (QtCore4.__ZNK5QTime4msecEv)
 0000:00000000  Imp  __ZN5QMenu17setTearOffEnabledEb (QtGui4.__ZN5QMenu17setTearOffEnabledEb)
 0000:00000000  Imp  __ZN7QAction7setTextERK7QString (QtGui4.__ZN7QAction7setTextERK7QString)
 0000:00000000  Imp  __CRT_term           (libc065.168)
 0000:00000000  Imp  __ZN11QDataStreamlsEd (QtCore4.__ZN11QDataStreamlsEd)
 0000:00000000  Imp  __ZN13QItemDelegate11eventFilterEP7QObjectP6QEvent (QtGui4.__ZN13QItemDelegate11eventFilterEP7QObjectP6QEvent)
 0000:00000000  Imp  __ZN8QPainter8setBrushERK6QBrush (QtGui4.__ZN8QPainter8setBrushERK6QBrush)
 0000:00000000  Imp  __ZN8QVariantC1ERK5QRect (QtCore4.__ZN8QVariantC1ERK5QRect)
 0000:00000000  Imp  __ZN7QAction5eventEP6QEvent (QtGui4.__ZN7QAction5eventEP6QEvent)
 0000:00000000  Imp  __Unwind_GetLanguageSpecificData (gcc446.__Unwind_GetLanguageSpecificData)
 0000:00000000  Imp  __ZNK8QToolBar15toolButtonStyleEv (QtGui4.__ZNK8QToolBar15toolButtonStyleEv)
 0000:00000000  Imp  __ZN15QAbstractButton11changeEventEP6QEvent (QtGui4.__ZN15QAbstractButton11changeEventEP6QEvent)
 0000:00000000  Imp  __ZN4QPenD1Ev        (QtGui4.__ZN4QPenD1Ev)
 0000:00000000  Imp  __ZNK13QTextDocument9findBlockEi (QtGui4.__ZNK13QTextDocument9findBlockEi)
 0000:00000000  Imp  __ZNK5QMenu5titleEv  (QtGui4.__ZNK5QMenu5titleEv)
 0000:00000000  Imp  __ZNK11QTextFormat12boolPropertyEi (QtGui4.__ZNK11QTextFormat12boolPropertyEi)
 0000:00000000  Imp  __ZN7QObject11qt_metacastEPKc (QtCore4.__ZN7QObject11qt_metacastEPKc)
 0000:00000000  Imp  __ZN7QString14compare_helperEPK5QChariS2_iN2Qt15CaseSensitivityE (QtCore4.__ZN7QString14compare_helperEPK5QChariS2_iN2Qt15CaseSensitivityE)
 0000:00000000  Imp  __ZN12QTextBrowser8backwardEv (QtGui4.__ZN12QTextBrowser8backwardEv)
 0000:00000000  Imp  __ZN8QMapData11node_createEPPNS_4NodeEii (QtCore4.__ZN8QMapData11node_createEPPNS_4NodeEii)
 0000:00000000  Imp  __ZN7QString7reallocEi (QtCore4.__ZN7QString7reallocEi)
 0000:00000000  Imp  __ZNK6QImage6heightEv (QtGui4.__ZNK6QImage6heightEv)
 0000:00000000  Imp  __ZNK6QStyle5proxyEv (QtGui4.__ZNK6QStyle5proxyEv)
 0000:00000000  Imp  __ZNK5QTime7addSecsEi (QtCore4.__ZNK5QTime7addSecsEi)
 0000:00000000  Imp  __ZN7QCursorC1EN2Qt11CursorShapeE (QtGui4.__ZN7QCursorC1EN2Qt11CursorShapeE)
 0000:00000000  Imp  __ZNK7QWidget15minimumSizeHintEv (QtGui4.__ZNK7QWidget15minimumSizeHintEv)
 0000:00000000  Imp  __ZN8QPainter6rotateEd (QtGui4.__ZN8QPainter6rotateEd)
 0000:00000000  Imp  __ZN11QDataStreamlsEx (QtCore4.__ZN11QDataStreamlsEx)
 0000:00000000  Imp  __ZN8QDomNode11removeChildERKS_ (QtXml4.__ZN8QDomNode11removeChildERKS_)
 0000:00000000  Imp  __ZN6QTimer5startEv  (QtCore4.__ZN6QTimer5startEv)
 0000:00000000  Imp  __ZNK19QAbstractScrollArea15minimumSizeHintEv (QtGui4.__ZNK19QAbstractScrollArea15minimumSizeHintEv)
 0000:00000000  Imp  __ZN7QLocaleaSERKS_  (QtCore4.__ZN7QLocaleaSERKS_)
 0000:00000000  Imp  __ZeqRK10QStringRefS1_ (QtCore4.__ZeqRK10QStringRefS1_)
 0000:00000000  Imp  __ZNK5QChar16isLetterOrNumberEv (QtCore4.__ZNK5QChar16isLetterOrNumberEv)
 0000:00000000  Imp  __ZN7QAction11setShortcutERK12QKeySequence (QtGui4.__ZN7QAction11setShortcutERK12QKeySequence)
 0000:00000000  Imp  __ZN21QStyleOptionFocusRectC1Ev (QtGui4.__ZN21QStyleOptionFocusRectC1Ev)
 0000:00000000  Imp  __ZN11QTextCursor11insertImageERK16QTextImageFormat (QtGui4.__ZN11QTextCursor11insertImageERK16QTextImageFormat)
 0000:00000000  Imp  _inflateEnd          (QtCore4._inflateEnd)
 0000:00000000  Imp  __ZN9QDateTime10fromStringERK7QStringS2_ (QtCore4.__ZN9QDateTime10fromStringERK7QStringS2_)
 0000:00000000  Imp  __ZNK7QWidget15layoutDirectionEv (QtGui4.__ZNK7QWidget15layoutDirectionEv)
 0000:00000000  Imp  ___libc_TLSDestructor (libc065.370)
 0000:00000000  Imp  __ZNK11QToolButton9popupModeEv (QtGui4.__ZNK11QToolButton9popupModeEv)
 0000:00000000  Imp  __ZN7QAction13setAutoRepeatEb (QtGui4.__ZN7QAction13setAutoRepeatEb)
 0000:00000000  Imp  __ZN6QImageC1ERK5QSizeNS_6FormatE (QtGui4.__ZN6QImageC1ERK5QSizeNS_6FormatE)
 0000:00000000  Imp  __ZNK13QItemDelegate9drawFocusEP8QPainterRK20QStyleOptionViewItemRK5QRect (QtGui4.__ZNK13QItemDelegate9drawFocusEP8QPainterRK20QStyleOptionViewItemRK5QRect)
 0000:00000000  Imp  __ZNK7QPixmap6isNullEv (QtGui4.__ZNK7QPixmap6isNullEv)
 0000:00000000  Imp  __ZNK7QWidget13frameGeometryEv (QtGui4.__ZNK7QWidget13frameGeometryEv)
 0000:00000000  Imp  __ZN15QAbstractButton15keyReleaseEventEP9QKeyEvent (QtGui4.__ZN15QAbstractButton15keyReleaseEventEP9QKeyEvent)
 0000:00000000  Imp  __ZNK9QDateTime4timeEv (QtCore4.__ZNK9QDateTime4timeEv)
 0000:00000000  Imp  __ZN6QMovie5startEv  (QtGui4.__ZN6QMovie5startEv)
 0000:00000000  Imp  __ZN9QHashData12allocateNodeEi (QtCore4.__ZN9QHashData12allocateNodeEi)
 0000:00000000  Imp  __ZN7QString7replaceEiiRKS_ (QtCore4.__ZN7QString7replaceEiiRKS_)
 0000:00000000  Imp  __ZN6QTimer5startEi  (QtCore4.__ZN6QTimer5startEi)
 0000:00000000  Imp  __ZN8QToolBar5clearEv (QtGui4.__ZN8QToolBar5clearEv)
 0000:00000000  Imp  __ZN9QDateTime15currentDateTimeEv (QtCore4.__ZN9QDateTime15currentDateTimeEv)
 0000:00000000  Imp  __ZNK7QWidget6layoutEv (QtGui4.__ZNK7QWidget6layoutEv)
 0000:00000000  Imp  __ZN7QWidget4moveERK6QPoint (QtGui4.__ZN7QWidget4moveERK6QPoint)
 0000:00000000  Imp  __ZN11QDataStreamrsERx (QtCore4.__ZN11QDataStreamrsERx)
 0000:00000000  Imp  __ZNK8QPalette5brushENS_10ColorGroupENS_9ColorRoleE (QtGui4.__ZNK8QPalette5brushENS_10ColorGroupENS_9ColorRoleE)
 0000:00000000  Imp  __ZN7QCursor3posEv   (QtGui4.__ZN7QCursor3posEv)
 0000:00000000  Imp  __ZNK21QTextDocumentFragment11toPlainTextEv (QtGui4.__ZNK21QTextDocumentFragment11toPlainTextEv)
 0000:00000000  Imp  __ZN7QWidget10wheelEventEP11QWheelEvent (QtGui4.__ZN7QWidget10wheelEventEP11QWheelEvent)
 0000:00000000  Imp  __ZNK17QDomCharacterData4dataEv (QtXml4.__ZNK17QDomCharacterData4dataEv)
 0000:00000000  Imp  __ZN7QWidget13showMaximizedEv (QtGui4.__ZN7QWidget13showMaximizedEv)
 0000:00000000  Imp  __ZN9QtPrivate20QStringList_containsEPK11QStringListRK7QStringN2Qt15CaseSensitivityE (QtCore4.__ZN9QtPrivate20QStringList_containsEPK11QStringListRK7QStringN2Qt15CaseSensitivityE)
 0000:00000000  Imp  __ZN9QLineEdit11qt_metacallEN11QMetaObject4CallEiPPv (QtGui4.__ZN9QLineEdit11qt_metacallEN11QMetaObject4CallEiPPv)
 0000:00000000  Imp  __ZN8QDomNodeaSERKS_ (QtXml4.__ZN8QDomNodeaSERKS_)
 0000:00000000  Imp  __errno              (libc065.541)
 0000:00000000  Imp  __ZN6QBrushaSERKS_   (QtGui4.__ZN6QBrushaSERKS_)
 0000:00000000  Imp  __ZNK11QTextCursor12atBlockStartEv (QtGui4.__ZNK11QTextCursor12atBlockStartEv)
 0000:00000000  Imp  __ZN4QDir9cleanPathERK7QString (QtCore4.__ZN4QDir9cleanPathERK7QString)
 0000:00000000  Imp  __ZN13QTextDocumentC1EP7QObject (QtGui4.__ZN13QTextDocumentC1EP7QObject)
 0000:00000000  Imp  __ZTVN10__cxxabiv121__vmi_class_type_infoE (libc065.5140)
 0000:00000000  Imp  __ZN5QFile10encodeNameERK7QString (QtCore4.__ZN5QFile10encodeNameERK7QString)
 0000:00000000  Abs  WEAK$ZERO
 0000:00000000  Imp  __ZNK9QDateTime7msecsToERKS_ (QtCore4.__ZNK9QDateTime7msecsToERKS_)
 0000:00000000  Imp  __ZNK6QImage13scaledToWidthEiN2Qt18TransformationModeE (QtGui4.__ZNK6QImage13scaledToWidthEiN2Qt18TransformationModeE)
 0000:00000000  Imp  __ZN7QAction7setIconERK5QIcon (QtGui4.__ZN7QAction7setIconERK5QIcon)
 0000:00000000  Imp  __ZN15QAbstractButton14nextCheckStateEv (QtGui4.__ZN15QAbstractButton14nextCheckStateEv)
 0000:00000000  Imp  __ZN10QByteArray10fromBase64ERKS_ (QtCore4.__ZN10QByteArray10fromBase64ERKS_)
 0000:00000000  Imp  __ZN8QVariantC1ERK11QStringList (QtCore4.__ZN8QVariantC1ERK11QStringList)
 0000:00000000  Imp  __ZNK9QDateTime4dateEv (QtCore4.__ZNK9QDateTime4dateEv)
 0000:00000000  Imp  __ZN7QWidget5raiseEv (QtGui4.__ZN7QWidget5raiseEv)
 0000:00000000  Imp  __ZNK12QKeySequencecv8QVariantEv (QtGui4.__ZNK12QKeySequencecv8QVariantEv)
 0000:00000000  Imp  __ZNK11QToolButton9autoRaiseEv (QtGui4.__ZNK11QToolButton9autoRaiseEv)
 0000:00000000  Imp  __ZN12QFontMetricsD1Ev (QtGui4.__ZN12QFontMetricsD1Ev)
 0000:00000000  Imp  __ZNK7QString3argExiiRK5QChar (QtCore4.__ZNK7QString3argExiiRK5QChar)
 0000:00000000  Imp  __ZN11QLayoutItem10spacerItemEv (QtGui4.__ZN11QLayoutItem10spacerItemEv)
 0000:00000000  Imp  __ZN5QMenu10leaveEventEP6QEvent (QtGui4.__ZN5QMenu10leaveEventEP6QEvent)
 0000:00000000  Imp  __ZNK7QPixmap4sizeEv (QtGui4.__ZNK7QPixmap4sizeEv)
 0000:00000000  Imp  ___deregister_frame  (gcc446.___deregister_frame)
 0000:00000000  Imp  __ZN9QTextEdit12focusInEventEP11QFocusEvent (QtGui4.__ZN9QTextEdit12focusInEventEP11QFocusEvent)
 0000:00000000  Imp  __ZN6QBrushC1ERKS_   (QtGui4.__ZN6QBrushC1ERKS_)
 0000:00000000  Imp  __ZN8QToolBar9addWidgetEP7QWidget (QtGui4.__ZN8QToolBar9addWidgetEP7QWidget)
 0000:00000000  Imp  __ZNK11QDomElement12hasAttributeERK7QString (QtXml4.__ZNK11QDomElement12hasAttributeERK7QString)
 0000:00000000  Imp  __ZNK5QMenu4iconEv   (QtGui4.__ZNK5QMenu4iconEv)
 0000:00000000  Imp  __ZN12QStyleOptionD1Ev (QtGui4.__ZN12QStyleOptionD1Ev)
 0000:00000000  Imp  __ZNK13QTextDocument10firstBlockEv (QtGui4.__ZNK13QTextDocument10firstBlockEv)
 0000:00000000  Imp  __ZN12QStyleOptionD2Ev (QtGui4.__ZN12QStyleOptionD2Ev)
 0000:00000000  Imp  __ZN9QHashData12previousNodeEPNS_4NodeE (QtCore4.__ZN9QHashData12previousNodeEPNS_4NodeE)
 0000:00000000  Imp  __ZNK4QUrl8toStringE6QFlagsINS_16FormattingOptionEE (QtCore4.__ZNK4QUrl8toStringE6QFlagsINS_16FormattingOptionEE)
 0000:00000000  Imp  __ZN7QString9fromAsciiEPKci (QtCore4.__ZN7QString9fromAsciiEPKci)
 0000:00000000  Imp  __ZN9QShortcut10setContextEN2Qt15ShortcutContextE (QtGui4.__ZN9QShortcut10setContextEN2Qt15ShortcutContextE)
 0000:00000000  Imp  __ZNK7QString8multiArgEiPPKS_ (QtCore4.__ZNK7QString8multiArgEiPPKS_)
 0000:00000000  Imp  __ZNK6QImage6isNullEv (QtGui4.__ZNK6QImage6isNullEv)
 0000:00000000  Imp  __ZNK5QIcon6isNullEv (QtGui4.__ZNK5QIcon6isNullEv)
 0000:00000000  Imp  __ZN7QString4growEi  (QtCore4.__ZN7QString4growEi)
 0000:00000000  Imp  __ZNK12QFontMetrics10elidedTextERK7QStringN2Qt13TextElideModeEii (QtGui4.__ZNK12QFontMetrics10elidedTextERK7QStringN2Qt13TextElideModeEii)
 0000:00000000  Imp  __ZN8QPainter6setPenERK4QPen (QtGui4.__ZN8QPainter6setPenERK4QPen)
 0000:00000000  Imp  __ZN5QMenu9hideEventEP10QHideEvent (QtGui4.__ZN5QMenu9hideEventEP10QHideEvent)
 0000:00000000  Imp  __ZN7QWidget10fontChangeERK5QFont (QtGui4.__ZN7QWidget10fontChangeERK5QFont)
 0000:00000000  Imp  __ZNK15QAbstractButton8iconSizeEv (QtGui4.__ZNK15QAbstractButton8iconSizeEv)
 0000:00000000  Imp  __ZN19QStyledItemDelegate16staticMetaObjectE (QtGui4.__ZN19QStyledItemDelegate16staticMetaObjectE)
 0000:00000000  Imp  __ZNK9QDateTime10toTimeSpecEN2Qt8TimeSpecE (QtCore4.__ZNK9QDateTime10toTimeSpecEN2Qt8TimeSpecE)
 0000:00000000  Imp  __ZN9QTextEdit21mouseDoubleClickEventEP11QMouseEvent (QtGui4.__ZN9QTextEdit21mouseDoubleClickEventEP11QMouseEvent)
 0000:00000000  Imp  __ZN7QRegExpC1ERK7QStringN2Qt15CaseSensitivityENS_13PatternSyntaxE (QtCore4.__ZN7QRegExpC1ERK7QStringN2Qt15CaseSensitivityENS_13PatternSyntaxE)
 0000:00000000  Imp  __ZN11QToolButton18setToolButtonStyleEN2Qt15ToolButtonStyleE (QtGui4.__ZN11QToolButton18setToolButtonStyleEN2Qt15ToolButtonStyleE)
 0000:00000000  Imp  __ZNK7QStringeqERKS_ (QtCore4.__ZNK7QStringeqERKS_)
 0000:00000000  Imp  __ZN15QAbstractButton14mouseMoveEventEP11QMouseEvent (QtGui4.__ZN15QAbstractButton14mouseMoveEventEP11QMouseEvent)
 0000:00000000  Imp  __ZN9QShortcut16staticMetaObjectE (QtGui4.__ZN9QShortcut16staticMetaObjectE)
 0000:00000000  Imp  __ZNK11QTextCursor9selectionEv (QtGui4.__ZNK11QTextCursor9selectionEv)
 0000:00000000  Imp  __ZNK7QString8endsWithERKS_N2Qt15CaseSensitivityE (QtCore4.__ZNK7QString8endsWithERKS_N2Qt15CaseSensitivityE)
 0000:00000000  Imp  __ZN12QDomDocument10importNodeERK8QDomNodeb (QtXml4.__ZN12QDomDocument10importNodeERK8QDomNodeb)
 0000:00000000  Imp  __ZN7QWidget16setMaximumHeightEi (QtGui4.__ZN7QWidget16setMaximumHeightEi)
 0000:00000000  Imp  __ZN9QLineEdit16inputMethodEventEP17QInputMethodEvent (QtGui4.__ZN9QLineEdit16inputMethodEventEP17QInputMethodEvent)
 0000:00000000  Imp  __ZN8QToolBar15insertSeparatorEP7QAction (QtGui4.__ZN8QToolBar15insertSeparatorEP7QAction)
 0000:00000000  Imp  __ZNK8QDomNode13hasChildNodesEv (QtXml4.__ZNK8QDomNode13hasChildNodesEv)
 0000:00000000  Imp  __ZNK7QPixmap5widthEv (QtGui4.__ZNK7QPixmap5widthEv)
 0001:00000000       __text
 0001:000000A0       __ZN5QHashI7QString3JidE13duplicateNodeEPN9QHashData4NodeEPv$w$RbmQ7RvpfD690XI54
 0001:00000150       __ZN10QByteArrayD1Ev$w$RbmQ7RvpfD690XI54
 0001:00000180       __ZN7QStringD1Ev$w$RbmQ7RvpfD690XI54
 0001:000001B0       __ZN5QHashI7QString3JidE11deleteNode2EPN9QHashData4NodeE$w$RbmQ7RvpfD690XI54
 0001:00000270       __Z21qMetaTypeDeleteHelperI3JidEvPT_$w$RbmQ7RvpfD690XI54
 0001:00000310       __Z13stringPreparePK16Stringprep_tableRK7QString
 0001:00000430       __ZN7JidDataC2Ev
 0001:00000430       __ZN7JidDataC1Ev
 0001:00000520       __ZN7JidDataC2ERKS_
 0001:00000520       __ZN7JidDataC1ERKS_
 0001:00000700       __ZN3JidD1Ev
 0001:00000700       __ZN3JidD2Ev
 0001:00000780       __ZNK3Jid7isValidEv
 0001:000007C0       __ZNK3Jid7isEmptyEv
 0001:000007F0       __ZNK3Jid4nodeEv
 0001:00000820       __ZNK3Jid5pNodeEv
 0001:00000850       __ZNK3Jid6domainEv
 0001:00000880       __ZNK3Jid7pDomainEv
 0001:000008B0       __ZNK3Jid8resourceEv
 0001:000008E0       __ZNK3Jid9pResourceEv
 0001:00000910       __ZNK3Jid4bareEv
 0001:00000940       __ZNK3Jid5pBareEv
 0001:00000970       __ZNK3Jid4fullEv
 0001:00000990       __ZNK3Jid5pFullEv
 0001:000009B0       __ZNK3JideqERKS_
 0001:000009E0       __ZNK3JidneERKS_
 0001:00000A00       __ZNK3JidaaERKS_
 0001:00000A30       __ZNK3JidltERKS_
 0001:00000A60       __ZNK3JidgtERKS_
 0001:00000A90       __ZN3Jid6encodeERK7QString
 0001:00000D10       __ZN3Jid6decodeERK7QString
 0001:00001010       __ZN3Jid11nodePrepareERK7QString
 0001:00001040       __ZN3Jid13domainPrepareERK7QString
 0001:00001070       __ZN3Jid15resourcePrepareERK7QString
 0001:000010A0       __Z5qHashRK3Jid
 0001:00001100       __ZlsR11QDataStreamRK3Jid
 0001:00001170       __Z19qMetaTypeSaveHelperI3JidEvR11QDataStreamPKT_$w$RbmQ7RvpfD690XI54
 0001:00001180       __Z17qRegisterMetaTypeI3JidEiPKcPT_$w$RbmQ7RvpfD690XI54
 0001:000011F0       __Z26registerJidStreamOperatorsv
 0001:00001240       __ZN5QListI5QCharED1Ev$w$RbmQ7RvpfD690XI54
 0001:00001270       __ZN5QListI7QStringED1Ev$w$RbmQ7RvpfD690XI54
 0001:000012A0       __ZN18QSharedDataPointerI7JidDataED1Ev$w$RbmQ7RvpfD690XI54
 0001:00001320       __ZNK5QListI5QCharE7indexOfERKS0_i$w$RbmQ7RvpfD690XI54
 0001:000013C0       __ZNK5QListI7QStringE7indexOfERKS0_i$w$RbmQ7RvpfD690XI54
 0001:00001470       __ZN3Jid8unescapeERK7QString
 0001:00001620       __ZNK3Jid5uBareEv
 0001:000017D0       __ZNK3Jid5uFullEv
 0001:000018C0       __ZNK3Jid5uNodeEv
 0001:00001930       __ZN3Jid6escapeERK7QString
 0001:00001B20       __ZNK5QHashI7QString3JidE8findNodeERKS0_Pj$w$RbmQ7RvpfD690XI54
 0001:00001BA0       __ZN5QHashI7QString3JidE13detach_helperEv$w$RbmQ7RvpfD690XI54
 0001:00001C10       __ZN5QListI5QCharE18detach_helper_growEii$w$RbmQ7RvpfD690XI54
 0001:00001CF0       __ZN5QListI5QCharE6appendERKS0_$w$RbmQ7RvpfD690XI54
 0001:00001D70       __ZN5QListI5QCharE13detach_helperEi$w$RbmQ7RvpfD690XI54
 0001:00001DF0       __ZN5QListI5QCharE13detach_helperEv$w$RbmQ7RvpfD690XI54
 0001:00001E10       __ZN5QListI7QStringE18detach_helper_growEii$w$RbmQ7RvpfD690XI54
 0001:00001F00       __ZN5QListI7QStringE6appendERKS0_$w$RbmQ7RvpfD690XI54
 0001:00001FA0       __ZN5QListI7QStringE13detach_helperEi$w$RbmQ7RvpfD690XI54
 0001:00002020       __ZN5QListI7QStringE13detach_helperEv$w$RbmQ7RvpfD690XI54
 0001:00002040       __ZN18QSharedDataPointerI7JidDataE13detach_helperEv$w$RbmQ7RvpfD690XI54
 0001:00002100       __ZN3Jid15parseFromStringERK7QString
 0001:000037C0       __ZN3JidaSERK7QString
 0001:000037D0       __ZrsR11QDataStreamR3Jid
 0001:00003850       __Z19qMetaTypeLoadHelperI3JidEvR11QDataStreamPT_$w$RbmQ7RvpfD690XI54
 0001:00003860       __ZN3Jid11setResourceERK7QString
 0001:00003B00       __ZN3Jid9setDomainERK7QString
 0001:00003DA0       __ZN3Jid7setNodeERK7QString
 0001:00004040       __ZN3JidC1ERK7QStringS2_S2_
 0001:00004040       __ZN3JidC2ERK7QStringS2_S2_
 0001:00004270       __ZN3JidC1ERK7QString
 0001:00004270       __ZN3JidC2ERK7QString
 0001:000042B0       __ZN3Jid13fromUserInputERK7QString
 0001:00004520       __Z24qMetaTypeConstructHelperI3JidEPvPKT_$w$RbmQ7RvpfD690XI54
 0001:000045D0       __ZNK3JidaaERK7QString
 0001:000046B0       __ZNK3JideqERK7QString
 0001:00004790       __ZNK3JidneERK7QString
 0001:00004FE0       __ZN3JidC1EPKc
 0001:00004FE0       __ZN3JidC2EPKc
 0001:00005100       __ZN7QStringD1Ev$w$LkOn7VvpfD6X14P70
 0001:00005130       __ZN13VersionParserC1Essss
 0001:00005130       __ZN13VersionParserC2Essss
 0001:00005160       __ZN13VersionParserD2Ev
 0001:00005160       __ZN13VersionParserD1Ev
 0001:00005170       __ZNK13VersionParser12majorVersionEv
 0001:00005180       __ZNK13VersionParser12minorVersionEv
 0001:00005190       __ZNK13VersionParser13releaseNumberEv
 0001:000051A0       __ZNK13VersionParser11buildNumberEv
 0001:000051B0       __ZNK13VersionParser13versionNumberEv
 0001:00005230       __ZNK13VersionParser8toStringENS_4PartE
 0001:00005770       __ZN13VersionParseraSERKS_
 0001:000057A0       __ZNK13VersionParsereqERKS_
 0001:00005870       __ZNK13VersionParserneERKS_
 0001:00005940       __ZNK13VersionParserltERKS_
 0001:00005A60       __ZNK13VersionParserleERKS_
 0001:00005B80       __ZNK13VersionParsergtERKS_
 0001:00005CA0       __ZNK13VersionParsergeERKS_
 0001:00005DC0       __ZN5QListI7QStringED2Ev$w$LkOn7VvpfD6X14P70
 0001:00005DF0       __ZN5QListI7QStringE13detach_helperEi$w$LkOn7VvpfD6X14P70
 0001:00005E70       __ZN5QListI7QStringE13detach_helperEv$w$LkOn7VvpfD6X14P70
 0001:00005E90       __ZN13VersionParserC2ERK7QString
 0001:00005E90       __ZN13VersionParserC1ERK7QString
 0001:00006340       __ZN7QStringD1Ev$w$f88ZN9wpfD61qkSl0
 0001:00006370       __ZNK9XmppError6isNullEv
 0001:000063A0       __ZNK9XmppError13isStreamErrorEv
 0001:000063C0       __ZNK9XmppError13isStanzaErrorEv
 0001:000063E0       __ZNK9XmppError15isInternalErrorEv
 0001:00006400       __ZNK9XmppError7errorNsEv
 0001:00006420       __ZNK9XmppError9conditionEv
 0001:00006440       __ZNK9XmppError13conditionTextEv
 0001:00006460       __ZNK9XmppError9errorTextERK7QString
 0001:00006850       __ZNK9XmppError12appConditionERK7QString
 0001:00006910       __ZN9XmppError15getErrorMessageERK7QStringS2_
 0001:000069C0       __ZN15XmppStreamError15conditionByCodeENS_14ErrorConditionE
 0001:00006A50       __ZNK15XmppStanzaError7errorByEv
 0001:00006A70       __ZNK15XmppStanzaError9errorTypeEv
 0001:00006A90       __ZN15XmppStanzaError10typeByCodeENS_9ErrorTypeE
 0001:00006B20       __ZN15XmppStanzaError15typeByConditionENS_14ErrorConditionE
 0001:00006B90       __ZN15XmppStanzaError15conditionByCodeENS_14ErrorConditionE
 0001:00006C20       __ZN4QMapI7QStringS0_ED1Ev$w$f88ZN9wpfD61qkSl0
 0001:00006C50       __ZN18QSharedDataPointerI13XmppErrorDataED1Ev$w$f88ZN9wpfD61qkSl0
 0001:00006D80       __ZN15XmppStanzaErrorD1Ev$w$f88ZN9wpfD61qkSl0
 0001:00006EB0       __ZN9XmppErrorC2ERK18QSharedDataPointerI13XmppErrorDataE
 0001:00006EB0       __ZN9XmppErrorC1ERK18QSharedDataPointerI13XmppErrorDataE
 0001:00007010       __ZN15XmppStanzaErrorC2ERK18QSharedDataPointerI13XmppErrorDataE
 0001:00007010       __ZN15XmppStanzaErrorC1ERK18QSharedDataPointerI13XmppErrorDataE
 0001:00007020       __ZNK9XmppError13toStanzaErrorEv
 0001:00007070       __ZN15XmppStreamErrorC1ERK18QSharedDataPointerI13XmppErrorDataE
 0001:00007070       __ZN15XmppStreamErrorC2ERK18QSharedDataPointerI13XmppErrorDataE
 0001:00007080       __ZNK9XmppError13toStreamErrorEv
 0001:000070D0       __ZN5QListI7QStringED1Ev$w$f88ZN9wpfD61qkSl0
 0001:00007100       __ZN4QMapI7QStringS_IS0_S0_EED1Ev$w$f88ZN9wpfD61qkSl0
 0001:00007130       __ZNK4QMapIN15XmppStreamError14ErrorConditionE7QStringE3keyERKS2_RKS1_$w$f88ZN9wpfD61qkSl0
 0001:00007190       __ZN15XmppStreamError15codeByConditionERK7QString
 0001:000071C0       __ZNK15XmppStreamError13conditionCodeEv
 0001:00007220       __ZNK4QMapIN15XmppStanzaError9ErrorTypeE7QStringE3keyERKS2_RKS1_$w$f88ZN9wpfD61qkSl0
 0001:00007280       __ZN15XmppStanzaError10codeByTypeERK7QString
 0001:000072B0       __ZNK15XmppStanzaError13errorTypeCodeEv
 0001:00007310       __ZNK4QMapIN15XmppStanzaError14ErrorConditionE7QStringE3keyERKS2_RKS1_$w$f88ZN9wpfD61qkSl0
 0001:00007370       __ZN15XmppStanzaError15codeByConditionERK7QString
 0001:000073A0       __ZNK15XmppStanzaError13conditionCodeEv
 0001:00007400       __ZNK4QMapI7QStringS0_E15mutableFindNodeEPPN8QMapData4NodeERKS0_$w$f88ZN9wpfD61qkSl0
 0001:00007490       __ZNK4QMapI7QStringS_IS0_S_IS0_S0_EEE15mutableFindNodeEPPN8QMapData4NodeERKS0_$w$f88ZN9wpfD61qkSl0
 0001:00007520       __ZNK4QMapI7QStringS_IS0_S0_EE15mutableFindNodeEPPN8QMapData4NodeERKS0_$w$f88ZN9wpfD61qkSl0
 0001:000075B0       __ZNK4QMapIN15XmppStreamError14ErrorConditionE7QStringE15mutableFindNodeEPPN8QMapData4NodeERKS1_$w$f88ZN9wpfD61qkSl0
 0001:00007620       __ZNK4QMapIN15XmppStanzaError9ErrorTypeE7QStringE15mutableFindNodeEPPN8QMapData4NodeERKS1_$w$f88ZN9wpfD61qkSl0
 0001:00007690       __ZNK4QMapIN15XmppStanzaError14ErrorConditionENS0_9ErrorTypeEE15mutableFindNodeEPPN8QMapData4NodeERKS1_$w$f88ZN9wpfD61qkSl0
 0001:00007700       __ZNK4QMapIN15XmppStanzaError14ErrorConditionE7QStringE15mutableFindNodeEPPN8QMapData4NodeERKS1_$w$f88ZN9wpfD61qkSl0
 0001:00007770       __ZN5QListI7QStringE13detach_helperEi$w$f88ZN9wpfD61qkSl0
 0001:000077F0       __ZN5QListI7QStringE13detach_helperEv$w$f88ZN9wpfD61qkSl0
 0001:00007810       __ZN5QListI7QStringE7reserveEi$w$f88ZN9wpfD61qkSl0
 0001:00007850       __ZN5QListI7QStringE18detach_helper_growEii$w$f88ZN9wpfD61qkSl0
 0001:00007940       __ZN5QListI7QStringE6appendERKS0_$w$f88ZN9wpfD61qkSl0
 0001:000079E0       __ZNK4QMapI7QStringS0_E4keysEv$w$f88ZN9wpfD61qkSl0
 0001:00007A60       __ZNK9XmppError18appConditionNsListEv
 0001:00007A90       __ZNK9XmppError14errorTextLangsEv
 0001:00007AC0       __ZN4QMapI7QStringS0_E13detach_helperEv$w$f88ZN9wpfD61qkSl0
 0001:00007BA0       __ZN4QMapI7QStringS0_E6removeERKS0_$w$f88ZN9wpfD61qkSl0
 0001:00007CE0       __ZN18QSharedDataPointerI13XmppErrorDataE13detach_helperEv$w$f88ZN9wpfD61qkSl0
 0001:00007F30       __ZN15XmppStanzaError12setErrorTypeENS_9ErrorTypeE
 0001:00007FD0       __ZN15XmppStanzaError10setErrorByERK7QString
 0001:00008010       __ZN9XmppError16setConditionTextERK7QString
 0001:00008050       __ZN9XmppError12setConditionERK7QString
 0001:00008090       __ZN15XmppStanzaError12setConditionENS_14ErrorConditionE
 0001:000080F0       __ZN15XmppStreamError12setConditionENS_14ErrorConditionE
 0001:00008150       __ZN9XmppError10setErrorNsERK7QString
 0001:00008190       __ZN4QMapI7QStringS_IS0_S0_EE11node_createEP8QMapDataPPNS3_4NodeERKS0_RKS1_$w$f88ZN9wpfD61qkSl0
 0001:00008280       __ZN9XmppError15setAppConditionERK7QStringS2_
 0001:000083A0       __ZN9XmppError12setErrorTextERK7QStringS2_
 0001:000084C0       __ZN9XmppErrorC1ERK7QStringS2_S2_
 0001:000084C0       __ZN9XmppErrorC2ERK7QStringS2_S2_
 0001:00008760       __ZN15XmppStanzaErrorC1ENS_14ErrorConditionERK7QStringNS_9ErrorTypeES3_
 0001:00008760       __ZN15XmppStanzaErrorC2ENS_14ErrorConditionERK7QStringNS_9ErrorTypeES3_
 0001:00008890       __ZN15XmppStreamErrorC1ENS_14ErrorConditionERK7QString
 0001:00008890       __ZN15XmppStreamErrorC2ENS_14ErrorConditionERK7QString
 0001:000089A0       __ZN9XmppErrorC1E11QDomElementRK7QString
 0001:000089A0       __ZN9XmppErrorC2E11QDomElementRK7QString
 0001:00009140       __ZN15XmppStanzaErrorC1E11QDomElement
 0001:00009140       __ZN15XmppStanzaErrorC2E11QDomElement
 0001:00009400       __ZN15XmppStreamErrorC1E11QDomElement
 0001:00009400       __ZN15XmppStreamErrorC2E11QDomElement
 0001:000094D0       __ZN4QMapI7QStringS_IS0_S0_EE13detach_helperEv$w$f88ZN9wpfD61qkSl0
 0001:00009640       __ZN4QMapI7QStringS_IS0_S_IS0_S0_EEE11node_createEP8QMapDataPPNS4_4NodeERKS0_RKS2_$w$f88ZN9wpfD61qkSl0
 0001:00009730       __ZN4QMapI7QStringS_IS0_S_IS0_S0_EEE13detach_helperEv$w$f88ZN9wpfD61qkSl0
 0001:000098A0       __ZN9XmppError13registerErrorERK7QStringS2_S2_S2_
 0001:00009ED0       __ZN15XmppStanzaError20registerStanzaErrorsEv
 0001:0000C3E0       __ZN15XmppStreamError20registerStreamErrorsEv
 0001:0000E660       __ZN9XmppError14registerErrorsEv
 0001:0000E690       __ZN9XmppError14getErrorStringERK7QStringS2_S2_
 0001:0000EAE0       __ZNK9XmppError11errorStringERK7QString
 0001:0000ED50       __ZNK9XmppError12errorMessageERK7QStringS2_
 0001:0000EE20       __ZN4QMapIN15XmppStreamError14ErrorConditionE7QStringE13detach_helperEv$w$f88ZN9wpfD61qkSl0
 0001:0000EEF0       __ZN15XmppStreamError10initializeEv
 0001:00010430       __ZN4QMapIN15XmppStanzaError9ErrorTypeE7QStringE13detach_helperEv$w$f88ZN9wpfD61qkSl0
 0001:00010500       __ZN4QMapIN15XmppStanzaError14ErrorConditionENS0_9ErrorTypeEE13detach_helperEv$w$f88ZN9wpfD61qkSl0
 0001:000105D0       __ZN4QMapIN15XmppStanzaError14ErrorConditionE7QStringE13detach_helperEv$w$f88ZN9wpfD61qkSl0
 0001:000106C0       __ZN15XmppStanzaError10initializeEv
 0001:00012A90       __ZN9XmppError10initializeEv
 0001:00012AC0       __ZN9XmppErrorC2Ev
 0001:00012AC0       __ZN9XmppErrorC1Ev
 0001:00012CE0       __ZN15XmppStanzaErrorC2ERK6Stanza
 0001:00012CE0       __ZN15XmppStanzaErrorC1ERK6Stanza
 0001:00013050       __ZN15XmppStanzaErrorC1Ev
 0001:00013050       __ZN15XmppStanzaErrorC2Ev
 0001:000130A0       __ZN15XmppStreamErrorC1Ev
 0001:000130A0       __ZN15XmppStreamErrorC2Ev
 0001:00013550       __ZN7QStringD1Ev$w$jSyFoewpfD6ZPOCx2
 0001:00013580       __ZN10StanzaDataC1ERK7QString
 0001:00013580       __ZN10StanzaDataC2ERK7QString
 0001:00013610       __ZN10StanzaDataC1ERK11QDomElement
 0001:00013610       __ZN10StanzaDataC2ERK11QDomElement
 0001:000136B0       __ZN10StanzaDataC2ERKS_
 0001:000136B0       __ZN10StanzaDataC1ERKS_
 0001:00013760       __ZN6StanzaD2Ev
 0001:00013760       __ZN6StanzaD1Ev
 0001:000137A0       __ZNK6Stanza8documentEv
 0001:000137D0       __ZNK6Stanza7elementEv
 0001:00013800       __ZNK6Stanza9attributeERK7QString
 0001:000138B0       __ZNK6Stanza7tagNameEv
 0001:00013920       __ZNK6Stanza4typeEv
 0001:000139A0       __ZNK6Stanza2idEv
 0001:00013A20       __ZNK6Stanza2toEv
 0001:00013AA0       __ZNK6Stanza4fromEv
 0001:00013B10       __ZNK6Stanza12isFromServerEv
 0001:00013D40       __ZNK6Stanza4langEv
 0001:00013DC0       __ZNK6Stanza8toStringEi
 0001:00013E90       __ZNK6Stanza11toByteArrayEv
 0001:00013F00       __ZN6Stanza11findElementERK11QDomElementRK7QStringS5_
 0001:00014000       __ZNK6Stanza12firstElementERK7QStringS2_
 0001:00014070       __ZNK6Stanza7isValidEv
 0001:00014310       __ZN18QSharedDataPointerI10StanzaDataED1Ev$w$jSyFoewpfD6ZPOCx2
 0001:00014350       __ZN6StanzaC1ERK11QDomElement
 0001:00014350       __ZN6StanzaC2ERK11QDomElement
 0001:00014400       __ZN6StanzaC1ERK7QString
 0001:00014400       __ZN6StanzaC2ERK7QString
 0001:000144B0       __ZN18QSharedDataPointerI10StanzaDataE13detach_helperEv$w$jSyFoewpfD6ZPOCx2
 0001:00014530       __ZN6Stanza14createTextNodeERK7QString
 0001:00014580       __ZN6Stanza10setTagNameERK7QString
 0001:000145F0       __ZN6Stanza6detachEv
 0001:00014620       __ZN6Stanza13createElementERK7QStringS2_
 0001:000146C0       __ZN6Stanza10addElementERK7QStringS2_
 0001:000147A0       __ZN6Stanza12setAttributeERK7QStringS2_
 0001:00014870       __ZN6Stanza7setLangERK7QString
 0001:000148F0       __ZN6Stanza7setFromERK7QString
 0001:00014970       __ZN6Stanza5setToERK7QString
 0001:000149F0       __ZN6Stanza5setIdERK7QString
 0001:00014A70       __ZN6Stanza7setTypeERK7QString
 0001:00014AF0       __ZN5QHashIi8QVariantE11deleteNode2EPN9QHashData4NodeE$w$v8Ij8kwpfD6ooPV82
 0001:00014B00       __ZN5QHashIi8QVariantE13duplicateNodeEPN9QHashData4NodeEPv$w$v8Ij8kwpfD6ooPV82
 0001:00014B90       __ZN7QStringD1Ev$w$v8Ij8kwpfD6ooPV82
 0001:00014BC0       __ZN6ActionC2EP7QObject
 0001:00014BC0       __ZN6ActionC1EP7QObject
 0001:00014C20       __ZNK6Action4menuEv
 0001:00014C60       __ZN6Action7setMenuEP4Menu
 0001:00014CF0       __ZN6Action7setIconERK7QStringS2_i
 0001:00014DD0       __ZN6Action7setIconERK5QIcon
 0001:00014E90       __ZNK6Action4dataEi
 0001:00014F10       __ZNK6Action10shortcutIdEv
 0001:00014F30       __ZN6Action13setShortcutIdERK7QString
 0001:00014FA0       __ZN6Action18copyStandardActionEPS_P7QAction
 0001:000152E0       __ZN6Action15onMenuDestroyedEP4Menu
 0001:00015300       __ZN5QHashIi8QVariantED1Ev$w$v8Ij8kwpfD6ooPV82
 0001:00015330       __ZN6ActionD1Ev
 0001:00015330       __ZN6ActionD2Ev
 0001:00015400       __ZN6ActionD0Ev
 0001:00015420       __ZN5QHashIi8QVariantE13detach_helperEv$w$v8Ij8kwpfD6ooPV82
 0001:00015490       __ZN5QHashIi8QVariantE6removeERKi$w$v8Ij8kwpfD6ooPV82
 0001:000155B0       __ZN6Action7setDataEiRK8QVariant
 0001:000156C0       __ZN6Action7setDataERK5QHashIi8QVariantE
 0001:00015834       __ZTISt9bad_alloc$w$v8Ij8kwpfD6ooPV82
 0001:00015840       __ZTSSt9bad_alloc$w$v8Ij8kwpfD6ooPV82
 0001:00015850       __ZTISt9exception$w$v8Ij8kwpfD6ooPV82
 0001:00015858       __ZTSSt9exception$w$v8Ij8kwpfD6ooPV82
 0001:00015910       __ZN7QStringD1Ev$w$xxeCqtwpfD6zMw8g2
 0001:00015940       __ZNK4Menu7isEmptyEv
 0001:00015960       __ZNK4Menu10menuActionEv
 0001:00015970       __ZNK4Menu11actionGroupEPK6Action
 0001:000159C0       __ZN4Menu7setIconERK7QStringS2_i
 0001:00015AA0       __ZN4Menu7setIconERK5QIcon
 0001:00015B70       __ZN4Menu8setTitleERK7QString
 0001:00015BB0       __ZN4QMapIiP7QActionED1Ev$w$xxeCqtwpfD6zMw8g2
 0001:00015BF0       __ZN4QMapIiP6ActionED2Ev$w$xxeCqtwpfD6zMw8g2
 0001:00015C30       __ZN4MenuD2Ev
 0001:00015C30       __ZN4MenuD1Ev
 0001:00015D10       __ZThn8_N4MenuD1Ev
 0001:00015D20       __ZN4MenuD0Ev
 0001:00015D40       __ZThn8_N4MenuD0Ev
 0001:00015D50       __ZN4MenuC1EP7QWidget
 0001:00015D50       __ZN4MenuC2EP7QWidget
 0001:00015E20       __ZN5QListIP6ActionED1Ev$w$xxeCqtwpfD6zMw8g2
 0001:00015E50       __ZN5QListIiED1Ev$w$xxeCqtwpfD6zMw8g2
 0001:00015E80       __ZN5QListI8QVariantED1Ev$w$xxeCqtwpfD6zMw8g2
 0001:00015EB0       __ZNK5QListI8QVariantE8containsERKS0_$w$xxeCqtwpfD6zMw8g2
 0001:00015F00       __ZN5QListIP7QActionED1Ev$w$xxeCqtwpfD6zMw8g2
 0001:00015F30       __ZNK4QMapIiP6ActionE15mutableFindNodeEPPN8QMapData4NodeERKi$w$xxeCqtwpfD6zMw8g2
 0001:00015FA0       __ZNK4Menu18nextGroupSeparatorEi
 0001:00016050       __ZN5QListIP6ActionE18detach_helper_growEii$w$xxeCqtwpfD6zMw8g2
 0001:00016140       __ZN5QListIP6ActionE6appendERKS1_$w$xxeCqtwpfD6zMw8g2
 0001:000161B0       __ZNK4QMapIiP6ActionE6valuesERKi$w$xxeCqtwpfD6zMw8g2
 0001:00016260       __ZNK4QMapIiP7QActionE15mutableFindNodeEPPN8QMapData4NodeERKi$w$xxeCqtwpfD6zMw8g2
 0001:000162D0       __ZN5QListIP6ActionE13detach_helperEi$w$xxeCqtwpfD6zMw8g2
 0001:00016360       __ZN5QListIP6ActionE7reserveEi$w$xxeCqtwpfD6zMw8g2
 0001:000163A0       __ZNK4QMapIiP6ActionE6valuesEv$w$xxeCqtwpfD6zMw8g2
 0001:00016420       __ZNK4Menu12groupActionsEi
 0001:00016470       __ZN5QListIP6ActionE13detach_helperEv$w$xxeCqtwpfD6zMw8g2
 0001:00016490       __ZN5QListIP6ActionEpLERKS2_$w$xxeCqtwpfD6zMw8g2
 0001:00016580       __ZN5QListIiE13detach_helperEi$w$xxeCqtwpfD6zMw8g2
 0001:00016610       __ZN5QListIiE7reserveEi$w$xxeCqtwpfD6zMw8g2
 0001:00016650       __ZN5QListIiE13detach_helperEv$w$xxeCqtwpfD6zMw8g2
 0001:00016670       __ZN5QListIiE18detach_helper_growEii$w$xxeCqtwpfD6zMw8g2
 0001:00016760       __ZN5QListIiE6appendERKi$w$xxeCqtwpfD6zMw8g2
 0001:000167D0       __ZNK5QHashIi8QVariantE4keysEv$w$xxeCqtwpfD6zMw8g2
 0001:00016880       __ZN5QListI8QVariantE18detach_helper_growEii$w$xxeCqtwpfD6zMw8g2
 0001:00016AC0       __ZN5QListI8QVariantE6appendERKS0_$w$xxeCqtwpfD6zMw8g2
 0001:00016BB0       __ZNK5QHashIi8QVariantE6valuesERKi$w$xxeCqtwpfD6zMw8g2
 0001:00016C50       __ZN4QMapIiP6ActionE13detach_helperEv$w$xxeCqtwpfD6zMw8g2
 0001:00016D30       __ZNK4Menu11findActionsERK10QMultiHashIi8QVariantEb
 0001:00017000       __ZN4QMapIiP6ActionE5eraseENS2_8iteratorE$w$xxeCqtwpfD6zMw8g2
 0001:000170F0       __ZN4QMapIiP7QActionE13detach_helperEv$w$xxeCqtwpfD6zMw8g2
 0001:000171D0       __ZN4QMapIiP7QActionE6removeERKi$w$xxeCqtwpfD6zMw8g2
 0001:00017310       __ZN4Menu12removeActionEP6Action
 0001:00017530       __ZN4Menu17onActionDestroyedEP6Action
 0001:00017540       __ZN4Menu5clearEv
 0001:00017630       __ZN4Menu9addActionEP6Actionib
 0001:00017D00       __ZN4Menu14addMenuActionsEPKS_ib
 0001:00017E10       __ZN5QListIP7QActionE13detach_helperEi$w$xxeCqtwpfD6zMw8g2
 0001:00017EA0       __ZN5QListIP7QActionE13detach_helperEv$w$xxeCqtwpfD6zMw8g2
 0001:00017EC0       __ZN4Menu16copyStandardMenuEPS_P5QMenui
 0001:000180D0       __ZN5QHashI7QStringPN13UnzipFileData10ZippedFileEE13duplicateNodeEPN9QHashData4NodeEPv$w$rYz77ywpfD6ajwMW2
 0001:00018160       __ZN5QHashI7QStringPN13UnzipFileData10ZippedFileEE11deleteNode2EPN9QHashData4NodeE$w$rYz77ywpfD6ajwMW2
 0001:00018190       __ZN10QByteArrayD1Ev$w$rYz77ywpfD6ajwMW2
 0001:000181C0       __ZN7QStringD1Ev$w$rYz77ywpfD6ajwMW2
 0001:000181F0       __ZN13UnzipFileDataC2Ev
 0001:000181F0       __ZN13UnzipFileDataC1Ev
 0001:00018230       __ZNK9UnzipFile7isValidEv
 0001:00018250       __ZNK9UnzipFile11zipFileNameEv
 0001:00018260       __ZN5QHashI7QStringPN13UnzipFileData10ZippedFileEED1Ev$w$rYz77ywpfD6ajwMW2
 0001:00018290       __ZN5QListI7QStringED1Ev$w$rYz77ywpfD6ajwMW2
 0001:000182C0       __ZN5QHashI7QStringPN13UnzipFileData10ZippedFileEE13detach_helperEv$w$rYz77ywpfD6ajwMW2
 0001:00018330       __ZN13UnzipFileDataC2ERKS_
 0001:00018330       __ZN13UnzipFileDataC1ERKS_
 0001:00018470       __Z10qDeleteAllIN5QHashI7QStringPN13UnzipFileData10ZippedFileEE14const_iteratorEEvT_S7_$w$rYz77ywpfD6ajwMW2
 0001:000184F0       __ZN13UnzipFileDataD1Ev
 0001:000184F0       __ZN13UnzipFileDataD2Ev
 0001:000185C0       __ZN18QSharedDataPointerI13UnzipFileDataED1Ev$w$rYz77ywpfD6ajwMW2
 0001:00018600       __ZN9UnzipFileD2Ev
 0001:00018600       __ZN9UnzipFileD1Ev
 0001:00018640       __ZN9UnzipFileC2Ev
 0001:00018640       __ZN9UnzipFileC1Ev
 0001:000186E0       __ZNK5QHashI7QStringPN13UnzipFileData10ZippedFileEE8findNodeERKS0_Pj$w$rYz77ywpfD6ajwMW2
 0001:00018760       __ZNK9UnzipFile8fileSizeERK7QString
 0001:000187F0       __ZNK9UnzipFile18loadZippedFileDataERK7QString
 0001:00018980       __ZNK9UnzipFile8fileDataERK7QString
 0001:00018A10       __ZN18QSharedDataPointerI13UnzipFileDataE13detach_helperEv$w$rYz77ywpfD6ajwMW2
 0001:00018A90       __ZN9UnzipFile19loadZippedFilesInfoEb
 0001:00018E40       __ZN9UnzipFile8openFileERK7QStringb
 0001:00018FC0       __ZN9UnzipFileC2ERK7QStringb
 0001:00018FC0       __ZN9UnzipFileC1ERK7QStringb
 0001:00019080       __ZN5QListI7QStringE13detach_helperEi$w$rYz77ywpfD6ajwMW2
 0001:00019100       __ZN5QListI7QStringE7reserveEi$w$rYz77ywpfD6ajwMW2
 0001:00019140       __ZN5QListI7QStringE18detach_helper_growEii$w$rYz77ywpfD6ajwMW2
 0001:00019230       __ZN5QListI7QStringE6appendERKS0_$w$rYz77ywpfD6ajwMW2
 0001:000192D0       __ZNK5QHashI7QStringPN13UnzipFileData10ZippedFileEE4keysEv$w$rYz77ywpfD6ajwMW2
 0001:00019380       __ZNK9UnzipFile9fileNamesEv
 0001:000193B0       __ZN5QHashIi8QVariantE11deleteNode2EPN9QHashData4NodeE$w$Nlg6JEwpfD61JVHa4
 0001:000193C0       __ZN5QHashIi8QVariantE13duplicateNodeEPN9QHashData4NodeEPv$w$Nlg6JEwpfD61JVHa4
 0001:000194B0       __ZN7QStringD1Ev$w$Nlg6JEwpfD61JVHa4
 0001:00019500       __ZN11MessageData14updateDateTimeEv
 0001:000198A0       __ZN7MessageD2Ev
 0001:000198A0       __ZN7MessageD1Ev
 0001:00019940       __ZNK7Message6stanzaEv
 0001:00019950       __ZNK7Message4dataEi
 0001:000199D0       __ZNK7Message2idEv
 0001:00019A00       __ZNK7Message4fromEv
 0001:00019A30       __ZNK7Message2toEv
 0001:00019A60       __ZNK7Message7defLangEv
 0001:00019AB0       __ZNK7Message4typeEv
 0001:00019E00       __ZNK7Message9isDelayedEv
 0001:0001A100       __ZNK7Message8dateTimeEv
 0001:0001A130       __ZNK7Message8threadIdEv
 0001:0001A220       __ZNK7Message14findChidByLangERK11QDomElementRK7QStringS5_
 0001:0001A420       __ZNK7Message4bodyERK7QString
 0001:0001A500       __ZNK7Message7subjectERK7QString
 0001:0001A5E0       __ZNK7MessageltERKS_
 0001:0001A670       __ZNK7Message13setTextToElemER11QDomElementRK7QString
 0001:0001A860       __ZN5QListI7QStringED2Ev$w$Nlg6JEwpfD61JVHa4
 0001:0001A890       __ZN5QHashIi8QVariantED1Ev$w$Nlg6JEwpfD61JVHa4
 0001:0001A8C0       __ZN11MessageDataC2ERK6Stanza
 0001:0001A8C0       __ZN11MessageDataC1ERK6Stanza
 0001:0001A950       __ZN11MessageDataC1Ev
 0001:0001A950       __ZN11MessageDataC2Ev
 0001:0001AA50       __ZN18QSharedDataPointerI11MessageDataED1Ev$w$Nlg6JEwpfD61JVHa4
 0001:0001AAF0       __ZN7MessageC1ERK6Stanza
 0001:0001AAF0       __ZN7MessageC2ERK6Stanza
 0001:0001ABF0       __ZN7MessageC1Ev
 0001:0001ABF0       __ZN7MessageC2Ev
 0001:0001ACE0       __ZN5QListI7QStringE18detach_helper_growEii$w$Nlg6JEwpfD61JVHa4
 0001:0001ADD0       __ZN5QListI7QStringE6appendERKS0_$w$Nlg6JEwpfD61JVHa4
 0001:0001AE70       __ZNK7Message14availableLangsERK11QDomElementRK7QString
 0001:0001B0D0       __ZNK7Message9bodyLangsEv
 0001:0001B180       __ZNK7Message12subjectLangsEv
 0001:0001B230       __ZN5QHashIi8QVariantE13detach_helperEv$w$Nlg6JEwpfD61JVHa4
 0001:0001B2A0       __ZN5QHashIi8QVariantE6removeERKi$w$Nlg6JEwpfD61JVHa4
 0001:0001B3C0       __ZN11MessageDataC2ERKS_
 0001:0001B3C0       __ZN11MessageDataC1ERKS_
 0001:0001B4B0       __ZN18QSharedDataPointerI11MessageDataE13detach_helperEv$w$Nlg6JEwpfD61JVHa4
 0001:0001B580       __ZN7Message9setStanzaERK6Stanza
 0001:0001B600       __ZN7Message10setDefLangERK7QString
 0001:0001B640       __ZN7Message5setToERK7QString
 0001:0001B680       __ZN7Message7setFromERK7QString
 0001:0001B6C0       __ZN7Message5setIdERK7QString
 0001:0001B700       __ZN7Message6stanzaEv
 0001:0001B730       __ZN7Message6detachEv
 0001:0001B790       __ZN7Message7setDataEiRK8QVariant
 0001:0001B910       __ZN7Message7setDataERK5QHashIi8QVariantE
 0001:0001B980       __ZN7Message11setThreadIdERK7QString
 0001:0001BC60       __ZN7Message14addChildByLangERK11QDomElementRK7QStringS5_S5_
 0001:0001BF00       __ZN7Message7setBodyERK7QStringS2_
